(lp1
Vdisappearance
p2
aVlady
p3
aVfrances
p4
aVcarfax
p5
aVsir
p6
aVarthur
p7
aVconan
p8
aVdoyle
p9
aVturkish
p10
aVasked
p11
aVmr
p12
aVsherlock
p13
aVholmes
p14
aVgazing
p15
aVfixedly
p16
aVboots
p17
aVreclining
p18
aVcanebacked
p19
aVchair
p20
aVmoment
p21
aVprotruded
p22
aVfeet
p23
aVattracted
p24
aVeveractive
p25
aVattention
p26
aVenglish
p27
aVanswered
p28
aVsurprise
p29
aVgot
p30
aVlatimer
p31
aVoxford
p32
aVstreet
p33
aVholmes
p34
aVsmiled
p35
aVexpression
p36
aVweary
p37
aVpatience
p38
aVbath
p39
aVsaid
p40
aVbath
p41
aVrelaxing
p42
aVexpensive
p43
aVturkish
p44
aVrather
p45
aVinvigorating
p46
aVhomemade
p47
aVarticle
p48
aVlast
p49
aVdays
p50
aVfeeling
p51
aVrheumatic
p52
aVold
p53
aVturkish
p54
aVbath
p55
aVcall
p56
aValterative
p57
aVmedicine
p58
aVfresh
p59
aVstartingpoint
p60
aVcleanser
p61
aVsystem
p62
aVway
p63
aVholmes
p64
aVadded
p65
aVdoubt
p66
aVconnection
p67
aVboots
p68
aVturkish
p69
aVbath
p70
aVperfectly
p71
aVselfevident
p72
aVone
p73
aVlogical
p74
aVmind
p75
aVyet
p76
aVobliged
p77
aVwould
p78
aVindicate
p79
aVtrain
p80
aVreasoning
p81
aVobscure
p82
aVwatson
p83
aVsaid
p84
aVholmes
p85
aVmischievous
p86
aVtwinkle
p87
aVbelongs
p88
aVelementary
p89
aVclass
p90
aVdeduction
p91
aVillustrate
p92
aVask
p93
aVshared
p94
aVcab
p95
aVdrive
p96
aVmorning
p97
aVnt
p98
aVadmit
p99
aVfresh
p100
aVillustration
p101
aVexplanation
p102
aVsaid
p103
aVasperity
p104
aVbravo
p105
aVwatson
p106
aVdignified
p107
aVlogical
p108
aVremonstrance
p109
aVlet
p110
aVsee
p111
aVpoints
p112
aVtake
p113
aVlast
p114
aVone
p115
aVfirst
p116
aVcab
p117
aVobserve
p118
aVsplashes
p119
aVleft
p120
aVsleeve
p121
aVshoulder
p122
aVcoat
p123
aVsat
p124
aVcentre
p125
aVhansom
p126
aVwould
p127
aVprobably
p128
aVsplashes
p129
aVwould
p130
aVcertainly
p131
aVsymmetrical
p132
aVtherefore
p133
aVclear
p134
aVsat
p135
aVside
p136
aVtherefore
p137
aVequally
p138
aVclear
p139
aVcompanion
p140
aVevident
p141
aVabsurdly
p142
aVcommonplace
p143
aVboots
p144
aVbath
p145
aVequally
p146
aVchildish
p147
aVhabit
p148
aVboots
p149
aVcertain
p150
aVway
p151
aVsee
p152
aVoccasion
p153
aVfastened
p154
aVelaborate
p155
aVdouble
p156
aVbow
p157
aVusual
p158
aVmethod
p159
aVtying
p160
aVtherefore
p161
aVtied
p162
aVbootmaker
p163
aVboy
p164
aVbath
p165
aVunlikely
p166
aVbootmaker
p167
aVsince
p168
aVboots
p169
aVnearly
p170
aVnew
p171
aVwell
p172
aVremains
p173
aVbath
p174
aVabsurd
p175
aVturkish
p176
aVbath
p177
aVserved
p178
aVpurpose
p179
aVsay
p180
aVneed
p181
aVchange
p182
aVlet
p183
aVsuggest
p184
aVtake
p185
aVone
p186
aVwould
p187
aVlausanne
p188
aVdear
p189
aVwatson
p190
aVfirstclass
p191
aVtickets
p192
aVexpenses
p193
aVpaid
p194
aVprincely
p195
aVscale
p196
aVsplendid
p197
aVholmes
p198
aVleaned
p199
aVback
p200
aVarmchair
p201
aVtook
p202
aVnotebook
p203
aVpocket
p204
aVone
p205
aVdangerous
p206
aVclasses
p207
aVworld
p208
aVsaid
p209
aVdrifting
p210
aVfriendless
p211
aVwoman
p212
aVharmless
p213
aVoften
p214
aVuseful
p215
aVmortals
p216
aVinevitable
p217
aVinciter
p218
aVcrime
p219
aVothers
p220
aVhelpless
p221
aVmigratory
p222
aVsufficient
p223
aVmeans
p224
aVtake
p225
aVcountry
p226
aVcountry
p227
aVhotel
p228
aVhotel
p229
aVlost
p230
aVoften
p231
aVmaze
p232
aVobscure
p233
aVpensions
p234
aVboardinghouses
p235
aVstray
p236
aVchicken
p237
aVworld
p238
aVfoxes
p239
aVgobbled
p240
aVhardly
p241
aVmissed
p242
aVmuch
p243
aVfear
p244
aVevil
p245
aVcome
p246
aVlady
p247
aVfrances
p248
aVcarfax
p249
aVrelieved
p250
aVsudden
p251
aVdescent
p252
aVgeneral
p253
aVparticular
p254
aVholmes
p255
aVconsulted
p256
aVnotes
p257
aVlady
p258
aVfrances
p259
aVcontinued
p260
aVsole
p261
aVsurvivor
p262
aVdirect
p263
aVfamily
p264
aVlate
p265
aVearl
p266
aVrufton
p267
aVestates
p268
aVwent
p269
aVmay
p270
aVremember
p271
aVmale
p272
aVline
p273
aVleft
p274
aVlimited
p275
aVmeans
p276
aVremarkable
p277
aVold
p278
aVspanish
p279
aVjewellery
p280
aVsilver
p281
aVcuriously
p282
aVcut
p283
aVdiamonds
p284
aVfondly
p285
aVattached
p286
aVattached
p287
aVrefused
p288
aVleave
p289
aVbanker
p290
aValways
p291
aVcarried
p292
aVrather
p293
aVpathetic
p294
aVfigure
p295
aVlady
p296
aVfrances
p297
aVbeautiful
p298
aVwoman
p299
aVstill
p300
aVfresh
p301
aVmiddle
p302
aVage
p303
aVyet
p304
aVstrange
p305
aVchange
p306
aVlast
p307
aVderelict
p308
aVtwenty
p309
aVyears
p310
aVago
p311
aVgoodly
p312
aVfleet
p313
aVhappened
p314
aVah
p315
aVhappened
p316
aVlady
p317
aVfrances
p318
aValive
p319
aVdead
p320
aVproblem
p321
aVlady
p322
aVprecise
p323
aVhabits
p324
aVfour
p325
aVyears
p326
aVinvariable
p327
aVcustom
p328
aVwrite
p329
aVevery
p330
aVsecond
p331
aVweek
p332
aVmiss
p333
aVdobney
p334
aVold
p335
aVgoverness
p336
aVlong
p337
aVretired
p338
aVlives
p339
aVcamberwell
p340
aVmiss
p341
aVdobney
p342
aVconsulted
p343
aVnearly
p344
aVfive
p345
aVweeks
p346
aVpassed
p347
aVwithout
p348
aVword
p349
aVlast
p350
aVletter
p351
aVhotel
p352
aVnational
p353
aVlausanne
p354
aVlady
p355
aVfrances
p356
aVseems
p357
aVleft
p358
aVgiven
p359
aVaddress
p360
aVfamily
p361
aVanxious
p362
aVexceedingly
p363
aVwealthy
p364
aVsum
p365
aVspared
p366
aVclear
p367
aVmatter
p368
aVmiss
p369
aVdobney
p370
aVsource
p371
aVinformation
p372
aVsurely
p373
aVcorrespondents
p374
aVone
p375
aVcorrespondent
p376
aVsure
p377
aVdraw
p378
aVwatson
p379
aVbank
p380
aVsingle
p381
aVladies
p382
aVmust
p383
aVlive
p384
aVpassbooks
p385
aVcompressed
p386
aVdiaries
p387
aVbanks
p388
aVsilvester
p389
aVglanced
p390
aVaccount
p391
aVlast
p392
aVcheck
p393
aVone
p394
aVpaid
p395
aVbill
p396
aVlausanne
p397
aVlarge
p398
aVone
p399
aVprobably
p400
aVleft
p401
aVcash
p402
aVhand
p403
aVone
p404
aVcheck
p405
aVdrawn
p406
aVsince
p407
aVmiss
p408
aVmarie
p409
aVdevine
p410
aVnothing
p411
aVshow
p412
aVcheck
p413
aVdrawn
p414
aVcashed
p415
aVcredit
p416
aVlyonnais
p417
aVmontpellier
p418
aVless
p419
aVthree
p420
aVweeks
p421
aVago
p422
aVsum
p423
aVfifty
p424
aVpounds
p425
aVmiss
p426
aVmarie
p427
aVdevine
p428
aValso
p429
aVable
p430
aVdiscover
p431
aVmiss
p432
aVmarie
p433
aVdevine
p434
aVmaid
p435
aVlady
p436
aVfrances
p437
aVcarfax
p438
aVpaid
p439
aVcheck
p440
aVyet
p441
aVdetermined
p442
aVdoubt
p443
aVhowever
p444
aVresearches
p445
aVsoon
p446
aVclear
p447
aVmatter
p448
aVresearches
p449
aVhence
p450
aVhealthgiving
p451
aVexpedition
p452
aVlausanne
p453
aVknow
p454
aVpossibly
p455
aVleave
p456
aVlondon
p457
aVold
p458
aVabrahams
p459
aVmortal
p460
aVterror
p461
aVlife
p462
aVbesides
p463
aVgeneral
p464
aVprinciples
p465
aVbest
p466
aVleave
p467
aVcountry
p468
aVscotland
p469
aVyard
p470
aVfeels
p471
aVlonely
p472
aVwithout
p473
aVcauses
p474
aVunhealthy
p475
aVexcitement
p476
aVamong
p477
aVcriminal
p478
aVclasses
p479
aVgo
p480
aVdear
p481
aVwatson
p482
aVhumble
p483
aVcounsel
p484
aVever
p485
aVvalued
p486
aVextravagant
p487
aVrate
p488
aVtwo
p489
aVpence
p490
aVword
p491
aVwaits
p492
aVdisposal
p493
aVnight
p494
aVday
p495
aVend
p496
aVcontinental
p497
aVwire
p498
aVtwo
p499
aVdays
p500
aVlater
p501
aVfound
p502
aVhotel
p503
aVnational
p504
aVlausanne
p505
aVreceived
p506
aVevery
p507
aVcourtesy
p508
aVhands
p509
aVm
aVmoser
p510
aVwellknown
p511
aVmanager
p512
aVlady
p513
aVfrances
p514
aVinformed
p515
aVstayed
p516
aVseveral
p517
aVweeks
p518
aVmuch
p519
aVliked
p520
aVmet
p521
aVage
p522
aVforty
p523
aVstill
p524
aVhandsome
p525
aVbore
p526
aVevery
p527
aVsign
p528
aVyouth
p529
aVlovely
p530
aVwoman
p531
aVm
aVmoser
p532
aVknew
p533
aVnothing
p534
aVvaluable
p535
aVjewellery
p536
aVremarked
p537
aVservants
p538
aVheavy
p539
aVtrunk
p540
aVlady
p541
aVbedroom
p542
aValways
p543
aVscrupulously
p544
aVlocked
p545
aVmarie
p546
aVdevine
p547
aVmaid
p548
aVpopular
p549
aVmistress
p550
aVactually
p551
aVengaged
p552
aVone
p553
aVhead
p554
aVwaiters
p555
aVhotel
p556
aVdifficulty
p557
aVgetting
p558
aVaddress
p559
aVrue
p560
aVde
p561
aVtrajan
p562
aVmontpellier
p563
aVjotted
p564
aVfelt
p565
aVholmes
p566
aVcould
p567
aVadroit
p568
aVcollecting
p569
aVfacts
p570
aVone
p571
aVcorner
p572
aVstill
p573
aVremained
p574
aVshadow
p575
aVlight
p576
aVpossessed
p577
aVcould
p578
aVclear
p579
aVcause
p580
aVlady
p581
aVsudden
p582
aVdeparture
p583
aVhappy
p584
aVlausanne
p585
aVevery
p586
aVreason
p587
aVbelieve
p588
aVintended
p589
aVremain
p590
aVseason
p591
aVluxurious
p592
aVrooms
p593
aVoverlooking
p594
aVlake
p595
aVyet
p596
aVleft
p597
aVsingle
p598
aVday
p599
aVnotice
p600
aVinvolved
p601
aVuseless
p602
aVpayment
p603
aVweek
p604
aVrent
p605
aVjules
p606
aVvibart
p607
aVlover
p608
aVmaid
p609
aVsuggestion
p610
aVoffer
p611
aVconnected
p612
aVsudden
p613
aVdeparture
p614
aVvisit
p615
aVhotel
p616
aVday
p617
aVtwo
p618
aVtall
p619
aVdark
p620
aVbearded
p621
aVman
p622
aVun
p623
aVsauvage
p624
aVun
p625
aVveritable
p626
aVsauvage
p627
aVcried
p628
aVjules
p629
aVvibart
p630
aVman
p631
aVrooms
p632
aVsomewhere
p633
aVtown
p634
aVseen
p635
aVtalking
p636
aVearnestly
p637
aVmadame
p638
aVpromenade
p639
aVlake
p640
aVcalled
p641
aVrefused
p642
aVsee
p643
aVenglish
p644
aVname
p645
aVrecord
p646
aVmadame
p647
aVleft
p648
aVplace
p649
aVimmediately
p650
aVafterwards
p651
aVjules
p652
aVvibart
p653
aVimportance
p654
aVjules
p655
aVvibart
p656
aVsweetheart
p657
aVthought
p658
aVcall
p659
aVdeparture
p660
aVcause
p661
aVeffect
p662
aVone
p663
aVthing
p664
aVjules
p665
aVwould
p666
aVdiscuss
p667
aVreason
p668
aVmarie
p669
aVleft
p670
aVmistress
p671
aVcould
p672
aVwould
p673
aVsay
p674
aVnothing
p675
aVwished
p676
aVknow
p677
aVmust
p678
aVgo
p679
aVmontpellier
p680
aVask
p681
aVended
p682
aVfirst
p683
aVchapter
p684
aVinquiry
p685
aVsecond
p686
aVdevoted
p687
aVplace
p688
aVlady
p689
aVfrances
p690
aVcarfax
p691
aVsought
p692
aVleft
p693
aVlausanne
p694
aVconcerning
p695
aVsecrecy
p696
aVconfirmed
p697
aVidea
p698
aVgone
p699
aVintention
p700
aVthrowing
p701
aVsomeone
p702
aVtrack
p703
aVotherwise
p704
aVluggage
p705
aVopenly
p706
aVlabelled
p707
aVbaden
p708
aVreached
p709
aVrhenish
p710
aVspa
p711
aVcircuitous
p712
aVroute
p713
aVmuch
p714
aVgathered
p715
aVmanager
p716
aVcook
p717
aVlocal
p718
aVoffice
p719
aVbaden
p720
aVwent
p721
aVdispatching
p722
aVholmes
p723
aVaccount
p724
aVproceedings
p725
aVreceiving
p726
aVreply
p727
aVtelegram
p728
aVhalfhumorous
p729
aVcommendation
p730
aVbaden
p731
aVtrack
p732
aVdifficult
p733
aVfollow
p734
aVlady
p735
aVfrances
p736
aVstayed
p737
aVenglischer
p738
aVhof
p739
aVfortnight
p740
aVmade
p741
aVacquaintance
p742
aVdr
p743
aVshlessinger
p744
aVwife
p745
aVmissionary
p746
aVsouth
p747
aVamerica
p748
aVlike
p749
aVlonely
p750
aVladies
p751
aVlady
p752
aVfrances
p753
aVfound
p754
aVcomfort
p755
aVoccupation
p756
aVreligion
p757
aVdr
p758
aVshlessinger
p759
aVremarkable
p760
aVpersonality
p761
aVwhole
p762
aVhearted
p763
aVdevotion
p764
aVfact
p765
aVrecovering
p766
aVdisease
p767
aVcontracted
p768
aVexercise
p769
aVapostolic
p770
aVduties
p771
aVaffected
p772
aVdeeply
p773
aVhelped
p774
aVmrs
p775
aVshlessinger
p776
aVnursing
p777
aVconvalescent
p778
aVsaint
p779
aVspent
p780
aVday
p781
aVmanager
p782
aVdescribed
p783
aVupon
p784
aVloungechair
p785
aVveranda
p786
aVattendant
p787
aVlady
p788
aVupon
p789
aVeither
p790
aVside
p791
aVpreparing
p792
aVmap
p793
aVholy
p794
aVland
p795
aVspecial
p796
aVreference
p797
aVkingdom
p798
aVmidianites
p799
aVupon
p800
aVwriting
p801
aVmonograph
p802
aVfinally
p803
aVimproved
p804
aVmuch
p805
aVhealth
p806
aVwife
p807
aVreturned
p808
aVlondon
p809
aVlady
p810
aVfrances
p811
aVstarted
p812
aVthither
p813
aVcompany
p814
aVthree
p815
aVweeks
p816
aVmanager
p817
aVheard
p818
aVnothing
p819
aVsince
p820
aVmaid
p821
aVmarie
p822
aVgone
p823
aVdays
p824
aVbeforehand
p825
aVfloods
p826
aVtears
p827
aVinforming
p828
aVmaids
p829
aVleaving
p830
aVservice
p831
aVforever
p832
aVdr
p833
aVshlessinger
p834
aVpaid
p835
aVbill
p836
aVwhole
p837
aVparty
p838
aVdeparture
p839
aVway
p840
aVsaid
p841
aVlandlord
p842
aVconclusion
p843
aVfriend
p844
aVlady
p845
aVfrances
p846
aVcarfax
p847
aVinquiring
p848
aVweek
p849
aVago
p850
aVman
p851
aVupon
p852
aVerrand
p853
aVgive
p854
aVname
p855
aVasked
p856
aVnone
p857
aVenglishman
p858
aVthough
p859
aVunusual
p860
aVtype
p861
aVsavage
p862
aVsaid
p863
aVlinking
p864
aVfacts
p865
aVfashion
p866
aVillustrious
p867
aVfriend
p868
aVexactly
p869
aVdescribes
p870
aVwell
p871
aVbulky
p872
aVbearded
p873
aVsunburned
p874
aVfellow
p875
aVlooks
p876
aVwould
p877
aVhome
p878
aVfarmers
p879
aVinn
p880
aVfashionable
p881
aVhotel
p882
aVhard
p883
aVfierce
p884
aVman
p885
aVthink
p886
aVone
p887
aVsorry
p888
aVoffend
p889
aValready
p890
aVmystery
p891
aVbegan
p892
aVdefine
p893
aVfigures
p894
aVgrow
p895
aVclearer
p896
aVlifting
p897
aVfog
p898
aVgood
p899
aVpious
p900
aVlady
p901
aVpursued
p902
aVplace
p903
aVplace
p904
aVsinister
p905
aVunrelenting
p906
aVfigure
p907
aVfeared
p908
aVwould
p909
aVfled
p910
aVlausanne
p911
aVstill
p912
aVfollowed
p913
aVsooner
p914
aVlater
p915
aVwould
p916
aVovertake
p917
aValready
p918
aVovertaken
p919
aVsecret
p920
aVcontinued
p921
aVsilence
p922
aVcould
p923
aVgood
p924
aVpeople
p925
aVcompanions
p926
aVscreen
p927
aVviolence
p928
aVblackmail
p929
aVhorrible
p930
aVpurpose
p931
aVdeep
p932
aVdesign
p933
aVlay
p934
aVbehind
p935
aVlong
p936
aVpursuit
p937
aVproblem
p938
aVsolve
p939
aVholmes
p940
aVwrote
p941
aVshowing
p942
aVrapidly
p943
aVsurely
p944
aVgot
p945
aVroots
p946
aVmatter
p947
aVreply
p948
aVtelegram
p949
aVasking
p950
aVdescription
p951
aVdr
p952
aVshlessinger
p953
aVleft
p954
aVear
p955
aVholmes
p956
aVideas
p957
aVhumour
p958
aVstrange
p959
aVoccasionally
p960
aVoffensive
p961
aVtook
p962
aVnotice
p963
aVilltimed
p964
aVjest
p965
aVindeed
p966
aValready
p967
aVreached
p968
aVmontpellier
p969
aVpursuit
p970
aVmaid
p971
aVmarie
p972
aVmessage
p973
aVcame
p974
aVdifficulty
p975
aVfinding
p976
aVexservant
p977
aVlearning
p978
aVcould
p979
aVtell
p980
aVdevoted
p981
aVcreature
p982
aVleft
p983
aVmistress
p984
aVsure
p985
aVgood
p986
aVhands
p987
aVapproaching
p988
aVmarriage
p989
aVmade
p990
aVseparation
p991
aVinevitable
p992
aVcase
p993
aVmistress
p994
aVconfessed
p995
aVdistress
p996
aVshown
p997
aVirritability
p998
aVtemper
p999
aVtowards
p1000
aVstay
p1001
aVbaden
p1002
aVeven
p1003
aVquestioned
p1004
aVsuspicions
p1005
aVhonesty
p1006
aVmade
p1007
aVparting
p1008
aVeasier
p1009
aVwould
p1010
aVotherwise
p1011
aVlady
p1012
aVfrances
p1013
aVgiven
p1014
aVfifty
p1015
aVpounds
p1016
aVweddingpresent
p1017
aVlike
p1018
aVmarie
p1019
aVviewed
p1020
aVdeep
p1021
aVdistrust
p1022
aVstranger
p1023
aVdriven
p1024
aVmistress
p1025
aVlausanne
p1026
aVeyes
p1027
aVseen
p1028
aVseize
p1029
aVlady
p1030
aVwrist
p1031
aVgreat
p1032
aVviolence
p1033
aVpublic
p1034
aVpromenade
p1035
aVlake
p1036
aVfierce
p1037
aVterrible
p1038
aVman
p1039
aVbelieved
p1040
aVdread
p1041
aVlady
p1042
aVfrances
p1043
aVaccepted
p1044
aVescort
p1045
aVshlessingers
p1046
aVlondon
p1047
aVnever
p1048
aVspoken
p1049
aVmarie
p1050
aVmany
p1051
aVlittle
p1052
aVsigns
p1053
aVconvinced
p1054
aVmaid
p1055
aVmistress
p1056
aVlived
p1057
aVstate
p1058
aVcontinual
p1059
aVnervous
p1060
aVapprehension
p1061
aVfar
p1062
aVgot
p1063
aVnarrative
p1064
aVsuddenly
p1065
aVsprang
p1066
aVchair
p1067
aVface
p1068
aVconvulsed
p1069
aVsurprise
p1070
aVfear
p1071
aVsee
p1072
aVcried
p1073
aVmiscreant
p1074
aVfollows
p1075
aVstill
p1076
aVman
p1077
aVspeak
p1078
aVopen
p1079
aVsittingroom
p1080
aVwindow
p1081
aVsaw
p1082
aVhuge
p1083
aVswarthy
p1084
aVman
p1085
aVbristling
p1086
aVblack
p1087
aVbeard
p1088
aVwalking
p1089
aVslowly
p1090
aVcentre
p1091
aVstreet
p1092
aVstaring
p1093
aVeagerly
p1094
aVnumbers
p1095
aVhouses
p1096
aVclear
p1097
aVlike
p1098
aVtrack
p1099
aVmaid
p1100
aVacting
p1101
aVupon
p1102
aVimpulse
p1103
aVmoment
p1104
aVrushed
p1105
aVaccosted
p1106
aVenglishman
p1107
aVsaid
p1108
aVasked
p1109
aVvillainous
p1110
aVscowl
p1111
aVmay
p1112
aVask
p1113
aVname
p1114
aVmay
p1115
aVsaid
p1116
aVdecision
p1117
aVsituation
p1118
aVawkward
p1119
aVdirect
p1120
aVway
p1121
aVoften
p1122
aVbest
p1123
aVlady
p1124
aVfrances
p1125
aVcarfax
p1126
aVasked
p1127
aVstared
p1128
aVamazement
p1129
aVdone
p1130
aVpursued
p1131
aVinsist
p1132
aVupon
p1133
aVanswer
p1134
aVsaid
p1135
aVfellow
p1136
aVgave
p1137
aVanger
p1138
aVsprang
p1139
aVupon
p1140
aVlike
p1141
aVtiger
p1142
aVheld
p1143
aVmany
p1144
aVstruggle
p1145
aVman
p1146
aVgrip
p1147
aViron
p1148
aVfury
p1149
aVfiend
p1150
aVhand
p1151
aVthroat
p1152
aVsenses
p1153
aVnearly
p1154
aVgone
p1155
aVunshaven
p1156
aVfrench
p1157
aVouvrier
p1158
aVblue
p1159
aVblouse
p1160
aVdarted
p1161
aVcabaret
p1162
aVopposite
p1163
aVcudgel
p1164
aVhand
p1165
aVstruck
p1166
aVassailant
p1167
aVsharp
p1168
aVcrack
p1169
aVforearm
p1170
aVmade
p1171
aVleave
p1172
aVgo
p1173
aVhold
p1174
aVstood
p1175
aVinstant
p1176
aVfuming
p1177
aVrage
p1178
aVuncertain
p1179
aVwhether
p1180
aVrenew
p1181
aVattack
p1182
aVsnarl
p1183
aVanger
p1184
aVleft
p1185
aVentered
p1186
aVcottage
p1187
aVcome
p1188
aVturned
p1189
aVthank
p1190
aVpreserver
p1191
aVstood
p1192
aVbeside
p1193
aVroadway
p1194
aVwell
p1195
aVwatson
p1196
aVsaid
p1197
aVpretty
p1198
aVhash
p1199
aVmade
p1200
aVrather
p1201
aVthink
p1202
aVbetter
p1203
aVcome
p1204
aVback
p1205
aVlondon
p1206
aVnight
p1207
aVexpress
p1208
aVhour
p1209
aVafterwards
p1210
aVsherlock
p1211
aVholmes
p1212
aVusual
p1213
aVgarb
p1214
aVstyle
p1215
aVseated
p1216
aVprivate
p1217
aVroom
p1218
aVhotel
p1219
aVexplanation
p1220
aVsudden
p1221
aVopportune
p1222
aVappearance
p1223
aVsimplicity
p1224
aVfinding
p1225
aVcould
p1226
aVget
p1227
aVaway
p1228
aVlondon
p1229
aVdetermined
p1230
aVhead
p1231
aVnext
p1232
aVobvious
p1233
aVpoint
p1234
aVtravels
p1235
aVdisguise
p1236
aVworkingman
p1237
aVsat
p1238
aVcabaret
p1239
aVwaiting
p1240
aVappearance
p1241
aVsingularly
p1242
aVconsistent
p1243
aVinvestigation
p1244
aVmade
p1245
aVdear
p1246
aVwatson
p1247
aVsaid
p1248
aVmoment
p1249
aVrecall
p1250
aVpossible
p1251
aVblunder
p1252
aVomitted
p1253
aVtotal
p1254
aVeffect
p1255
aVproceeding
p1256
aVgive
p1257
aValarm
p1258
aVeverywhere
p1259
aVyet
p1260
aVdiscover
p1261
aVnothing
p1262
aVperhaps
p1263
aVwould
p1264
aVdone
p1265
aVbetter
p1266
aVanswered
p1267
aVbitterly
p1268
aVperhaps
p1269
aVdone
p1270
aVbetter
p1271
aVhon
p1272
aVphilip
p1273
aVgreen
p1274
aVfellowlodger
p1275
aVhotel
p1276
aVmay
p1277
aVfind
p1278
aVstartingpoint
p1279
aVsuccessful
p1280
aVinvestigation
p1281
aVcard
p1282
aVcome
p1283
aVsalver
p1284
aVfollowed
p1285
aVbearded
p1286
aVruffian
p1287
aVattacked
p1288
aVstreet
p1289
aVstarted
p1290
aVsaw
p1291
aVmr
p1292
aVholmes
p1293
aVasked
p1294
aVnote
p1295
aVcome
p1296
aVman
p1297
aVmatter
p1298
aVold
p1299
aVfriend
p1300
aVassociate
p1301
aVdr
p1302
aVwatson
p1303
aVhelping
p1304
aVus
p1305
aVaffair
p1306
aVstranger
p1307
aVheld
p1308
aVhuge
p1309
aVsunburned
p1310
aVhand
p1311
aVwords
p1312
aVapology
p1313
aVhope
p1314
aVnt
p1315
aVharm
p1316
aVaccused
p1317
aVhurting
p1318
aVlost
p1319
aVgrip
p1320
aVindeed
p1321
aVm
aVresponsible
p1322
aVdays
p1323
aVnerves
p1324
aVlike
p1325
aVlive
p1326
aVwires
p1327
aVsituation
p1328
aVbeyond
p1329
aVwant
p1330
aVknow
p1331
aVfirst
p1332
aVplace
p1333
aVmr
p1334
aVholmes
p1335
aVworld
p1336
aVcame
p1337
aVhear
p1338
aVexistence
p1339
aVtouch
p1340
aVmiss
p1341
aVdobney
p1342
aVlady
p1343
aVfrances
p1344
aVgoverness
p1345
aVold
p1346
aVsusan
p1347
aVdobney
p1348
aVmob
p1349
aVcap
p1350
aVremember
p1351
aVwell
p1352
aVremembers
p1353
aVdays
p1354
aVfound
p1355
aVbetter
p1356
aVgo
p1357
aVsouth
p1358
aVafrica
p1359
aVah
p1360
aVsee
p1361
aVknow
p1362
aVwhole
p1363
aVstory
p1364
aVneed
p1365
aVhide
p1366
aVnothing
p1367
aVswear
p1368
aVmr
p1369
aVholmes
p1370
aVnever
p1371
aVworld
p1372
aVman
p1373
aVloved
p1374
aVwoman
p1375
aVwholehearted
p1376
aVlove
p1377
aVfrances
p1378
aVwild
p1379
aVyoungster
p1380
aVknow
p1381
aVworse
p1382
aVothers
p1383
aVclass
p1384
aVmind
p1385
aVpure
p1386
aVsnow
p1387
aVcould
p1388
aVbear
p1389
aVshadow
p1390
aVcoarseness
p1391
aVcame
p1392
aVhear
p1393
aVthings
p1394
aVdone
p1395
aVwould
p1396
aVsay
p1397
aVyet
p1398
aVloved
p1399
aVwonder
p1400
aVloved
p1401
aVwell
p1402
aVenough
p1403
aVremain
p1404
aVsingle
p1405
aVsainted
p1406
aVdays
p1407
aVsake
p1408
aValone
p1409
aVyears
p1410
aVpassed
p1411
aVmade
p1412
aVmoney
p1413
aVbarberton
p1414
aVthought
p1415
aVperhaps
p1416
aVcould
p1417
aVseek
p1418
aVsoften
p1419
aVheard
p1420
aVstill
p1421
aVunmarried
p1422
aVfound
p1423
aVlausanne
p1424
aVtried
p1425
aVknew
p1426
aVweakened
p1427
aVthink
p1428
aVstrong
p1429
aVnext
p1430
aVcalled
p1431
aVleft
p1432
aVtown
p1433
aVtraced
p1434
aVbaden
p1435
aVtime
p1436
aVheard
p1437
aVmaid
p1438
aVm
aVrough
p1439
aVfellow
p1440
aVfresh
p1441
aVrough
p1442
aVlife
p1443
aVdr
p1444
aVwatson
p1445
aVspoke
p1446
aVlost
p1447
aVhold
p1448
aVmoment
p1449
aVgod
p1450
aVsake
p1451
aVtell
p1452
aVbecome
p1453
aVlady
p1454
aVfrances
p1455
aVus
p1456
aVfind
p1457
aVsaid
p1458
aVsherlock
p1459
aVholmes
p1460
aVpeculiar
p1461
aVgravity
p1462
aVlondon
p1463
aVaddress
p1464
aVmr
p1465
aVgreen
p1466
aVlangham
p1467
aVhotel
p1468
aVfind
p1469
aVmay
p1470
aVrecommend
p1471
aVreturn
p1472
aVhand
p1473
aVcase
p1474
aVwant
p1475
aVdesire
p1476
aVencourage
p1477
aVfalse
p1478
aVhopes
p1479
aVmay
p1480
aVrest
p1481
aVassured
p1482
aVdone
p1483
aVdone
p1484
aVsafety
p1485
aVlady
p1486
aVfrances
p1487
aVsay
p1488
aVinstant
p1489
aVleave
p1490
aVcard
p1491
aVmay
p1492
aVable
p1493
aVkeep
p1494
aVtouch
p1495
aVus
p1496
aVwatson
p1497
aVpack
p1498
aVbag
p1499
aVcable
p1500
aVmrs
p1501
aVhudson
p1502
aVmake
p1503
aVone
p1504
aVbest
p1505
aVefforts
p1506
aVtwo
p1507
aVhungry
p1508
aVtravellers
p1509
aVtomorrow
p1510
aVtelegram
p1511
aVawaiting
p1512
aVus
p1513
aVreached
p1514
aVbaker
p1515
aVstreet
p1516
aVrooms
p1517
aVholmes
p1518
aVread
p1519
aVexclamation
p1520
aVinterest
p1521
aVthrew
p1522
aVacross
p1523
aVjagged
p1524
aVtorn
p1525
aVmessage
p1526
aVplace
p1527
aVorigin
p1528
aVbaden
p1529
aVasked
p1530
aVeverything
p1531
aVholmes
p1532
aVanswered
p1533
aVmay
p1534
aVremember
p1535
aVseemingly
p1536
aVirrelevant
p1537
aVquestion
p1538
aVclerical
p1539
aVgentleman
p1540
aVleft
p1541
aVear
p1542
aVanswer
p1543
aVleft
p1544
aVbaden
p1545
aVcould
p1546
aVinquire
p1547
aVexactly
p1548
aVreason
p1549
aVsent
p1550
aVduplicate
p1551
aVmanager
p1552
aVenglischer
p1553
aVhof
p1554
aVwhose
p1555
aVanswer
p1556
aVlies
p1557
aVshow
p1558
aVshows
p1559
aVdear
p1560
aVwatson
p1561
aVdealing
p1562
aVexceptionally
p1563
aVastute
p1564
aVdangerous
p1565
aVman
p1566
aVrev
p1567
aVdr
p1568
aVshlessinger
p1569
aVmissionary
p1570
aVsouth
p1571
aVamerica
p1572
aVnone
p1573
aVholy
p1574
aVpeters
p1575
aVone
p1576
aVunscrupulous
p1577
aVrascals
p1578
aVaustralia
p1579
aVever
p1580
aVevolved
p1581
aVyoung
p1582
aVcountry
p1583
aVturned
p1584
aVfinished
p1585
aVtypes
p1586
aVparticular
p1587
aVspecialty
p1588
aVbeguiling
p1589
aVlonely
p1590
aVladies
p1591
aVplaying
p1592
aVupon
p1593
aVreligious
p1594
aVfeelings
p1595
aVsocalled
p1596
aVwife
p1597
aVenglishwoman
p1598
aVnamed
p1599
aVfraser
p1600
aVworthy
p1601
aVhelpmate
p1602
aVnature
p1603
aVtactics
p1604
aVsuggested
p1605
aVidentity
p1606
aVphysical
p1607
aVpeculiarity
p1608
aVbadly
p1609
aVbitten
p1610
aVsaloonfight
p1611
aVadelaide
p1612
aVconfirmed
p1613
aVsuspicion
p1614
aVpoor
p1615
aVlady
p1616
aVhands
p1617
aVinfernal
p1618
aVcouple
p1619
aVstick
p1620
aVnothing
p1621
aVwatson
p1622
aValready
p1623
aVdead
p1624
aVlikely
p1625
aVsupposition
p1626
aVundoubtedly
p1627
aVsort
p1628
aVconfinement
p1629
aVunable
p1630
aVwrite
p1631
aVmiss
p1632
aVdobney
p1633
aVfriends
p1634
aValways
p1635
aVpossible
p1636
aVnever
p1637
aVreached
p1638
aVlondon
p1639
aVpassed
p1640
aVformer
p1641
aVimprobable
p1642
aVsystem
p1643
aVregistration
p1644
aVeasy
p1645
aVforeigners
p1646
aVplay
p1647
aVtricks
p1648
aVcontinental
p1649
aVpolice
p1650
aVlatter
p1651
aValso
p1652
aVunlikely
p1653
aVrouges
p1654
aVcould
p1655
aVhope
p1656
aVfind
p1657
aVplace
p1658
aVwould
p1659
aVeasy
p1660
aVkeep
p1661
aVperson
p1662
aVrestraint
p1663
aVinstincts
p1664
aVtell
p1665
aVlondon
p1666
aVpresent
p1667
aVpossible
p1668
aVmeans
p1669
aVtelling
p1670
aVtake
p1671
aVobvious
p1672
aVsteps
p1673
aVeat
p1674
aVdinner
p1675
aVpossess
p1676
aVsouls
p1677
aVpatience
p1678
aVlater
p1679
aVevening
p1680
aVstroll
p1681
aVword
p1682
aVfriend
p1683
aVlestrade
p1684
aVscotland
p1685
aVyard
p1686
aVneither
p1687
aVofficial
p1688
aVpolice
p1689
aVholmes
p1690
aVsmall
p1691
aVefficient
p1692
aVorganization
p1693
aVsufficed
p1694
aVclear
p1695
aVaway
p1696
aVmystery
p1697
aVamid
p1698
aVcrowded
p1699
aVmillions
p1700
aVlondon
p1701
aVthree
p1702
aVpersons
p1703
aVsought
p1704
aVcompletely
p1705
aVobliterated
p1706
aVnever
p1707
aVlived
p1708
aVadvertisements
p1709
aVtried
p1710
aVfailed
p1711
aVclues
p1712
aVfollowed
p1713
aVled
p1714
aVnothing
p1715
aVevery
p1716
aVcriminal
p1717
aVresort
p1718
aVshlessinger
p1719
aVmight
p1720
aVfrequent
p1721
aVdrawn
p1722
aVvain
p1723
aVold
p1724
aVassociates
p1725
aVwatched
p1726
aVkept
p1727
aVclear
p1728
aVsuddenly
p1729
aVweek
p1730
aVhelpless
p1731
aVsuspense
p1732
aVcame
p1733
aVflash
p1734
aVlight
p1735
aVsilverandbrilliant
p1736
aVpendant
p1737
aVold
p1738
aVspanish
p1739
aVdesign
p1740
aVpawned
p1741
aVbovington
p1742
aVwestminster
p1743
aVroad
p1744
aVpawner
p1745
aVlarge
p1746
aVcleanshaven
p1747
aVman
p1748
aVclerical
p1749
aVappearance
p1750
aVname
p1751
aVaddress
p1752
aVdemonstrably
p1753
aVfalse
p1754
aVear
p1755
aVescaped
p1756
aVnotice
p1757
aVdescription
p1758
aVsurely
p1759
aVshlessinger
p1760
aVthree
p1761
aVtimes
p1762
aVbearded
p1763
aVfriend
p1764
aVlangham
p1765
aVcalled
p1766
aVnews
p1767
aVthird
p1768
aVtime
p1769
aVwithin
p1770
aVhour
p1771
aVfresh
p1772
aVdevelopment
p1773
aVclothes
p1774
aVgetting
p1775
aVlooser
p1776
aVgreat
p1777
aVbody
p1778
aVseemed
p1779
aVwilting
p1780
aVaway
p1781
aVanxiety
p1782
aVgive
p1783
aVsomething
p1784
aVconstant
p1785
aVwail
p1786
aVlast
p1787
aVholmes
p1788
aVcould
p1789
aVoblige
p1790
aVbegun
p1791
aVpawn
p1792
aVjewels
p1793
aVget
p1794
aVmean
p1795
aVharm
p1796
aVbefallen
p1797
aVlady
p1798
aVfrances
p1799
aVholmes
p1800
aVshook
p1801
aVhead
p1802
aVgravely
p1803
aVsupposing
p1804
aVheld
p1805
aVprisoner
p1806
aVclear
p1807
aVlet
p1808
aVloose
p1809
aVwithout
p1810
aVdestruction
p1811
aVmust
p1812
aVprepare
p1813
aVworst
p1814
aVpeople
p1815
aVknow
p1816
aVsight
p1817
aVpossible
p1818
aVgo
p1819
aVpawnbroker
p1820
aVfuture
p1821
aVcase
p1822
aVmust
p1823
aVbegin
p1824
aVhand
p1825
aVfair
p1826
aVprice
p1827
aVquestions
p1828
aVasked
p1829
aVneed
p1830
aVreadymoney
p1831
aVprobably
p1832
aVcome
p1833
aVback
p1834
aVbovington
p1835
aVgive
p1836
aVnote
p1837
aVlet
p1838
aVwait
p1839
aVshop
p1840
aVfellow
p1841
aVcomes
p1842
aVfollow
p1843
aVhome
p1844
aVindiscretion
p1845
aVviolence
p1846
aVput
p1847
aVhonour
p1848
aVtake
p1849
aVstep
p1850
aVwithout
p1851
aVknowledge
p1852
aVconsent
p1853
aVtwo
p1854
aVdays
p1855
aVhon
p1856
aVphilip
p1857
aVgreen
p1858
aVmay
p1859
aVmention
p1860
aVson
p1861
aVfamous
p1862
aVadmiral
p1863
aVname
p1864
aVcommanded
p1865
aVsea
p1866
aVazof
p1867
aVfleet
p1868
aVcrimean
p1869
aVwar
p1870
aVbrought
p1871
aVus
p1872
aVnews
p1873
aVevening
p1874
aVthird
p1875
aVrushed
p1876
aVsittingroom
p1877
aVpale
p1878
aVtrembling
p1879
aVevery
p1880
aVmuscle
p1881
aVpowerful
p1882
aVframe
p1883
aVquivering
p1884
aVexcitement
p1885
aVcried
p1886
aVincoherent
p1887
aVagitation
p1888
aVholmes
p1889
aVsoothed
p1890
aVwords
p1891
aVthrust
p1892
aVarmchair
p1893
aVcome
p1894
aVgive
p1895
aVus
p1896
aVorder
p1897
aVevents
p1898
aVsaid
p1899
aVcame
p1900
aVhour
p1901
aVago
p1902
aVwife
p1903
aVtime
p1904
aVpendant
p1905
aVbrought
p1906
aVfellow
p1907
aVtall
p1908
aVpale
p1909
aVwoman
p1910
aVferret
p1911
aVeyes
p1912
aVlady
p1913
aVsaid
p1914
aVholmes
p1915
aVleft
p1916
aVoffice
p1917
aVfollowed
p1918
aVwalked
p1919
aVkennington
p1920
aVroad
p1921
aVkept
p1922
aVbehind
p1923
aVpresently
p1924
aVwent
p1925
aVshop
p1926
aVmr
p1927
aVholmes
p1928
aVundertaker
p1929
aVcompanion
p1930
aVstarted
p1931
aVwell
p1932
aVasked
p1933
aVvibrant
p1934
aVvoice
p1935
aVtold
p1936
aVfiery
p1937
aVsoul
p1938
aVbehind
p1939
aVcold
p1940
aVgray
p1941
aVface
p1942
aVtalking
p1943
aVwoman
p1944
aVbehind
p1945
aVcounter
p1946
aVentered
p1947
aVwell
p1948
aVlate
p1949
aVheard
p1950
aVsay
p1951
aVwords
p1952
aVeffect
p1953
aVwoman
p1954
aVexcusing
p1955
aVanswered
p1956
aVtook
p1957
aVlonger
p1958
aVordinary
p1959
aVstopped
p1960
aVlooked
p1961
aVasked
p1962
aVquestions
p1963
aVleft
p1964
aVshop
p1965
aVexcellently
p1966
aVwell
p1967
aVhappened
p1968
aVnext
p1969
aVwoman
p1970
aVcame
p1971
aVhid
p1972
aVdoorway
p1973
aVsuspicions
p1974
aVaroused
p1975
aVthink
p1976
aVlooked
p1977
aVround
p1978
aVcalled
p1979
aVcab
p1980
aVgot
p1981
aVlucky
p1982
aVenough
p1983
aVget
p1984
aVanother
p1985
aVfollow
p1986
aVgot
p1987
aVlast
p1988
aVpoultney
p1989
aVsquare
p1990
aVbrixton
p1991
aVdrove
p1992
aVpast
p1993
aVleft
p1994
aVcab
p1995
aVcorner
p1996
aVsquare
p1997
aVwatched
p1998
aVhouse
p1999
aVsee
p2000
aVanyone
p2001
aVwindows
p2002
aVdarkness
p2003
aVsave
p2004
aVone
p2005
aVlower
p2006
aVfloor
p2007
aVblind
p2008
aVcould
p2009
aVsee
p2010
aVstanding
p2011
aVwondering
p2012
aVnext
p2013
aVcovered
p2014
aVvan
p2015
aVdrove
p2016
aVtwo
p2017
aVmen
p2018
aVdescended
p2019
aVtook
p2020
aVsomething
p2021
aVvan
p2022
aVcarried
p2023
aVsteps
p2024
aVhall
p2025
aVdoor
p2026
aVmr
p2027
aVholmes
p2028
aVcoffin
p2029
aVah
p2030
aVinstant
p2031
aVpoint
p2032
aVrushing
p2033
aVdoor
p2034
aVopened
p2035
aVadmit
p2036
aVmen
p2037
aVburden
p2038
aVwoman
p2039
aVopened
p2040
aVstood
p2041
aVcaught
p2042
aVglimpse
p2043
aVthink
p2044
aVrecognized
p2045
aVsaw
p2046
aVstart
p2047
aVhastily
p2048
aVclosed
p2049
aVdoor
p2050
aVremembered
p2051
aVpromise
p2052
aVdone
p2053
aVexcellent
p2054
aVwork
p2055
aVsaid
p2056
aVholmes
p2057
aVscribbling
p2058
aVwords
p2059
aVupon
p2060
aVhalfsheet
p2061
aVpaper
p2062
aVnothing
p2063
aVlegal
p2064
aVwithout
p2065
aVwarrant
p2066
aVserve
p2067
aVcause
p2068
aVbest
p2069
aVtaking
p2070
aVnote
p2071
aVauthorities
p2072
aVgetting
p2073
aVone
p2074
aVmay
p2075
aVdifficulty
p2076
aVthink
p2077
aVsale
p2078
aVjewellery
p2079
aVsufficient
p2080
aVlestrade
p2081
aVsee
p2082
aVdetails
p2083
aVmay
p2084
aVmurder
p2085
aVmeanwhile
p2086
aVcould
p2087
aVcoffin
p2088
aVmean
p2089
aVcould
p2090
aVdone
p2091
aVmr
p2092
aVgreen
p2093
aVmoment
p2094
aVlost
p2095
aVleave
p2096
aVhands
p2097
aVwatson
p2098
aVadded
p2099
aVclient
p2100
aVhurried
p2101
aVaway
p2102
aVset
p2103
aVregular
p2104
aVforces
p2105
aVmove
p2106
aVusual
p2107
aVirregulars
p2108
aVmust
p2109
aVtake
p2110
aVline
p2111
aVaction
p2112
aVsituation
p2113
aVstrikes
p2114
aVdesperate
p2115
aVextreme
p2116
aVmeasures
p2117
aVjustified
p2118
aVmoment
p2119
aVlost
p2120
aVgetting
p2121
aVpoultney
p2122
aVsquare
p2123
aVlet
p2124
aVus
p2125
aVtry
p2126
aVreconstruct
p2127
aVsituation
p2128
aVsaid
p2129
aVdrove
p2130
aVswiftly
p2131
aVpast
p2132
aVhouses
p2133
aVparliament
p2134
aVwestminster
p2135
aVbridge
p2136
aVvillains
p2137
aVcoaxed
p2138
aVunhappy
p2139
aVlady
p2140
aVlondon
p2141
aVfirst
p2142
aValienating
p2143
aVfaithful
p2144
aVmaid
p2145
aVwritten
p2146
aVletters
p2147
aVintercepted
p2148
aVconfederate
p2149
aVengaged
p2150
aVfurnished
p2151
aVhouse
p2152
aVinside
p2153
aVmade
p2154
aVprisoner
p2155
aVbecome
p2156
aVpossessed
p2157
aVvaluable
p2158
aVjewellery
p2159
aVobject
p2160
aVfirst
p2161
aValready
p2162
aVbegun
p2163
aVsell
p2164
aVpart
p2165
aVseems
p2166
aVsafe
p2167
aVenough
p2168
aVsince
p2169
aVreason
p2170
aVthink
p2171
aVanyone
p2172
aVinterested
p2173
aVlady
p2174
aVfate
p2175
aVreleased
p2176
aVcourse
p2177
aVdenounce
p2178
aVtherefore
p2179
aVmust
p2180
aVreleased
p2181
aVkeep
p2182
aVlock
p2183
aVkey
p2184
aVforever
p2185
aVmurder
p2186
aVsolution
p2187
aVseems
p2188
aVclear
p2189
aVtake
p2190
aVanother
p2191
aVline
p2192
aVreasoning
p2193
aVfollow
p2194
aVtwo
p2195
aVseparate
p2196
aVchains
p2197
aVthought
p2198
aVwatson
p2199
aVfind
p2200
aVpoint
p2201
aVintersection
p2202
aVapproximate
p2203
aVtruth
p2204
aVstart
p2205
aVlady
p2206
aVcoffin
p2207
aVargue
p2208
aVbackward
p2209
aVincident
p2210
aVproves
p2211
aVfear
p2212
aVbeyond
p2213
aVdoubt
p2214
aVlady
p2215
aVdead
p2216
aVpoints
p2217
aValso
p2218
aVorthodox
p2219
aVburial
p2220
aVproper
p2221
aVaccompaniment
p2222
aVmedical
p2223
aVcertificate
p2224
aVofficial
p2225
aVsanction
p2226
aVlady
p2227
aVobviously
p2228
aVmurdered
p2229
aVwould
p2230
aVburied
p2231
aVhole
p2232
aVback
p2233
aVgarden
p2234
aVopen
p2235
aVregular
p2236
aVmean
p2237
aVsurely
p2238
aVdone
p2239
aVdeath
p2240
aVway
p2241
aVdeceived
p2242
aVdoctor
p2243
aVsimulated
p2244
aVnatural
p2245
aVend
p2246
aVpoisoning
p2247
aVperhaps
p2248
aVyet
p2249
aVstrange
p2250
aVever
p2251
aVlet
p2252
aVdoctor
p2253
aVapproach
p2254
aVunless
p2255
aVconfederate
p2256
aVhardly
p2257
aVcredible
p2258
aVproposition
p2259
aVcould
p2260
aVforged
p2261
aVmedical
p2262
aVcertificate
p2263
aVdangerous
p2264
aVwatson
p2265
aVdangerous
p2266
aVhardly
p2267
aVsee
p2268
aVpull
p2269
aVcabby
p2270
aVevidently
p2271
aVundertaker
p2272
aVpassed
p2273
aVpawnbroker
p2274
aVwould
p2275
aVgo
p2276
aVwatson
p2277
aVappearance
p2278
aVinspires
p2279
aVconfidence
p2280
aVask
p2281
aVhour
p2282
aVpoultney
p2283
aVsquare
p2284
aVfuneral
p2285
aVtakes
p2286
aVplace
p2287
aVtomorrow
p2288
aVwoman
p2289
aVshop
p2290
aVanswered
p2291
aVwithout
p2292
aVhesitation
p2293
aVeight
p2294
aVoclock
p2295
aVmorning
p2296
aVsee
p2297
aVwatson
p2298
aVmystery
p2299
aVeverything
p2300
aVaboveboard
p2301
aVway
p2302
aVlegal
p2303
aVforms
p2304
aVundoubtedly
p2305
aVcomplied
p2306
aVthink
p2307
aVlittle
p2308
aVfear
p2309
aVwell
p2310
aVnothing
p2311
aVdirect
p2312
aVfrontal
p2313
aVattack
p2314
aVarmed
p2315
aVstick
p2316
aVwell
p2317
aVwell
p2318
aVshall
p2319
aVstrong
p2320
aVenough
p2321
aVthrice
p2322
aVarmed
p2323
aVhath
p2324
aVquarrel
p2325
aVsimply
p2326
aVca
p2327
aVnt
p2328
aVafford
p2329
aVwait
p2330
aVpolice
p2331
aVkeep
p2332
aVwithin
p2333
aVfour
p2334
aVcorners
p2335
aVlaw
p2336
aVdrive
p2337
aVcabby
p2338
aVwatson
p2339
aVll
p2340
aVtake
p2341
aVluck
p2342
aVtogether
p2343
aVoccasionally
p2344
aVpast
p2345
aVrung
p2346
aVloudly
p2347
aVdoor
p2348
aVgreat
p2349
aVdark
p2350
aVhouse
p2351
aVcentre
p2352
aVpoultney
p2353
aVsquare
p2354
aVopened
p2355
aVimmediately
p2356
aVfigure
p2357
aVtall
p2358
aVwoman
p2359
aVoutlined
p2360
aVdimlit
p2361
aVhall
p2362
aVwell
p2363
aVwant
p2364
aVasked
p2365
aVsharply
p2366
aVpeering
p2367
aVus
p2368
aVdarkness
p2369
aVwant
p2370
aVspeak
p2371
aVdr
p2372
aVshlessinger
p2373
aVsaid
p2374
aVholmes
p2375
aVperson
p2376
aVanswered
p2377
aVtried
p2378
aVclose
p2379
aVdoor
p2380
aVholmes
p2381
aVjammed
p2382
aVfoot
p2383
aVwell
p2384
aVwant
p2385
aVsee
p2386
aVman
p2387
aVlives
p2388
aVwhatever
p2389
aVmay
p2390
aVcall
p2391
aVsaid
p2392
aVholmes
p2393
aVfirmly
p2394
aVhesitated
p2395
aVthrew
p2396
aVopen
p2397
aVdoor
p2398
aVwell
p2399
aVcome
p2400
aVsaid
p2401
aVhusband
p2402
aVafraid
p2403
aVface
p2404
aVman
p2405
aVworld
p2406
aVclosed
p2407
aVdoor
p2408
aVbehind
p2409
aVus
p2410
aVshowed
p2411
aVus
p2412
aVsittingroom
p2413
aVright
p2414
aVside
p2415
aVhall
p2416
aVturning
p2417
aVgas
p2418
aVleft
p2419
aVus
p2420
aVmr
p2421
aVpeters
p2422
aVinstant
p2423
aVsaid
p2424
aVwords
p2425
aVliterally
p2426
aVtrue
p2427
aVhardly
p2428
aVtime
p2429
aVlook
p2430
aVaround
p2431
aVdusty
p2432
aVmotheaten
p2433
aVapartment
p2434
aVfound
p2435
aVdoor
p2436
aVopened
p2437
aVbig
p2438
aVcleanshaven
p2439
aVbaldheaded
p2440
aVman
p2441
aVstepped
p2442
aVlightly
p2443
aVroom
p2444
aVlarge
p2445
aVred
p2446
aVface
p2447
aVpendulous
p2448
aVcheeks
p2449
aVgeneral
p2450
aVair
p2451
aVsuperficial
p2452
aVbenevolence
p2453
aVmarred
p2454
aVcruel
p2455
aVvicious
p2456
aVmouth
p2457
aVsurely
p2458
aVmistake
p2459
aVgentlemen
p2460
aVsaid
p2461
aVunctuous
p2462
aVmakeeverythingeasy
p2463
aVvoice
p2464
aVfancy
p2465
aVmisdirected
p2466
aVpossibly
p2467
aVtried
p2468
aVfarther
p2469
aVstreet
p2470
aVtime
p2471
aVwaste
p2472
aVsaid
p2473
aVcompanion
p2474
aVfirmly
p2475
aVhenry
p2476
aVpeters
p2477
aVadelaide
p2478
aVlate
p2479
aVrev
p2480
aVdr
p2481
aVshlessinger
p2482
aVbaden
p2483
aVsouth
p2484
aVamerica
p2485
aVsure
p2486
aVname
p2487
aVsherlock
p2488
aVholmes
p2489
aVpeters
p2490
aVcall
p2491
aVstarted
p2492
aVstared
p2493
aVhard
p2494
aVformidable
p2495
aVpursuer
p2496
aVguess
p2497
aVname
p2498
aVfrighten
p2499
aVmr
p2500
aVholmes
p2501
aVsaid
p2502
aVcoolly
p2503
aVman
p2504
aVconscience
p2505
aVeasy
p2506
aVca
p2507
aVnt
p2508
aVrattle
p2509
aVbusiness
p2510
aVhouse
p2511
aVwant
p2512
aVknow
p2513
aVdone
p2514
aVlady
p2515
aVfrances
p2516
aVcarfax
p2517
aVbrought
p2518
aVaway
p2519
aVbaden
p2520
aVd
aVglad
p2521
aVcould
p2522
aVtell
p2523
aVlady
p2524
aVmay
p2525
aVpeters
p2526
aVanswered
p2527
aVcoolly
p2528
aVve
p2529
aVbill
p2530
aVnearly
p2531
aVhundred
p2532
aVpounds
p2533
aVnothing
p2534
aVshow
p2535
aVcouple
p2536
aVtrumpery
p2537
aVpendants
p2538
aVdealer
p2539
aVwould
p2540
aVhardly
p2541
aVlook
p2542
aVattached
p2543
aVmrs
p2544
aVpeters
p2545
aVbaden
p2546
aVfact
p2547
aVusing
p2548
aVanother
p2549
aVname
p2550
aVtime
p2551
aVstuck
p2552
aVus
p2553
aVcame
p2554
aVlondon
p2555
aVpaid
p2556
aVbill
p2557
aVticket
p2558
aVlondon
p2559
aVgave
p2560
aVus
p2561
aVslip
p2562
aVsay
p2563
aVleft
p2564
aVoutofdate
p2565
aVjewels
p2566
aVpay
p2567
aVbills
p2568
aVfind
p2569
aVmr
p2570
aVholmes
p2571
aVm
aVdebtor
p2572
aVmean
p2573
aVfind
p2574
aVsaid
p2575
aVsherlock
p2576
aVholmes
p2577
aVm
aVgoing
p2578
aVhouse
p2579
aVtill
p2580
aVfind
p2581
aVwarrant
p2582
aVholmes
p2583
aVhalf
p2584
aVdrew
p2585
aVrevolver
p2586
aVpocket
p2587
aVserve
p2588
aVtill
p2589
aVbetter
p2590
aVone
p2591
aVcomes
p2592
aVre
p2593
aVcommon
p2594
aVburglar
p2595
aVmight
p2596
aVdescribe
p2597
aVsaid
p2598
aVholmes
p2599
aVcheerfully
p2600
aVcompanion
p2601
aValso
p2602
aVdangerous
p2603
aVruffian
p2604
aVtogether
p2605
aVgoing
p2606
aVhouse
p2607
aVopponent
p2608
aVopened
p2609
aVdoor
p2610
aVfetch
p2611
aVpoliceman
p2612
aVannie
p2613
aVsaid
p2614
aVwhisk
p2615
aVfeminine
p2616
aVskirts
p2617
aVpassage
p2618
aVhall
p2619
aVdoor
p2620
aVopened
p2621
aVshut
p2622
aVtime
p2623
aVlimited
p2624
aVwatson
p2625
aVsaid
p2626
aVholmes
p2627
aVtry
p2628
aVstop
p2629
aVus
p2630
aVpeters
p2631
aVcertainly
p2632
aVget
p2633
aVhurt
p2634
aVcoffin
p2635
aVbrought
p2636
aVhouse
p2637
aVwant
p2638
aVcoffin
p2639
aVuse
p2640
aVbody
p2641
aVmust
p2642
aVsee
p2643
aVbody
p2644
aVnever
p2645
aVconsent
p2646
aVwithout
p2647
aVquick
p2648
aVmovement
p2649
aVholmes
p2650
aVpushed
p2651
aVfellow
p2652
aVone
p2653
aVside
p2654
aVpassed
p2655
aVhall
p2656
aVdoor
p2657
aVhalf
p2658
aVopened
p2659
aVstood
p2660
aVimmediately
p2661
aVus
p2662
aVentered
p2663
aVdiningroom
p2664
aVtable
p2665
aVhalflit
p2666
aVchandelier
p2667
aVcoffin
p2668
aVlying
p2669
aVholmes
p2670
aVturned
p2671
aVgas
p2672
aVraised
p2673
aVlid
p2674
aVdeep
p2675
aVrecesses
p2676
aVcoffin
p2677
aVlay
p2678
aVemaciated
p2679
aVfigure
p2680
aVglare
p2681
aVlights
p2682
aVbeat
p2683
aVupon
p2684
aVaged
p2685
aVwithered
p2686
aVface
p2687
aVpossible
p2688
aVprocess
p2689
aVcruelty
p2690
aVstarvation
p2691
aVdisease
p2692
aVcould
p2693
aVwornout
p2694
aVwreck
p2695
aVstill
p2696
aVbeautiful
p2697
aVlady
p2698
aVfrances
p2699
aVholmes
p2700
aVface
p2701
aVshowed
p2702
aVamazement
p2703
aValso
p2704
aVrelief
p2705
aVthank
p2706
aVgod
p2707
aVmuttered
p2708
aVsomeone
p2709
aVelse
p2710
aVah
p2711
aVve
p2712
aVblundered
p2713
aVbadly
p2714
aVmr
p2715
aVsherlock
p2716
aVholmes
p2717
aVsaid
p2718
aVpeters
p2719
aVfollowed
p2720
aVus
p2721
aVroom
p2722
aVdead
p2723
aVwoman
p2724
aVwell
p2725
aVreally
p2726
aVmust
p2727
aVknow
p2728
aVold
p2729
aVnurse
p2730
aVwife
p2731
aVrose
p2732
aVspender
p2733
aVname
p2734
aVfound
p2735
aVbrixton
p2736
aVworkhouse
p2737
aVinfirmary
p2738
aVbrought
p2739
aVround
p2740
aVcalled
p2741
aVdr
p2742
aVhorsom
p2743
aVfirbank
p2744
aVvillas
p2745
aVmind
p2746
aVtake
p2747
aVaddress
p2748
aVmr
p2749
aVholmes
p2750
aVcarefully
p2751
aVtended
p2752
aVchristian
p2753
aVfolk
p2754
aVthird
p2755
aVday
p2756
aVdied
p2757
aVcertificate
p2758
aVsays
p2759
aVsenile
p2760
aVdecay
p2761
aVdoctor
p2762
aVopinion
p2763
aVcourse
p2764
aVknow
p2765
aVbetter
p2766
aVordered
p2767
aVfuneral
p2768
aVcarried
p2769
aVstimson
p2770
aVco
p2771
aVkennington
p2772
aVroad
p2773
aVbury
p2774
aVeight
p2775
aVoclock
p2776
aVtomorrow
p2777
aVmorning
p2778
aVpick
p2779
aVhole
p2780
aVmr
p2781
aVholmes
p2782
aVve
p2783
aVmade
p2784
aVsilly
p2785
aVblunder
p2786
aVmay
p2787
aVwell
p2788
aVd
aVgive
p2789
aVsomething
p2790
aVphotograph
p2791
aVgaping
p2792
aVstaring
p2793
aVface
p2794
aVpulled
p2795
aVaside
p2796
aVlid
p2797
aVexpecting
p2798
aVsee
p2799
aVlady
p2800
aVfrances
p2801
aVcarfax
p2802
aVfound
p2803
aVpoor
p2804
aVold
p2805
aVwoman
p2806
aVninety
p2807
aVholmes
p2808
aVexpression
p2809
aVimpassive
p2810
aVever
p2811
aVjeers
p2812
aVantagonist
p2813
aVclenched
p2814
aVhands
p2815
aVbetrayed
p2816
aVacute
p2817
aVannoyance
p2818
aVgoing
p2819
aVhouse
p2820
aVsaid
p2821
aVthough
p2822
aVcried
p2823
aVpeters
p2824
aVwoman
p2825
aVvoice
p2826
aVheavy
p2827
aVsteps
p2828
aVsounded
p2829
aVpassage
p2830
aVll
p2831
aVsoon
p2832
aVsee
p2833
aVway
p2834
aVofficers
p2835
aVplease
p2836
aVmen
p2837
aVforced
p2838
aVway
p2839
aVhouse
p2840
aVget
p2841
aVrid
p2842
aVhelp
p2843
aVput
p2844
aVsergeant
p2845
aVconstable
p2846
aVstood
p2847
aVdoorway
p2848
aVholmes
p2849
aVdrew
p2850
aVcard
p2851
aVcase
p2852
aVname
p2853
aVaddress
p2854
aVfriend
p2855
aVdr
p2856
aVwatson
p2857
aVbless
p2858
aVsir
p2859
aVknow
p2860
aVwell
p2861
aVsaid
p2862
aVsergeant
p2863
aVca
p2864
aVnt
p2865
aVstay
p2866
aVwithout
p2867
aVwarrant
p2868
aVcourse
p2869
aVquite
p2870
aVunderstand
p2871
aVarrest
p2872
aVcried
p2873
aVpeters
p2874
aVknow
p2875
aVlay
p2876
aVhands
p2877
aVgentleman
p2878
aVwanted
p2879
aVsaid
p2880
aVsergeant
p2881
aVmajestically
p2882
aVll
p2883
aVgo
p2884
aVmr
p2885
aVholmes
p2886
aVyes
p2887
aVwatson
p2888
aVshall
p2889
aVgo
p2890
aVminute
p2891
aVlater
p2892
aVstreet
p2893
aVholmes
p2894
aVcool
p2895
aVever
p2896
aVhot
p2897
aVanger
p2898
aVhumiliation
p2899
aVsergeant
p2900
aVfollowed
p2901
aVus
p2902
aVsorry
p2903
aVmr
p2904
aVholmes
p2905
aVlaw
p2906
aVexactly
p2907
aVsergeant
p2908
aVcould
p2909
aVotherwise
p2910
aVexpect
p2911
aVgood
p2912
aVreason
p2913
aVpresence
p2914
aVanything
p2915
aVmissing
p2916
aVlady
p2917
aVsergeant
p2918
aVthink
p2919
aVhouse
p2920
aVexpect
p2921
aVwarrant
p2922
aVpresently
p2923
aVll
p2924
aVkeep
p2925
aVeye
p2926
aVparties
p2927
aVmr
p2928
aVholmes
p2929
aVanything
p2930
aVcomes
p2931
aValong
p2932
aVsurely
p2933
aVlet
p2934
aVknow
p2935
aVnine
p2936
aVoclock
p2937
aVfull
p2938
aVcry
p2939
aVupon
p2940
aVtrail
p2941
aVfirst
p2942
aVdrove
p2943
aVbrixton
p2944
aVworkhouse
p2945
aVinfirmary
p2946
aVfound
p2947
aVindeed
p2948
aVtruth
p2949
aVcharitable
p2950
aVcouple
p2951
aVcalled
p2952
aVdays
p2953
aVclaimed
p2954
aVimbecile
p2955
aVold
p2956
aVwoman
p2957
aVformer
p2958
aVservant
p2959
aVobtained
p2960
aVpermission
p2961
aVtake
p2962
aVaway
p2963
aVsurprise
p2964
aVexpressed
p2965
aVnews
p2966
aVsince
p2967
aVdied
p2968
aVdoctor
p2969
aVnext
p2970
aVgoal
p2971
aVcalled
p2972
aVfound
p2973
aVwoman
p2974
aVdying
p2975
aVpure
p2976
aVsenility
p2977
aVactually
p2978
aVseen
p2979
aVpass
p2980
aVaway
p2981
aVsigned
p2982
aVcertificate
p2983
aVdue
p2984
aVform
p2985
aVassure
p2986
aVeverything
p2987
aVperfectly
p2988
aVnormal
p2989
aVroom
p2990
aVfoul
p2991
aVplay
p2992
aVmatter
p2993
aVsaid
p2994
aVnothing
p2995
aVhouse
p2996
aVstruck
p2997
aVsuspicious
p2998
aVsave
p2999
aVpeople
p3000
aVclass
p3001
aVremarkable
p3002
aVservant
p3003
aVfar
p3004
aVwent
p3005
aVdoctor
p3006
aVfinally
p3007
aVfound
p3008
aVway
p3009
aVscotland
p3010
aVyard
p3011
aVdifficulties
p3012
aVprocedure
p3013
aVregard
p3014
aVwarrant
p3015
aVdelay
p3016
aVinevitable
p3017
aVmagistrate
p3018
aVsignature
p3019
aVmight
p3020
aVobtained
p3021
aVnext
p3022
aVmorning
p3023
aVholmes
p3024
aVwould
p3025
aVcall
p3026
aVnine
p3027
aVcould
p3028
aVgo
p3029
aVlestrade
p3030
aVsee
p3031
aVacted
p3032
aVupon
p3033
aVended
p3034
aVday
p3035
aVsave
p3036
aVnear
p3037
aVmidnight
p3038
aVfriend
p3039
aVsergeant
p3040
aVcalled
p3041
aVsay
p3042
aVseen
p3043
aVflickering
p3044
aVlights
p3045
aVwindows
p3046
aVgreat
p3047
aVdark
p3048
aVhouse
p3049
aVone
p3050
aVleft
p3051
aVnone
p3052
aVentered
p3053
aVcould
p3054
aVpray
p3055
aVpatience
p3056
aVwait
p3057
aVmorrow
p3058
aVsherlock
p3059
aVholmes
p3060
aVirritable
p3061
aVconversation
p3062
aVrestless
p3063
aVsleep
p3064
aVleft
p3065
aVsmoking
p3066
aVhard
p3067
aVheavy
p3068
aVdark
p3069
aVbrows
p3070
aVknotted
p3071
aVtogether
p3072
aVlong
p3073
aVnervous
p3074
aVfingers
p3075
aVtapping
p3076
aVupon
p3077
aVarms
p3078
aVchair
p3079
aVturned
p3080
aVmind
p3081
aVevery
p3082
aVpossible
p3083
aVsolution
p3084
aVmystery
p3085
aVseveral
p3086
aVtimes
p3087
aVcourse
p3088
aVnight
p3089
aVheard
p3090
aVprowling
p3091
aVhouse
p3092
aVfinally
p3093
aVcalled
p3094
aVmorning
p3095
aVrushed
p3096
aVroom
p3097
aVdressinggown
p3098
aVpale
p3099
aVholloweyed
p3100
aVface
p3101
aVtold
p3102
aVnight
p3103
aVsleepless
p3104
aVone
p3105
aVtime
p3106
aVfuneral
p3107
aVeight
p3108
aVasked
p3109
aVeagerly
p3110
aVwell
p3111
aVgood
p3112
aVheavens
p3113
aVwatson
p3114
aVbecome
p3115
aVbrains
p3116
aVgod
p3117
aVgiven
p3118
aVquick
p3119
aVman
p3120
aVquick
p3121
aVlife
p3122
aVdeath
p3123
aVhundred
p3124
aVchances
p3125
aVdeath
p3126
aVone
p3127
aVlife
p3128
aVll
p3129
aVnever
p3130
aVforgive
p3131
aVnever
p3132
aVlate
p3133
aVfive
p3134
aVminutes
p3135
aVpassed
p3136
aVflying
p3137
aVhansom
p3138
aVbaker
p3139
aVstreet
p3140
aVeven
p3141
aVtwentyfive
p3142
aVeight
p3143
aVpassed
p3144
aVbig
p3145
aVben
p3146
aVeight
p3147
aVstruck
p3148
aVtore
p3149
aVbrixton
p3150
aVroad
p3151
aVothers
p3152
aVlate
p3153
aVwell
p3154
aVten
p3155
aVminutes
p3156
aVhour
p3157
aVhearse
p3158
aVstill
p3159
aVstanding
p3160
aVdoor
p3161
aVhouse
p3162
aVeven
p3163
aVfoaming
p3164
aVhorse
p3165
aVcame
p3166
aVhalt
p3167
aVcoffin
p3168
aVsupported
p3169
aVthree
p3170
aVmen
p3171
aVappeared
p3172
aVthreshold
p3173
aVholmes
p3174
aVdarted
p3175
aVforward
p3176
aVbarred
p3177
aVway
p3178
aVtake
p3179
aVback
p3180
aVcried
p3181
aVlaying
p3182
aVhand
p3183
aVbreast
p3184
aVforemost
p3185
aVtake
p3186
aVback
p3187
aVinstant
p3188
aVdevil
p3189
aVmean
p3190
aVask
p3191
aVwarrant
p3192
aVshouted
p3193
aVfurious
p3194
aVpeters
p3195
aVbig
p3196
aVred
p3197
aVface
p3198
aVglaring
p3199
aVfarther
p3200
aVend
p3201
aVcoffin
p3202
aVwarrant
p3203
aVway
p3204
aVcoffin
p3205
aVshall
p3206
aVremain
p3207
aVhouse
p3208
aVcomes
p3209
aVauthority
p3210
aVholmes
p3211
aVvoice
p3212
aVeffect
p3213
aVupon
p3214
aVbearers
p3215
aVpeters
p3216
aVsuddenly
p3217
aVvanished
p3218
aVhouse
p3219
aVobeyed
p3220
aVnew
p3221
aVorders
p3222
aVquick
p3223
aVwatson
p3224
aVquick
p3225
aVscrewdriver
p3226
aVshouted
p3227
aVcoffin
p3228
aVreplaced
p3229
aVupon
p3230
aVtable
p3231
aVone
p3232
aVman
p3233
aVsovereign
p3234
aVlid
p3235
aVcomes
p3236
aVminute
p3237
aVask
p3238
aVquestions
p3239
aVwork
p3240
aVaway
p3241
aVgood
p3242
aVanother
p3243
aVanother
p3244
aVpull
p3245
aVtogether
p3246
aVgiving
p3247
aVgiving
p3248
aVah
p3249
aVlast
p3250
aVunited
p3251
aVeffort
p3252
aVtore
p3253
aVcoffinlid
p3254
aVcame
p3255
aVinside
p3256
aVstupefying
p3257
aVoverpowering
p3258
aVsmell
p3259
aVchloroform
p3260
aVbody
p3261
aVlay
p3262
aVwithin
p3263
aVhead
p3264
aVwreathed
p3265
aVcottonwool
p3266
aVsoaked
p3267
aVnarcotic
p3268
aVholmes
p3269
aVplucked
p3270
aVdisclosed
p3271
aVstatuesque
p3272
aVface
p3273
aVhandsome
p3274
aVspiritual
p3275
aVwoman
p3276
aVmiddle
p3277
aVage
p3278
aVinstant
p3279
aVpassed
p3280
aVarm
p3281
aVround
p3282
aVfigure
p3283
aVraised
p3284
aVsitting
p3285
aVposition
p3286
aVgone
p3287
aVwatson
p3288
aVspark
p3289
aVleft
p3290
aVsurely
p3291
aVlate
p3292
aVhalf
p3293
aVhour
p3294
aVseemed
p3295
aVactual
p3296
aVsuffocation
p3297
aVpoisonous
p3298
aVfumes
p3299
aVchloroform
p3300
aVlady
p3301
aVfrances
p3302
aVseemed
p3303
aVpassed
p3304
aVlast
p3305
aVpoint
p3306
aVrecall
p3307
aVlast
p3308
aVartificial
p3309
aVrespiration
p3310
aVinjected
p3311
aVether
p3312
aVevery
p3313
aVdevice
p3314
aVscience
p3315
aVcould
p3316
aVsuggest
p3317
aVflutter
p3318
aVlife
p3319
aVquiver
p3320
aVeyelids
p3321
aVdimming
p3322
aVmirror
p3323
aVspoke
p3324
aVslowly
p3325
aVreturning
p3326
aVlife
p3327
aVcab
p3328
aVdriven
p3329
aVholmes
p3330
aVparting
p3331
aVblind
p3332
aVlooked
p3333
aVlestrade
p3334
aVwarrant
p3335
aVsaid
p3336
aVfind
p3337
aVbirds
p3338
aVflown
p3339
aVadded
p3340
aVheavy
p3341
aVstep
p3342
aVhurried
p3343
aValong
p3344
aVpassage
p3345
aVsomeone
p3346
aVbetter
p3347
aVright
p3348
aVnurse
p3349
aVlady
p3350
aVgood
p3351
aVmorning
p3352
aVmr
p3353
aVgreen
p3354
aVthink
p3355
aVsooner
p3356
aVmove
p3357
aVlady
p3358
aVfrances
p3359
aVbetter
p3360
aVmeanwhile
p3361
aVfuneral
p3362
aVmay
p3363
aVproceed
p3364
aVpoor
p3365
aVold
p3366
aVwoman
p3367
aVstill
p3368
aVlies
p3369
aVcoffin
p3370
aVmay
p3371
aVgo
p3372
aVlast
p3373
aVrestingplace
p3374
aValone
p3375
aVcare
p3376
aVadd
p3377
aVcase
p3378
aVannals
p3379
aVdear
p3380
aVwatson
p3381
aVsaid
p3382
aVholmes
p3383
aVevening
p3384
aVexample
p3385
aVtemporary
p3386
aVeclipse
p3387
aVeven
p3388
aVbestbalanced
p3389
aVmind
p3390
aVmay
p3391
aVexposed
p3392
aVslips
p3393
aVcommon
p3394
aVmortals
p3395
aVgreatest
p3396
aVrecognize
p3397
aVrepair
p3398
aVmodified
p3399
aVcredit
p3400
aVmay
p3401
aVperhaps
p3402
aVmake
p3403
aVclaim
p3404
aVnight
p3405
aVhaunted
p3406
aVthought
p3407
aVsomewhere
p3408
aVclue
p3409
aVstrange
p3410
aVsentence
p3411
aVcurious
p3412
aVobservation
p3413
aVcome
p3414
aVnotice
p3415
aVeasily
p3416
aVdismissed
p3417
aVsuddenly
p3418
aVgray
p3419
aVmorning
p3420
aVwords
p3421
aVcame
p3422
aVback
p3423
aVremark
p3424
aVundertaker
p3425
aVwife
p3426
aVreported
p3427
aVphilip
p3428
aVgreen
p3429
aVsaid
p3430
aVtook
p3431
aVlonger
p3432
aVordinary
p3433
aVcoffin
p3434
aVspoke
p3435
aVordinary
p3436
aVcould
p3437
aVmean
p3438
aVmade
p3439
aVspecial
p3440
aVmeasurement
p3441
aVinstant
p3442
aVremembered
p3443
aVdeep
p3444
aVsides
p3445
aVlittle
p3446
aVwasted
p3447
aVfigure
p3448
aVbottom
p3449
aVlarge
p3450
aVcoffin
p3451
aVsmall
p3452
aVbody
p3453
aVleave
p3454
aVroom
p3455
aVanother
p3456
aVbody
p3457
aVwould
p3458
aVburied
p3459
aVone
p3460
aVcertificate
p3461
aVclear
p3462
aVsight
p3463
aVdimmed
p3464
aVeight
p3465
aVlady
p3466
aVfrances
p3467
aVwould
p3468
aVburied
p3469
aVone
p3470
aVchance
p3471
aVstop
p3472
aVcoffin
p3473
aVleft
p3474
aVhouse
p3475
aVdesperate
p3476
aVchance
p3477
aVmight
p3478
aVfind
p3479
aValive
p3480
aVchance
p3481
aVresult
p3482
aVshowed
p3483
aVpeople
p3484
aVnever
p3485
aVknowledge
p3486
aVdone
p3487
aVmurder
p3488
aVmight
p3489
aVshrink
p3490
aVactual
p3491
aVviolence
p3492
aVlast
p3493
aVcould
p3494
aVbury
p3495
aVsign
p3496
aVmet
p3497
aVend
p3498
aVeven
p3499
aVexhumed
p3500
aVchance
p3501
aVhoped
p3502
aVconsiderations
p3503
aVmight
p3504
aVprevail
p3505
aVreconstruct
p3506
aVscene
p3507
aVwell
p3508
aVenough
p3509
aVsaw
p3510
aVhorrible
p3511
aVden
p3512
aVupstairs
p3513
aVpoor
p3514
aVlady
p3515
aVkept
p3516
aVlong
p3517
aVrushed
p3518
aVoverpowered
p3519
aVchloroform
p3520
aVcarried
p3521
aVpoured
p3522
aVcoffin
p3523
aVinsure
p3524
aVwaking
p3525
aVscrewed
p3526
aVlid
p3527
aVclever
p3528
aVdevice
p3529
aVwatson
p3530
aVnew
p3531
aVannals
p3532
aVcrime
p3533
aVexmissionary
p3534
aVfriends
p3535
aVescape
p3536
aVclutches
p3537
aVlestrade
p3538
aVshall
p3539
aVexpect
p3540
aVhear
p3541
aVbrilliant
p3542
aVincidents
p3543
aVfuture
p3544
aVcareer
p3545
a.