(lp1
Vadventure
p2
aVred
p3
aVcircle
p4
aVsir
p5
aVarthur
p6
aVconan
p7
aVdoyle
p8
aVwell
p9
aVmrs
p10
aVwarren
p11
aVsee
p12
aVparticular
p13
aVcause
p14
aVuneasiness
p15
aVunderstand
p16
aVwhose
p17
aVtime
p18
aVvalue
p19
aVinterfere
p20
aVmatter
p21
aVreally
p22
aVthings
p23
aVengage
p24
aVspoke
p25
aVsherlock
p26
aVholmes
p27
aVturned
p28
aVback
p29
aVgreat
p30
aVscrapbook
p31
aVarranging
p32
aVindexing
p33
aVrecent
p34
aVmaterial
p35
aVlandlady
p36
aVpertinacity
p37
aValso
p38
aVcunning
p39
aVsex
p40
aVheld
p41
aVground
p42
aVfirmly
p43
aVarranged
p44
aVaffair
p45
aVlodger
p46
aVmine
p47
aVlast
p48
aVyear
p49
aVsaid
p50
aVmr
p51
aVfairdale
p52
aVhobbs
p53
aVah
p54
aVyes
p55
aVsimple
p56
aVmatter
p57
aVwould
p58
aVnever
p59
aVcease
p60
aVtalking
p61
aVkindness
p62
aVsir
p63
aVway
p64
aVbrought
p65
aVlight
p66
aVdarkness
p67
aVremembered
p68
aVwords
p69
aVdoubt
p70
aVdarkness
p71
aVknow
p72
aVcould
p73
aVwould
p74
aVholmes
p75
aVaccessible
p76
aVupon
p77
aVside
p78
aVflattery
p79
aValso
p80
aVjustice
p81
aVupon
p82
aVside
p83
aVkindliness
p84
aVtwo
p85
aVforces
p86
aVmade
p87
aVlay
p88
aVgumbrush
p89
aVsigh
p90
aVresignation
p91
aVpush
p92
aVback
p93
aVchair
p94
aVwell
p95
aVwell
p96
aVmrs
p97
aVwarren
p98
aVlet
p99
aVus
p100
aVhear
p101
aVnt
p102
aVobject
p103
aVtobacco
p104
aVtake
p105
aVthank
p106
aVwatson
p107
aVmatches
p108
aVuneasy
p109
aVunderstand
p110
aVnew
p111
aVlodger
p112
aVremains
p113
aVrooms
p114
aVsee
p115
aVbless
p116
aVmrs
p117
aVwarren
p118
aVlodger
p119
aVoften
p120
aVwould
p121
aVsee
p122
aVweeks
p123
aVend
p124
aVdoubt
p125
aVsir
p126
aVdifferent
p127
aVfrightens
p128
aVmr
p129
aVholmes
p130
aVca
p131
aVnt
p132
aVsleep
p133
aVfright
p134
aVhear
p135
aVquick
p136
aVstep
p137
aVmoving
p138
aVmoving
p139
aVearly
p140
aVmorning
p141
aVlate
p142
aVnight
p143
aVyet
p144
aVnever
p145
aVcatch
p146
aVmuch
p147
aVglimpse
p148
aVstand
p149
aVhusband
p150
aVnervous
p151
aVwork
p152
aVday
p153
aVget
p154
aVrest
p155
aVhiding
p156
aVdone
p157
aVexcept
p158
aVgirl
p159
aValone
p160
aVhouse
p161
aVnerves
p162
aVstand
p163
aVholmes
p164
aVleaned
p165
aVforward
p166
aVlaid
p167
aVlong
p168
aVthin
p169
aVfingers
p170
aVupon
p171
aVwoman
p172
aVshoulder
p173
aValmost
p174
aVhypnotic
p175
aVpower
p176
aVsoothing
p177
aVwished
p178
aVscared
p179
aVlook
p180
aVfaded
p181
aVeyes
p182
aVagitated
p183
aVfeatures
p184
aVsmoothed
p185
aVusual
p186
aVcommonplace
p187
aVsat
p188
aVchair
p189
aVindicated
p190
aVtake
p191
aVmust
p192
aVunderstand
p193
aVevery
p194
aVdetail
p195
aVsaid
p196
aVtake
p197
aVtime
p198
aVconsider
p199
aVsmallest
p200
aVpoint
p201
aVmay
p202
aVessential
p203
aVsay
p204
aVman
p205
aVcame
p206
aVten
p207
aVdays
p208
aVago
p209
aVpaid
p210
aVfortnight
p211
aVboard
p212
aVlodging
p213
aVasked
p214
aVterms
p215
aVsir
p216
aVsaid
p217
aVfifty
p218
aVshillings
p219
aVweek
p220
aVsmall
p221
aVsittingroom
p222
aVbedroom
p223
aVcomplete
p224
aVtop
p225
aVhouse
p226
aVwell
p227
aVsaid
p228
aVll
p229
aVpay
p230
aVfive
p231
aVpounds
p232
aVweek
p233
aVterms
p234
aVm
aVpoor
p235
aVwoman
p236
aVsir
p237
aVmr
p238
aVwarren
p239
aVearns
p240
aVlittle
p241
aVmoney
p242
aVmeant
p243
aVmuch
p244
aVtook
p245
aVtenpound
p246
aVnote
p247
aVheld
p248
aVevery
p249
aVfortnight
p250
aVlong
p251
aVtime
p252
aVcome
p253
aVkeep
p254
aVterms
p255
aVsaid
p256
aVll
p257
aVterms
p258
aVwell
p259
aVsir
p260
aVkey
p261
aVhouse
p262
aVright
p263
aVlodgers
p264
aVoften
p265
aValso
p266
aVleft
p267
aVentirely
p268
aVnever
p269
aVupon
p270
aVexcuse
p271
aVdisturbed
p272
aVnothing
p273
aVwonderful
p274
aVsurely
p275
aVreason
p276
aVsir
p277
aVreason
p278
aVten
p279
aVdays
p280
aVneither
p281
aVmr
p282
aVwarren
p283
aVgirl
p284
aVset
p285
aVeyes
p286
aVupon
p287
aVhear
p288
aVquick
p289
aVstep
p290
aVpacing
p291
aVnight
p292
aVmorning
p293
aVnoon
p294
aVexcept
p295
aVfirst
p296
aVnight
p297
aVnever
p298
aVgone
p299
aVhouse
p300
aVoh
p301
aVwent
p302
aVfirst
p303
aVnight
p304
aVyes
p305
aVsir
p306
aVreturned
p307
aVlate
p308
aVbed
p309
aVtold
p310
aVtaken
p311
aVrooms
p312
aVwould
p313
aVasked
p314
aVbar
p315
aVdoor
p316
aVheard
p317
aVcome
p318
aVstair
p319
aVmidnight
p320
aVmeals
p321
aVparticular
p322
aVdirection
p323
aValways
p324
aVrang
p325
aVleave
p326
aVmeal
p327
aVupon
p328
aVchair
p329
aVoutside
p330
aVdoor
p331
aVrings
p332
aVfinished
p333
aVtake
p334
aVchair
p335
aVwants
p336
aVanything
p337
aVelse
p338
aVprints
p339
aVslip
p340
aVpaper
p341
aVleaves
p342
aVprints
p343
aVyes
p344
aVsir
p345
aVprints
p346
aVpencil
p347
aVword
p348
aVnothing
p349
aVone
p350
aVbrought
p351
aVshow
p352
aVsoap
p353
aVanother
p354
aVmatch
p355
aVone
p356
aVleft
p357
aVfirst
p358
aVmorning
p359
aVdaily
p360
aVgazette
p361
aVleave
p362
aVpaper
p363
aVbreakfast
p364
aVevery
p365
aVmorning
p366
aVdear
p367
aVwatson
p368
aVsaid
p369
aVhomes
p370
aVstaring
p371
aVgreat
p372
aVcuriosity
p373
aVslips
p374
aVfoolscap
p375
aVlandlady
p376
aVhanded
p377
aVcertainly
p378
aVlittle
p379
aVunusual
p380
aVseclusion
p381
aVunderstand
p382
aVprint
p383
aVprinting
p384
aVclumsy
p385
aVprocess
p386
aVwrite
p387
aVwould
p388
aVsuggest
p389
aVwatson
p390
aVdesired
p391
aVconceal
p392
aVhandwriting
p393
aVmatter
p394
aVlandlady
p395
aVword
p396
aVwriting
p397
aVstill
p398
aVmay
p399
aVsay
p400
aVlaconic
p401
aVmessages
p402
aVimagine
p403
aVopens
p404
aVpleasing
p405
aVfield
p406
aVintelligent
p407
aVspeculation
p408
aVwords
p409
aVwritten
p410
aVbroadpointed
p411
aVviolettinted
p412
aVpencil
p413
aVunusual
p414
aVpattern
p415
aVobserve
p416
aVpaper
p417
aVtorn
p418
aVaway
p419
aVside
p420
aVprinting
p421
aVdone
p422
aVsoap
p423
aVpartly
p424
aVgone
p425
aVsuggestive
p426
aVwatson
p427
aVcaution
p428
aVexactly
p429
aVevidently
p430
aVmark
p431
aVthumbprint
p432
aVsomething
p433
aVmight
p434
aVgive
p435
aVclue
p436
aVperson
p437
aVidentity
p438
aVmrs
p439
aVwarren
p440
aVsay
p441
aVman
p442
aVmiddle
p443
aVsize
p444
aVdark
p445
aVbearded
p446
aVage
p447
aVwould
p448
aVyoungish
p449
aVsir
p450
aVthirty
p451
aVwell
p452
aVgive
p453
aVindications
p454
aVspoke
p455
aVgood
p456
aVenglish
p457
aVsir
p458
aVyet
p459
aVthought
p460
aVforeigner
p461
aVaccent
p462
aVwell
p463
aVdressed
p464
aVsmartly
p465
aVdressed
p466
aVsir
p467
aVquite
p468
aVgentleman
p469
aVdark
p470
aVclothes
p471
aVnothing
p472
aVwould
p473
aVnote
p474
aVgave
p475
aVname
p476
aVsir
p477
aVletters
p478
aVcallers
p479
aVnone
p480
aVsurely
p481
aVgirl
p482
aVenter
p483
aVroom
p484
aVmorning
p485
aVsir
p486
aVlooks
p487
aVentirely
p488
aVdear
p489
aVcertainly
p490
aVremarkable
p491
aVluggage
p492
aVone
p493
aVbig
p494
aVbrown
p495
aVbag
p496
aVnothing
p497
aVelse
p498
aVwell
p499
aVnt
p500
aVseem
p501
aVmuch
p502
aVmaterial
p503
aVhelp
p504
aVus
p505
aVsay
p506
aVnothing
p507
aVcome
p508
aVroom
p509
aVabsolutely
p510
aVnothing
p511
aVlandlady
p512
aVdrew
p513
aVenvelope
p514
aVbag
p515
aVshook
p516
aVtwo
p517
aVburnt
p518
aVmatches
p519
aVcigaretteend
p520
aVupon
p521
aVtable
p522
aVtray
p523
aVmorning
p524
aVbrought
p525
aVheard
p526
aVread
p527
aVgreat
p528
aVthings
p529
aVsmall
p530
aVones
p531
aVholmes
p532
aVshrugged
p533
aVshoulders
p534
aVnothing
p535
aVsaid
p536
aVmatches
p537
aVcourse
p538
aVused
p539
aVlight
p540
aVcigarettes
p541
aVobvious
p542
aVshortness
p543
aVburnt
p544
aVend
p545
aVhalf
p546
aVmatch
p547
aVconsumed
p548
aVlighting
p549
aVpipe
p550
aVcigar
p551
aVdear
p552
aVcigarette
p553
aVstub
p554
aVcertainly
p555
aVremarkable
p556
aVgentleman
p557
aVbearded
p558
aVmoustached
p559
aVsay
p560
aVyes
p561
aVsir
p562
aVnt
p563
aVunderstand
p564
aVsay
p565
aVcleanshaven
p566
aVman
p567
aVcould
p568
aVsmoked
p569
aVwatson
p570
aVeven
p571
aVmodest
p572
aVmoustache
p573
aVwould
p574
aVsinged
p575
aVholder
p576
aVsuggested
p577
aVend
p578
aVmatted
p579
aVsuppose
p580
aVcould
p581
aVtwo
p582
aVpeople
p583
aVrooms
p584
aVmrs
p585
aVwarren
p586
aVsir
p587
aVeats
p588
aVlittle
p589
aVoften
p590
aVwonder
p591
aVkeep
p592
aVlife
p593
aVone
p594
aVwell
p595
aVthink
p596
aVmust
p597
aVwait
p598
aVlittle
p599
aVmaterial
p600
aVnothing
p601
aVcomplain
p602
aVreceived
p603
aVrent
p604
aVtroublesome
p605
aVlodger
p606
aVthough
p607
aVcertainly
p608
aVunusual
p609
aVone
p610
aVpays
p611
aVwell
p612
aVchooses
p613
aVlie
p614
aVconcealed
p615
aVdirect
p616
aVbusiness
p617
aVexcuse
p618
aVintrusion
p619
aVupon
p620
aVprivacy
p621
aVreason
p622
aVthink
p623
aVguilty
p624
aVreason
p625
aVve
p626
aVtaken
p627
aVmatter
p628
aVwo
p629
aVnt
p630
aVlose
p631
aVsight
p632
aVreport
p633
aVanything
p634
aVfresh
p635
aVoccurs
p636
aVrely
p637
aVupon
p638
aVassistance
p639
aVneeded
p640
aVcertainly
p641
aVpoints
p642
aVinterest
p643
aVcase
p644
aVwatson
p645
aVremarked
p646
aVlandlady
p647
aVleft
p648
aVus
p649
aVmay
p650
aVcourse
p651
aVtrivial
p652
aVindividual
p653
aVeccentricity
p654
aVmay
p655
aVmuch
p656
aVdeeper
p657
aVappears
p658
aVsurface
p659
aVfirst
p660
aVthing
p661
aVstrikes
p662
aVone
p663
aVobvious
p664
aVpossibility
p665
aVperson
p666
aVrooms
p667
aVmay
p668
aVentirely
p669
aVdifferent
p670
aVone
p671
aVengaged
p672
aVthink
p673
aVwell
p674
aVapart
p675
aVcigaretteend
p676
aVsuggestive
p677
aVtime
p678
aVlodger
p679
aVwent
p680
aVimmediately
p681
aVtaking
p682
aVrooms
p683
aVcame
p684
aVback
p685
aVsomeone
p686
aVcame
p687
aVback
p688
aVwitnesses
p689
aVway
p690
aVproof
p691
aVperson
p692
aVcame
p693
aVback
p694
aVperson
p695
aVwent
p696
aVman
p697
aVtook
p698
aVrooms
p699
aVspoke
p700
aVenglish
p701
aVwell
p702
aVhowever
p703
aVprints
p704
aVmatch
p705
aVmatches
p706
aVimagine
p707
aVword
p708
aVtaken
p709
aVdictionary
p710
aVwould
p711
aVgive
p712
aVnoun
p713
aVplural
p714
aVlaconic
p715
aVstyle
p716
aVmay
p717
aVconceal
p718
aVabsence
p719
aVknowledge
p720
aVenglish
p721
aVyes
p722
aVwatson
p723
aVgood
p724
aVreasons
p725
aVsuspect
p726
aVsubstitution
p727
aVlodgers
p728
aVpossible
p729
aVend
p730
aVah
p731
aVlies
p732
aVproblem
p733
aVone
p734
aVrather
p735
aVobvious
p736
aVline
p737
aVinvestigation
p738
aVtook
p739
aVgreat
p740
aVbook
p741
aVday
p742
aVday
p743
aVfiled
p744
aVagony
p745
aVcolumns
p746
aVvarious
p747
aVlondon
p748
aVjournals
p749
aVdear
p750
aVsaid
p751
aVturning
p752
aVpages
p753
aVchorus
p754
aVgroans
p755
aVcries
p756
aVbleatings
p757
aVragbag
p758
aVsingular
p759
aVhappenings
p760
aVsurely
p761
aVvaluable
p762
aVhuntingground
p763
aVever
p764
aVgiven
p765
aVstudent
p766
aVunusual
p767
aVperson
p768
aValone
p769
aVapproached
p770
aVletter
p771
aVwithout
p772
aVbreach
p773
aVabsolute
p774
aVsecrecy
p775
aVdesired
p776
aVnews
p777
aVmessage
p778
aVreach
p779
aVwithout
p780
aVobviously
p781
aVadvertisement
p782
aVnewspaper
p783
aVseems
p784
aVway
p785
aVfortunately
p786
aVneed
p787
aVconcern
p788
aVone
p789
aVpaper
p790
aVdaily
p791
aVgazette
p792
aVextracts
p793
aVlast
p794
aVfortnight
p795
aVlady
p796
aVblack
p797
aVboa
p798
aVprince
p799
aVskating
p800
aVclub
p801
aVmay
p802
aVpass
p803
aVsurely
p804
aVjimmy
p805
aVbreak
p806
aVmother
p807
aVheart
p808
aVappears
p809
aVirrelevant
p810
aVlady
p811
aVfainted
p812
aVbrixton
p813
aVbus
p814
aVinterest
p815
aVevery
p816
aVday
p817
aVheart
p818
aVlongs
p819
aVbleat
p820
aVwatson
p821
aVunmitigated
p822
aVbleat
p823
aVah
p824
aVlittle
p825
aVpossible
p826
aVlisten
p827
aVpatient
p828
aVfind
p829
aVsure
p830
aVmeans
p831
aVcommunications
p832
aVmeanwhile
p833
aVcolumn
p834
aVg
aVtwo
p835
aVdays
p836
aVmrs
p837
aVwarren
p838
aVlodger
p839
aVarrived
p840
aVsounds
p841
aVplausible
p842
aVmysterious
p843
aVone
p844
aVcould
p845
aVunderstand
p846
aVenglish
p847
aVeven
p848
aVcould
p849
aVprint
p850
aVlet
p851
aVus
p852
aVsee
p853
aVpick
p854
aVtrace
p855
aVyes
p856
aVthree
p857
aVdays
p858
aVlater
p859
aVmaking
p860
aVsuccessful
p861
aVarrangements
p862
aVpatience
p863
aVprudence
p864
aVclouds
p865
aVpass
p866
aVg
aVnothing
p867
aVweek
p868
aVcomes
p869
aVsomething
p870
aVmuch
p871
aVdefinite
p872
aVpath
p873
aVclearing
p874
aVfind
p875
aVchance
p876
aVsignal
p877
aVmessage
p878
aVremember
p879
aVcode
p880
aVagreed
p881
aVone
p882
aVtwo
p883
aVb
aVhear
p884
aVsoon
p885
aVg
aVyesterday
p886
aVpaper
p887
aVnothing
p888
aVtoday
p889
aVappropriate
p890
aVmrs
p891
aVwarren
p892
aVlodger
p893
aVwait
p894
aVlittle
p895
aVwatson
p896
aVnt
p897
aVdoubt
p898
aVaffair
p899
aVgrow
p900
aVintelligible
p901
aVproved
p902
aVmorning
p903
aVfound
p904
aVfriend
p905
aVstanding
p906
aVhearthrug
p907
aVback
p908
aVfire
p909
aVsmile
p910
aVcomplete
p911
aVsatisfaction
p912
aVupon
p913
aVface
p914
aVwatson
p915
aVcried
p916
aVpicking
p917
aVpaper
p918
aVtable
p919
aVhigh
p920
aVred
p921
aVhouse
p922
aVwhite
p923
aVstone
p924
aVfacings
p925
aVthird
p926
aVfloor
p927
aVsecond
p928
aVwindow
p929
aVleft
p930
aVdusk
p931
aVg
aVdefinite
p932
aVenough
p933
aVthink
p934
aVbreakfast
p935
aVmust
p936
aVmake
p937
aVlittle
p938
aVreconnaissance
p939
aVmrs
p940
aVwarren
p941
aVneighbourhood
p942
aVah
p943
aVmrs
p944
aVwarren
p945
aVnews
p946
aVbring
p947
aVus
p948
aVmorning
p949
aVclient
p950
aVsuddenly
p951
aVburst
p952
aVroom
p953
aVexplosive
p954
aVenergy
p955
aVtold
p956
aVnew
p957
aVmomentous
p958
aVdevelopment
p959
aVpolice
p960
aVmatter
p961
aVmr
p962
aVholmes
p963
aVcried
p964
aVll
p965
aVshall
p966
aVpack
p967
aVbaggage
p968
aVwould
p969
aVgone
p970
aVstraight
p971
aVtold
p972
aVthought
p973
aVfair
p974
aVtake
p975
aVopinion
p976
aVfirst
p977
aVm
aVend
p978
aVpatience
p979
aVcomes
p980
aVknocking
p981
aVold
p982
aVman
p983
aVknocking
p984
aVmr
p985
aVwarren
p986
aVusing
p987
aVroughly
p988
aVanyway
p989
aVused
p990
aVroughly
p991
aVah
p992
aVwant
p993
aVknow
p994
aVmorning
p995
aVsir
p996
aVmr
p997
aVwarren
p998
aVtimekeeper
p999
aVmorton
p1000
aVwaylight
p1001
aVtottenham
p1002
aVcourt
p1003
aVroad
p1004
aVhouse
p1005
aVseven
p1006
aVwell
p1007
aVmorning
p1008
aVgone
p1009
aVten
p1010
aVpaces
p1011
aVroad
p1012
aVtwo
p1013
aVmen
p1014
aVcame
p1015
aVbehind
p1016
aVthrew
p1017
aVcoat
p1018
aVhead
p1019
aVbundled
p1020
aVcab
p1021
aVbeside
p1022
aVcurb
p1023
aVdrove
p1024
aVhour
p1025
aVopened
p1026
aVdoor
p1027
aVshot
p1028
aVlay
p1029
aVroadway
p1030
aVshaken
p1031
aVwits
p1032
aVnever
p1033
aVsaw
p1034
aVbecame
p1035
aVcab
p1036
aVpicked
p1037
aVfound
p1038
aVhampstead
p1039
aVheath
p1040
aVtook
p1041
aVbus
p1042
aVhome
p1043
aVlies
p1044
aVsofa
p1045
aVcame
p1046
aVstraight
p1047
aVround
p1048
aVtell
p1049
aVhappened
p1050
aVinteresting
p1051
aVsaid
p1052
aVholmes
p1053
aVobserve
p1054
aVappearance
p1055
aVmen
p1056
aVhear
p1057
aVtalk
p1058
aVclean
p1059
aVdazed
p1060
aVknows
p1061
aVlifted
p1062
aVmagic
p1063
aVdropped
p1064
aVmagic
p1065
aVtwo
p1066
aVleast
p1067
aVmaybe
p1068
aVthree
p1069
aVconnect
p1070
aVattack
p1071
aVlodger
p1072
aVwell
p1073
aVve
p1074
aVlived
p1075
aVfifteen
p1076
aVyears
p1077
aVhappenings
p1078
aVever
p1079
aVcame
p1080
aVve
p1081
aVenough
p1082
aVmoney
p1083
aVeverything
p1084
aVll
p1085
aVhouse
p1086
aVday
p1087
aVdone
p1088
aVwait
p1089
aVbit
p1090
aVmrs
p1091
aVwarren
p1092
aVnothing
p1093
aVrash
p1094
aVbegin
p1095
aVthink
p1096
aVaffair
p1097
aVmay
p1098
aVmuch
p1099
aVimportant
p1100
aVappeared
p1101
aVfirst
p1102
aVsight
p1103
aVclear
p1104
aVdanger
p1105
aVthreatening
p1106
aVlodger
p1107
aVequally
p1108
aVclear
p1109
aVenemies
p1110
aVlying
p1111
aVwait
p1112
aVnear
p1113
aVdoor
p1114
aVmistook
p1115
aVhusband
p1116
aVfoggy
p1117
aVmorning
p1118
aVlight
p1119
aVdiscovering
p1120
aVmistake
p1121
aVreleased
p1122
aVwould
p1123
aVdone
p1124
aVmistake
p1125
aVconjecture
p1126
aVwell
p1127
aVmr
p1128
aVholmes
p1129
aVgreat
p1130
aVfancy
p1131
aVsee
p1132
aVlodger
p1133
aVmrs
p1134
aVwarren
p1135
aVnt
p1136
aVsee
p1137
aVmanaged
p1138
aVunless
p1139
aVbreak
p1140
aVdoor
p1141
aValways
p1142
aVhear
p1143
aVunlock
p1144
aVgo
p1145
aVstair
p1146
aVleave
p1147
aVtray
p1148
aVtake
p1149
aVtray
p1150
aVsurely
p1151
aVcould
p1152
aVconceal
p1153
aVsee
p1154
aVlandlady
p1155
aVthought
p1156
aVmoment
p1157
aVwell
p1158
aVsir
p1159
aVboxroom
p1160
aVopposite
p1161
aVcould
p1162
aVarrange
p1163
aVlookingglass
p1164
aVmaybe
p1165
aVbehind
p1166
aVdoor
p1167
aVexcellent
p1168
aVsaid
p1169
aVholmes
p1170
aVlunch
p1171
aVone
p1172
aVsir
p1173
aVdr
p1174
aVwatson
p1175
aVcome
p1176
aVround
p1177
aVtime
p1178
aVpresent
p1179
aVmrs
p1180
aVwarren
p1181
aVgoodbye
p1182
aVhalfpast
p1183
aVtwelve
p1184
aVfound
p1185
aVupon
p1186
aVsteps
p1187
aVmrs
p1188
aVwarren
p1189
aVhouse
p1190
aVhigh
p1191
aVthin
p1192
aVyellowbrick
p1193
aVedifice
p1194
aVgreat
p1195
aVorme
p1196
aVstreet
p1197
aVnarrow
p1198
aVthoroughfare
p1199
aVnortheast
p1200
aVside
p1201
aVbritish
p1202
aVmuseum
p1203
aVstanding
p1204
aVnear
p1205
aVcorner
p1206
aVstreet
p1207
aVcommands
p1208
aVview
p1209
aVhowe
p1210
aVstreet
p1211
aVpretentious
p1212
aVhouses
p1213
aVholmes
p1214
aVpointed
p1215
aVchuckle
p1216
aVone
p1217
aVrow
p1218
aVresidential
p1219
aVflats
p1220
aVprojected
p1221
aVcould
p1222
aVfail
p1223
aVcatch
p1224
aVeye
p1225
aVsee
p1226
aVwatson
p1227
aVsaid
p1228
aVhigh
p1229
aVred
p1230
aVhouse
p1231
aVstone
p1232
aVfacings
p1233
aVsignal
p1234
aVstation
p1235
aVright
p1236
aVknow
p1237
aVplace
p1238
aVknow
p1239
aVcode
p1240
aVsurely
p1241
aVtask
p1242
aVsimple
p1243
aVlet
p1244
aVcard
p1245
aVwindow
p1246
aVevidently
p1247
aVempty
p1248
aVflat
p1249
aVconfederate
p1250
aVaccess
p1251
aVwell
p1252
aVmrs
p1253
aVwarren
p1254
aVready
p1255
aVcome
p1256
aVleave
p1257
aVboots
p1258
aVlanding
p1259
aVll
p1260
aVput
p1261
aVexcellent
p1262
aVhidingplace
p1263
aVarranged
p1264
aVmirror
p1265
aVplaced
p1266
aVseated
p1267
aVdark
p1268
aVcould
p1269
aVplainly
p1270
aVsee
p1271
aVdoor
p1272
aVopposite
p1273
aVhardly
p1274
aVsettled
p1275
aVmrs
p1276
aVwarren
p1277
aVleft
p1278
aVus
p1279
aVdistant
p1280
aVtinkle
p1281
aVannounced
p1282
aVmysterious
p1283
aVneighbour
p1284
aVrung
p1285
aVpresently
p1286
aVlandlady
p1287
aVappeared
p1288
aVtray
p1289
aVlaid
p1290
aVupon
p1291
aVchair
p1292
aVbeside
p1293
aVclosed
p1294
aVdoor
p1295
aVtreading
p1296
aVheavily
p1297
aVdeparted
p1298
aVcrouching
p1299
aVtogether
p1300
aVangle
p1301
aVdoor
p1302
aVkept
p1303
aVeyes
p1304
aVfixed
p1305
aVupon
p1306
aVmirror
p1307
aVsuddenly
p1308
aVlandlady
p1309
aVfootsteps
p1310
aVdied
p1311
aVaway
p1312
aVcreak
p1313
aVturning
p1314
aVkey
p1315
aVhandle
p1316
aVrevolved
p1317
aVtwo
p1318
aVthin
p1319
aVhands
p1320
aVdarted
p1321
aVlifted
p1322
aVtray
p1323
aVchair
p1324
aVinstant
p1325
aVlater
p1326
aVhurriedly
p1327
aVreplaced
p1328
aVcaught
p1329
aVglimpse
p1330
aVdark
p1331
aVbeautiful
p1332
aVhorrified
p1333
aVface
p1334
aVglaring
p1335
aVnarrow
p1336
aVopening
p1337
aVboxroom
p1338
aVdoor
p1339
aVcrashed
p1340
aVkey
p1341
aVturned
p1342
aVsilence
p1343
aVholmes
p1344
aVtwitched
p1345
aVsleeve
p1346
aVtogether
p1347
aVstole
p1348
aVstair
p1349
aVcall
p1350
aVevening
p1351
aVsaid
p1352
aVexpectant
p1353
aVlandlady
p1354
aVthink
p1355
aVwatson
p1356
aVdiscuss
p1357
aVbusiness
p1358
aVbetter
p1359
aVquarters
p1360
aVsurmise
p1361
aVsaw
p1362
aVproved
p1363
aVcorrect
p1364
aVsaid
p1365
aVspeaking
p1366
aVdepths
p1367
aVeasychair
p1368
aVsubstitution
p1369
aVlodgers
p1370
aVforesee
p1371
aVfind
p1372
aVwoman
p1373
aVordinary
p1374
aVwoman
p1375
aVwatson
p1376
aVsaw
p1377
aVus
p1378
aVwell
p1379
aVsaw
p1380
aVsomething
p1381
aValarm
p1382
aVcertain
p1383
aVgeneral
p1384
aVsequence
p1385
aVevents
p1386
aVpretty
p1387
aVclear
p1388
aVcouple
p1389
aVseek
p1390
aVrefuge
p1391
aVlondon
p1392
aVterrible
p1393
aVinstant
p1394
aVdanger
p1395
aVmeasure
p1396
aVdanger
p1397
aVrigour
p1398
aVprecautions
p1399
aVman
p1400
aVwork
p1401
aVmust
p1402
aVdesires
p1403
aVleave
p1404
aVwoman
p1405
aVabsolute
p1406
aVsafety
p1407
aVeasy
p1408
aVproblem
p1409
aVsolved
p1410
aVoriginal
p1411
aVfashion
p1412
aVeffectively
p1413
aVpresence
p1414
aVeven
p1415
aVknown
p1416
aVlandlady
p1417
aVsupplies
p1418
aVfood
p1419
aVprinted
p1420
aVmessages
p1421
aVevident
p1422
aVprevent
p1423
aVsex
p1424
aVdiscovered
p1425
aVwriting
p1426
aVman
p1427
aVcome
p1428
aVnear
p1429
aVwoman
p1430
aVguide
p1431
aVenemies
p1432
aVsince
p1433
aVcommunicate
p1434
aVdirect
p1435
aVrecourse
p1436
aVagony
p1437
aVcolumn
p1438
aVpaper
p1439
aVfar
p1440
aVclear
p1441
aVroot
p1442
aVah
p1443
aVyes
p1444
aVwatson
p1445
aVseverely
p1446
aVpractical
p1447
aVusual
p1448
aVroot
p1449
aVmrs
p1450
aVwarren
p1451
aVwhimsical
p1452
aVproblem
p1453
aVenlarges
p1454
aVsomewhat
p1455
aVassumes
p1456
aVsinister
p1457
aVaspect
p1458
aVproceed
p1459
aVmuch
p1460
aVsay
p1461
aVordinary
p1462
aVlove
p1463
aVescapade
p1464
aVsaw
p1465
aVwoman
p1466
aVface
p1467
aVsign
p1468
aVdanger
p1469
aVheard
p1470
aVattack
p1471
aVupon
p1472
aVlandlord
p1473
aVundoubtedly
p1474
aVmeant
p1475
aVlodger
p1476
aValarms
p1477
aVdesperate
p1478
aVneed
p1479
aVsecrecy
p1480
aVargue
p1481
aVmatter
p1482
aVone
p1483
aVlife
p1484
aVdeath
p1485
aVattack
p1486
aVupon
p1487
aVmr
p1488
aVwarren
p1489
aVshows
p1490
aVenemy
p1491
aVwhoever
p1492
aVaware
p1493
aVsubstitution
p1494
aVfemale
p1495
aVlodger
p1496
aVmale
p1497
aVcurious
p1498
aVcomplex
p1499
aVwatson
p1500
aVgo
p1501
aVgain
p1502
aVindeed
p1503
aVart
p1504
aVart
p1505
aVsake
p1506
aVwatson
p1507
aVsuppose
p1508
aVdoctored
p1509
aVfound
p1510
aVstudying
p1511
aVcases
p1512
aVwithout
p1513
aVthought
p1514
aVfee
p1515
aVeducation
p1516
aVholmes
p1517
aVeducation
p1518
aVnever
p1519
aVends
p1520
aVwatson
p1521
aVseries
p1522
aVlessons
p1523
aVgreatest
p1524
aVlast
p1525
aVinstructive
p1526
aVcase
p1527
aVneither
p1528
aVmoney
p1529
aVcredit
p1530
aVyet
p1531
aVone
p1532
aVwould
p1533
aVwish
p1534
aVtidy
p1535
aVdusk
p1536
aVcomes
p1537
aVfind
p1538
aVone
p1539
aVstage
p1540
aVadvanced
p1541
aVinvestigation
p1542
aVreturned
p1543
aVmrs
p1544
aVwarren
p1545
aVrooms
p1546
aVgloom
p1547
aVlondon
p1548
aVwinter
p1549
aVevening
p1550
aVthickened
p1551
aVone
p1552
aVgray
p1553
aVcurtain
p1554
aVdead
p1555
aVmonotone
p1556
aVcolour
p1557
aVbroken
p1558
aVsharp
p1559
aVyellow
p1560
aVsquares
p1561
aVwindows
p1562
aVblurred
p1563
aVhaloes
p1564
aVgaslamps
p1565
aVpeered
p1566
aVdarkened
p1567
aVsittingroom
p1568
aVlodginghouse
p1569
aVone
p1570
aVdim
p1571
aVlight
p1572
aVglimmered
p1573
aVhigh
p1574
aVobscurity
p1575
aVsomeone
p1576
aVmoving
p1577
aVroom
p1578
aVsaid
p1579
aVholmes
p1580
aVwhisper
p1581
aVgaunt
p1582
aVeager
p1583
aVface
p1584
aVthrust
p1585
aVforward
p1586
aVwindowpane
p1587
aVyes
p1588
aVsee
p1589
aVshadow
p1590
aVcandle
p1591
aVhand
p1592
aVpeering
p1593
aVacross
p1594
aVwants
p1595
aVsure
p1596
aVlookout
p1597
aVbegins
p1598
aVflash
p1599
aVtake
p1600
aVmessage
p1601
aValso
p1602
aVwatson
p1603
aVmay
p1604
aVcheck
p1605
aVsingle
p1606
aVflash
p1607
aVsurely
p1608
aVmany
p1609
aVmake
p1610
aVtwenty
p1611
aVmean
p1612
aVintelligible
p1613
aVenough
p1614
aVanother
p1615
aVsurely
p1616
aVbeginning
p1617
aVsecond
p1618
aVword
p1619
aVtenta
p1620
aVdead
p1621
aVstop
p1622
aVca
p1623
aVnt
p1624
aVwatson
p1625
aVattenta
p1626
aVgives
p1627
aVsense
p1628
aVbetter
p1629
aVthree
p1630
aVwords
p1631
aVten
p1632
aVta
p1633
aVunless
p1634
aVperson
p1635
aVinitials
p1636
aVgoes
p1637
aVatte
p1638
aVmessage
p1639
aVcurious
p1640
aVwatson
p1641
aVcurious
p1642
aVrepeating
p1643
aVthird
p1644
aVtime
p1645
aVattenta
p1646
aVthree
p1647
aVtimes
p1648
aVoften
p1649
aVrepeat
p1650
aVseems
p1651
aVfinish
p1652
aVwithdrawn
p1653
aVwindow
p1654
aVmake
p1655
aVwatson
p1656
aVcipher
p1657
aVmessage
p1658
aVholmes
p1659
aVcompanion
p1660
aVgave
p1661
aVsudden
p1662
aVchuckle
p1663
aVcomprehension
p1664
aVobscure
p1665
aVcipher
p1666
aVwatson
p1667
aVsaid
p1668
aVcourse
p1669
aVitalian
p1670
aVmeans
p1671
aVaddressed
p1672
aVwoman
p1673
aVbeware
p1674
aVbeware
p1675
aVbeware
p1676
aVwatson
p1677
aVbelieve
p1678
aVhit
p1679
aVdoubt
p1680
aVurgent
p1681
aVmessage
p1682
aVthrice
p1683
aVrepeated
p1684
aVmake
p1685
aVbeware
p1686
aVwait
p1687
aVbit
p1688
aVcoming
p1689
aVwindow
p1690
aVsaw
p1691
aVdim
p1692
aVsilhouette
p1693
aVcrouching
p1694
aVman
p1695
aVwhisk
p1696
aVsmall
p1697
aVflame
p1698
aVacross
p1699
aVwindow
p1700
aVsignals
p1701
aVrenewed
p1702
aVcame
p1703
aVrapidly
p1704
aVrapid
p1705
aVhard
p1706
aVfollow
p1707
aVpericolo
p1708
aVpericolo
p1709
aVeh
p1710
aVwatson
p1711
aVdanger
p1712
aVnt
p1713
aVyes
p1714
aVjove
p1715
aVdanger
p1716
aVsignal
p1717
aVgoes
p1718
aVperi
p1719
aVhalloa
p1720
aVearth
p1721
aVlight
p1722
aVsuddenly
p1723
aVgone
p1724
aVglimmering
p1725
aVsquare
p1726
aVwindow
p1727
aVdisappeared
p1728
aVthird
p1729
aVfloor
p1730
aVformed
p1731
aVdark
p1732
aVband
p1733
aVround
p1734
aVlofty
p1735
aVbuilding
p1736
aVtiers
p1737
aVshining
p1738
aVcasements
p1739
aVlast
p1740
aVwarning
p1741
aVcry
p1742
aVsuddenly
p1743
aVcut
p1744
aVshort
p1745
aVthought
p1746
aVoccurred
p1747
aVinstant
p1748
aVus
p1749
aVholmes
p1750
aVsprang
p1751
aVcrouched
p1752
aVwindow
p1753
aVserious
p1754
aVwatson
p1755
aVcried
p1756
aVdevilry
p1757
aVgoing
p1758
aVforward
p1759
aVmessage
p1760
aVstop
p1761
aVway
p1762
aVput
p1763
aVscotland
p1764
aVyard
p1765
aVtouch
p1766
aVbusiness
p1767
aVyet
p1768
aVpressing
p1769
aVus
p1770
aVleave
p1771
aVshall
p1772
aVgo
p1773
aVpolice
p1774
aVmust
p1775
aVdefine
p1776
aVsituation
p1777
aVlittle
p1778
aVclearly
p1779
aVmay
p1780
aVbear
p1781
aVinnocent
p1782
aVinterpretation
p1783
aVcome
p1784
aVwatson
p1785
aVlet
p1786
aVus
p1787
aVgo
p1788
aVacross
p1789
aVsee
p1790
aVmake
p1791
aVtwo
p1792
aVwalked
p1793
aVrapidly
p1794
aVhowe
p1795
aVstreet
p1796
aVglanced
p1797
aVback
p1798
aVbuilding
p1799
aVleft
p1800
aVdimly
p1801
aVoutlined
p1802
aVtop
p1803
aVwindow
p1804
aVcould
p1805
aVsee
p1806
aVshadow
p1807
aVhead
p1808
aVwoman
p1809
aVhead
p1810
aVgazing
p1811
aVtensely
p1812
aVrigidly
p1813
aVnight
p1814
aVwaiting
p1815
aVbreathless
p1816
aVsuspense
p1817
aVrenewal
p1818
aVinterrupted
p1819
aVmessage
p1820
aVdoorway
p1821
aVhowe
p1822
aVstreet
p1823
aVflats
p1824
aVman
p1825
aVmuffled
p1826
aVcravat
p1827
aVgreatcoat
p1828
aVleaning
p1829
aVrailing
p1830
aVstarted
p1831
aVhalllight
p1832
aVfell
p1833
aVupon
p1834
aVfaces
p1835
aVholmes
p1836
aVcried
p1837
aVgregson
p1838
aVsaid
p1839
aVcompanion
p1840
aVshook
p1841
aVhands
p1842
aVscotland
p1843
aVyard
p1844
aVdetective
p1845
aVjourneys
p1846
aVend
p1847
aVlovers
p1848
aVmeetings
p1849
aVbrings
p1850
aVreasons
p1851
aVbring
p1852
aVexpect
p1853
aVsaid
p1854
aVgregson
p1855
aVgot
p1856
aVca
p1857
aVnt
p1858
aVimagine
p1859
aVdifferent
p1860
aVthreads
p1861
aVleading
p1862
aVtangle
p1863
aVve
p1864
aVtaking
p1865
aVsignals
p1866
aVsignals
p1867
aVyes
p1868
aVwindow
p1869
aVbroke
p1870
aVmiddle
p1871
aVcame
p1872
aVsee
p1873
aVreason
p1874
aVsince
p1875
aVsafe
p1876
aVhands
p1877
aVsee
p1878
aVobject
p1879
aVcontinuing
p1880
aVbusiness
p1881
aVwait
p1882
aVbit
p1883
aVcried
p1884
aVgregson
p1885
aVeagerly
p1886
aVll
p1887
aVjustice
p1888
aVmr
p1889
aVholmes
p1890
aVnever
p1891
aVcase
p1892
aVyet
p1893
aVnt
p1894
aVfeel
p1895
aVstronger
p1896
aVside
p1897
aVone
p1898
aVexit
p1899
aVflats
p1900
aVsafe
p1901
aVwell
p1902
aVwell
p1903
aVscore
p1904
aVmr
p1905
aVholmes
p1906
aVmust
p1907
aVgive
p1908
aVus
p1909
aVbest
p1910
aVtime
p1911
aVstruck
p1912
aVstick
p1913
aVsharply
p1914
aVupon
p1915
aVground
p1916
aVcabman
p1917
aVwhip
p1918
aVhand
p1919
aVsauntered
p1920
aVfourwheeler
p1921
aVstood
p1922
aVfar
p1923
aVside
p1924
aVstreet
p1925
aVmay
p1926
aVintroduce
p1927
aVmr
p1928
aVsherlock
p1929
aVholmes
p1930
aVsaid
p1931
aVcabman
p1932
aVmr
p1933
aVleverton
p1934
aVpinkerton
p1935
aVamerican
p1936
aVagency
p1937
aVhero
p1938
aVlong
p1939
aVisland
p1940
aVcave
p1941
aVmystery
p1942
aVsaid
p1943
aVholmes
p1944
aVsir
p1945
aVpleased
p1946
aVmeet
p1947
aVamerican
p1948
aVquiet
p1949
aVbusinesslike
p1950
aVyoung
p1951
aVman
p1952
aVcleanshaven
p1953
aVhatchet
p1954
aVface
p1955
aVflushed
p1956
aVwords
p1957
aVcommendation
p1958
aVtrail
p1959
aVlife
p1960
aVmr
p1961
aVholmes
p1962
aVsaid
p1963
aVget
p1964
aVgorgiano
p1965
aVgorgiano
p1966
aVred
p1967
aVcircle
p1968
aVoh
p1969
aVeuropean
p1970
aVfame
p1971
aVwell
p1972
aVve
p1973
aVlearned
p1974
aVamerica
p1975
aVknow
p1976
aVbottom
p1977
aVfifty
p1978
aVmurders
p1979
aVyet
p1980
aVnothing
p1981
aVpositive
p1982
aVtake
p1983
aVtracked
p1984
aVnew
p1985
aVyork
p1986
aVve
p1987
aVclose
p1988
aVweek
p1989
aVlondon
p1990
aVwaiting
p1991
aVexcuse
p1992
aVget
p1993
aVhand
p1994
aVcollar
p1995
aVmr
p1996
aVgregson
p1997
aVran
p1998
aVground
p1999
aVbig
p2000
aVtenement
p2001
aVhouse
p2002
aVone
p2003
aVdoor
p2004
aVca
p2005
aVnt
p2006
aVslip
p2007
aVus
p2008
aVthree
p2009
aVfolk
p2010
aVcome
p2011
aVsince
p2012
aVwent
p2013
aVll
p2014
aVswear
p2015
aVnt
p2016
aVone
p2017
aVmr
p2018
aVholmes
p2019
aVtalks
p2020
aVsignals
p2021
aVsaid
p2022
aVgregson
p2023
aVexpect
p2024
aVusual
p2025
aVknows
p2026
aVgood
p2027
aVdeal
p2028
aVnt
p2029
aVclear
p2030
aVwords
p2031
aVholmes
p2032
aVexplained
p2033
aVsituation
p2034
aVappeared
p2035
aVus
p2036
aVamerican
p2037
aVstruck
p2038
aVhands
p2039
aVtogether
p2040
aVvexation
p2041
aVus
p2042
aVcried
p2043
aVthink
p2044
aVwell
p2045
aVfigures
p2046
aVway
p2047
aVsending
p2048
aVmessages
p2049
aVaccomplice
p2050
aVseveral
p2051
aVgang
p2052
aVlondon
p2053
aVsuddenly
p2054
aVaccount
p2055
aVtelling
p2056
aVdanger
p2057
aVbroke
p2058
aVshort
p2059
aVcould
p2060
aVmean
p2061
aVexcept
p2062
aVwindow
p2063
aVsuddenly
p2064
aVeither
p2065
aVcaught
p2066
aVsight
p2067
aVus
p2068
aVstreet
p2069
aVway
p2070
aVcome
p2071
aVunderstand
p2072
aVclose
p2073
aVdanger
p2074
aVmust
p2075
aVact
p2076
aVright
p2077
aVaway
p2078
aVavoid
p2079
aVsuggest
p2080
aVmr
p2081
aVholmes
p2082
aVgo
p2083
aVsee
p2084
aVwarrant
p2085
aVarrest
p2086
aVunoccupied
p2087
aVpremises
p2088
aVsuspicious
p2089
aVcircumstances
p2090
aVsaid
p2091
aVgregson
p2092
aVgood
p2093
aVenough
p2094
aVmoment
p2095
aVheels
p2096
aVsee
p2097
aVnew
p2098
aVyork
p2099
aVca
p2100
aVnt
p2101
aVhelp
p2102
aVus
p2103
aVkeep
p2104
aVll
p2105
aVtake
p2106
aVresponsibility
p2107
aVarresting
p2108
aVofficial
p2109
aVdetectives
p2110
aVmay
p2111
aVblunder
p2112
aVmatter
p2113
aVintelligence
p2114
aVnever
p2115
aVcourage
p2116
aVgregson
p2117
aVclimbed
p2118
aVstair
p2119
aVarrest
p2120
aVdesperate
p2121
aVmurderer
p2122
aVabsolutely
p2123
aVquiet
p2124
aVbusinesslike
p2125
aVbearing
p2126
aVwould
p2127
aVascended
p2128
aVofficial
p2129
aVstaircase
p2130
aVscotland
p2131
aVyard
p2132
aVpinkerton
p2133
aVman
p2134
aVtried
p2135
aVpush
p2136
aVpast
p2137
aVgregson
p2138
aVfirmly
p2139
aVelbowed
p2140
aVback
p2141
aVlondon
p2142
aVdangers
p2143
aVprivilege
p2144
aVlondon
p2145
aVforce
p2146
aVdoor
p2147
aVlefthand
p2148
aVflat
p2149
aVupon
p2150
aVthird
p2151
aVlanding
p2152
aVstanding
p2153
aVajar
p2154
aVgregson
p2155
aVpushed
p2156
aVopen
p2157
aVwithin
p2158
aVabsolute
p2159
aVsilence
p2160
aVdarkness
p2161
aVstruck
p2162
aVmatch
p2163
aVlit
p2164
aVdetective
p2165
aVlantern
p2166
aVflicker
p2167
aVsteadied
p2168
aVflame
p2169
aVgave
p2170
aVgasp
p2171
aVsurprise
p2172
aVdeal
p2173
aVboards
p2174
aVcarpetless
p2175
aVfloor
p2176
aVoutlined
p2177
aVfresh
p2178
aVtrack
p2179
aVblood
p2180
aVred
p2181
aVsteps
p2182
aVpointed
p2183
aVtowards
p2184
aVus
p2185
aVled
p2186
aVaway
p2187
aVinner
p2188
aVroom
p2189
aVdoor
p2190
aVclosed
p2191
aVgregson
p2192
aVflung
p2193
aVopen
p2194
aVheld
p2195
aVlight
p2196
aVfull
p2197
aVblaze
p2198
aVfront
p2199
aVpeered
p2200
aVeagerly
p2201
aVshoulders
p2202
aVmiddle
p2203
aVfloor
p2204
aVempty
p2205
aVroom
p2206
aVhuddled
p2207
aVfigure
p2208
aVenormous
p2209
aVman
p2210
aVcleanshaven
p2211
aVswarthy
p2212
aVface
p2213
aVgrotesquely
p2214
aVhorrible
p2215
aVcontortion
p2216
aVhead
p2217
aVencircled
p2218
aVghastly
p2219
aVcrimson
p2220
aVhalo
p2221
aVblood
p2222
aVlying
p2223
aVbroad
p2224
aVwet
p2225
aVcircle
p2226
aVupon
p2227
aVwhite
p2228
aVwoodwork
p2229
aVknees
p2230
aVdrawn
p2231
aVhands
p2232
aVthrown
p2233
aVagony
p2234
aVcentre
p2235
aVbroad
p2236
aVbrown
p2237
aVupturned
p2238
aVthroat
p2239
aVprojected
p2240
aVwhite
p2241
aVhaft
p2242
aVknife
p2243
aVdriven
p2244
aVbladedeep
p2245
aVbody
p2246
aVgiant
p2247
aVman
p2248
aVmust
p2249
aVgone
p2250
aVlike
p2251
aVpoleaxed
p2252
aVox
p2253
aVterrific
p2254
aVblow
p2255
aVbeside
p2256
aVright
p2257
aVhand
p2258
aVformidable
p2259
aVhornhandled
p2260
aVtwoedged
p2261
aVdagger
p2262
aVlay
p2263
aVupon
p2264
aVfloor
p2265
aVnear
p2266
aVblack
p2267
aVkid
p2268
aVglove
p2269
aVgeorge
p2270
aVblack
p2271
aVgorgiano
p2272
aVcried
p2273
aVamerican
p2274
aVdetective
p2275
aVsomeone
p2276
aVgot
p2277
aVahead
p2278
aVus
p2279
aVtime
p2280
aVcandle
p2281
aVwindow
p2282
aVmr
p2283
aVholmes
p2284
aVsaid
p2285
aVgregson
p2286
aVwhatever
p2287
aVholmes
p2288
aVstepped
p2289
aVacross
p2290
aVlit
p2291
aVcandle
p2292
aVpassing
p2293
aVbackward
p2294
aVforward
p2295
aVacross
p2296
aVwindowpanes
p2297
aVpeered
p2298
aVdarkness
p2299
aVblew
p2300
aVcandle
p2301
aVthrew
p2302
aVfloor
p2303
aVrather
p2304
aVthink
p2305
aVhelpful
p2306
aVsaid
p2307
aVcame
p2308
aVstood
p2309
aVdeep
p2310
aVthought
p2311
aVtwo
p2312
aVprofessionals
p2313
aVexamining
p2314
aVbody
p2315
aVsay
p2316
aVthree
p2317
aVpeople
p2318
aVcame
p2319
aVflat
p2320
aVwaiting
p2321
aVdownstairs
p2322
aVsaid
p2323
aVlast
p2324
aVobserve
p2325
aVclosely
p2326
aVyes
p2327
aVfellow
p2328
aVthirty
p2329
aVblackbearded
p2330
aVdark
p2331
aVmiddle
p2332
aVsize
p2333
aVyes
p2334
aVlast
p2335
aVpass
p2336
aVman
p2337
aVfancy
p2338
aVgive
p2339
aVdescription
p2340
aVexcellent
p2341
aVoutline
p2342
aVfootmark
p2343
aVenough
p2344
aVmuch
p2345
aVmr
p2346
aVholmes
p2347
aVamong
p2348
aVmillions
p2349
aVlondon
p2350
aVperhaps
p2351
aVthought
p2352
aVbest
p2353
aVsummon
p2354
aVlady
p2355
aVaid
p2356
aVturned
p2357
aVround
p2358
aVwords
p2359
aVframed
p2360
aVdoorway
p2361
aVtall
p2362
aVbeautiful
p2363
aVwoman
p2364
aVmysterious
p2365
aVlodger
p2366
aVbloomsbury
p2367
aVslowly
p2368
aVadvanced
p2369
aVface
p2370
aVpale
p2371
aVdrawn
p2372
aVfrightful
p2373
aVapprehension
p2374
aVeyes
p2375
aVfixed
p2376
aVstaring
p2377
aVterrified
p2378
aVgaze
p2379
aVriveted
p2380
aVupon
p2381
aVdark
p2382
aVfigure
p2383
aVfloor
p2384
aVkilled
p2385
aVmuttered
p2386
aVoh
p2387
aVdio
p2388
aVmio
p2389
aVkilled
p2390
aVheard
p2391
aVsudden
p2392
aVsharp
p2393
aVintake
p2394
aVbreath
p2395
aVsprang
p2396
aVair
p2397
aVcry
p2398
aVjoy
p2399
aVround
p2400
aVround
p2401
aVroom
p2402
aVdanced
p2403
aVhands
p2404
aVclapping
p2405
aVdark
p2406
aVeyes
p2407
aVgleaming
p2408
aVdelighted
p2409
aVwonder
p2410
aVthousand
p2411
aVpretty
p2412
aVitalian
p2413
aVexclamations
p2414
aVpouring
p2415
aVlips
p2416
aVterrible
p2417
aVamazing
p2418
aVsee
p2419
aVwoman
p2420
aVconvulsed
p2421
aVjoy
p2422
aVsight
p2423
aVsuddenly
p2424
aVstopped
p2425
aVgazed
p2426
aVus
p2427
aVquestioning
p2428
aVstare
p2429
aVpolice
p2430
aVkilled
p2431
aVgiuseppe
p2432
aVgorgiano
p2433
aVpolice
p2434
aVmadam
p2435
aVlooked
p2436
aVround
p2437
aVshadows
p2438
aVroom
p2439
aVgennaro
p2440
aVasked
p2441
aVhusband
p2442
aVgennaro
p2443
aVlucca
p2444
aVemilia
p2445
aVlucca
p2446
aVnew
p2447
aVyork
p2448
aVgennaro
p2449
aVcalled
p2450
aVmoment
p2451
aVwindow
p2452
aVran
p2453
aVspeed
p2454
aVcalled
p2455
aVsaid
p2456
aVholmes
p2457
aVcould
p2458
aVcall
p2459
aVcipher
p2460
aVdifficult
p2461
aVmadam
p2462
aVpresence
p2463
aVdesirable
p2464
aVknew
p2465
aVflash
p2466
aVvieni
p2467
aVwould
p2468
aVsurely
p2469
aVcome
p2470
aVbeautiful
p2471
aVitalian
p2472
aVlooked
p2473
aVawe
p2474
aVcompanion
p2475
aVunderstand
p2476
aVknow
p2477
aVthings
p2478
aVsaid
p2479
aVgiuseppe
p2480
aVgorgiano
p2481
aVpaused
p2482
aVsuddenly
p2483
aVface
p2484
aVlit
p2485
aVpride
p2486
aVdelight
p2487
aVsee
p2488
aVgennaro
p2489
aVsplendid
p2490
aVbeautiful
p2491
aVgennaro
p2492
aVguarded
p2493
aVsafe
p2494
aVharm
p2495
aVstrong
p2496
aVhand
p2497
aVkilled
p2498
aVmonster
p2499
aVoh
p2500
aVgennaro
p2501
aVwonderful
p2502
aVwoman
p2503
aVcould
p2504
aVever
p2505
aVworthy
p2506
aVman
p2507
aVwell
p2508
aVmrs
p2509
aVlucca
p2510
aVsaid
p2511
aVprosaic
p2512
aVgregson
p2513
aVlaying
p2514
aVhand
p2515
aVupon
p2516
aVlady
p2517
aVsleeve
p2518
aVlittle
p2519
aVsentiment
p2520
aVnotting
p2521
aVhill
p2522
aVhooligan
p2523
aVclear
p2524
aVyet
p2525
aVve
p2526
aVsaid
p2527
aVenough
p2528
aVmake
p2529
aVclear
p2530
aVshall
p2531
aVwant
p2532
aVyard
p2533
aVone
p2534
aVmoment
p2535
aVgregson
p2536
aVsaid
p2537
aVholmes
p2538
aVrather
p2539
aVfancy
p2540
aVlady
p2541
aVmay
p2542
aVanxious
p2543
aVgive
p2544
aVus
p2545
aVinformation
p2546
aVget
p2547
aVunderstand
p2548
aVmadam
p2549
aVhusband
p2550
aVarrested
p2551
aVtried
p2552
aVdeath
p2553
aVman
p2554
aVlies
p2555
aVus
p2556
aVsay
p2557
aVmay
p2558
aVused
p2559
aVevidence
p2560
aVthink
p2561
aVacted
p2562
aVmotives
p2563
aVcriminal
p2564
aVwould
p2565
aVwish
p2566
aVknown
p2567
aVserve
p2568
aVbetter
p2569
aVtelling
p2570
aVus
p2571
aVwhole
p2572
aVstory
p2573
aVgorgiano
p2574
aVdead
p2575
aVfear
p2576
aVnothing
p2577
aVsaid
p2578
aVlady
p2579
aVdevil
p2580
aVmonster
p2581
aVjudge
p2582
aVworld
p2583
aVwould
p2584
aVpunish
p2585
aVhusband
p2586
aVkilled
p2587
aVcase
p2588
aVsaid
p2589
aVholmes
p2590
aVsuggestion
p2591
aVlock
p2592
aVdoor
p2593
aVleave
p2594
aVthings
p2595
aVfound
p2596
aVgo
p2597
aVlady
p2598
aVroom
p2599
aVform
p2600
aVopinion
p2601
aVheard
p2602
aVsay
p2603
aVus
p2604
aVhalf
p2605
aVhour
p2606
aVlater
p2607
aVseated
p2608
aVfour
p2609
aVsmall
p2610
aVsittingroom
p2611
aVsignora
p2612
aVlucca
p2613
aVlistening
p2614
aVremarkable
p2615
aVnarrative
p2616
aVsinister
p2617
aVevents
p2618
aVending
p2619
aVchanced
p2620
aVwitness
p2621
aVspoke
p2622
aVrapid
p2623
aVfluent
p2624
aVunconventional
p2625
aVenglish
p2626
aVsake
p2627
aVclearness
p2628
aVmake
p2629
aVgrammatical
p2630
aVborn
p2631
aVposilippo
p2632
aVnear
p2633
aVnaples
p2634
aVsaid
p2635
aVdaughter
p2636
aVaugusto
p2637
aVbarelli
p2638
aVchief
p2639
aVlawyer
p2640
aVdeputy
p2641
aVpart
p2642
aVgennaro
p2643
aVfather
p2644
aVemployment
p2645
aVcame
p2646
aVlove
p2647
aVwoman
p2648
aVmust
p2649
aVneither
p2650
aVmoney
p2651
aVposition
p2652
aVnothing
p2653
aVbeauty
p2654
aVstrength
p2655
aVenergy
p2656
aVfather
p2657
aVforbade
p2658
aVmatch
p2659
aVfled
p2660
aVtogether
p2661
aVmarried
p2662
aVbari
p2663
aVsold
p2664
aVjewels
p2665
aVgain
p2666
aVmoney
p2667
aVwould
p2668
aVtake
p2669
aVus
p2670
aVamerica
p2671
aVfour
p2672
aVyears
p2673
aVago
p2674
aVnew
p2675
aVyork
p2676
aVever
p2677
aVsince
p2678
aVfortune
p2679
aVgood
p2680
aVus
p2681
aVfirst
p2682
aVgennaro
p2683
aVable
p2684
aVservice
p2685
aVitalian
p2686
aVgentleman
p2687
aVsaved
p2688
aVruffians
p2689
aVplace
p2690
aVcalled
p2691
aVbowery
p2692
aVmade
p2693
aVpowerful
p2694
aVfriend
p2695
aVname
p2696
aVtito
p2697
aVcastalotte
p2698
aVsenior
p2699
aVpartner
p2700
aVgreat
p2701
aVfirm
p2702
aVcastalotte
p2703
aVzamba
p2704
aVchief
p2705
aVfruit
p2706
aVimporters
p2707
aVnew
p2708
aVyork
p2709
aVsignor
p2710
aVzamba
p2711
aVinvalid
p2712
aVnew
p2713
aVfriend
p2714
aVcastalotte
p2715
aVpower
p2716
aVwithin
p2717
aVfirm
p2718
aVemploys
p2719
aVthree
p2720
aVhundred
p2721
aVmen
p2722
aVtook
p2723
aVhusband
p2724
aVemployment
p2725
aVmade
p2726
aVhead
p2727
aVdepartment
p2728
aVshowed
p2729
aVgoodwill
p2730
aVtowards
p2731
aVevery
p2732
aVway
p2733
aVsignor
p2734
aVcastalotte
p2735
aVbachelor
p2736
aVbelieve
p2737
aVfelt
p2738
aVgennaro
p2739
aVson
p2740
aVhusband
p2741
aVloved
p2742
aVfather
p2743
aVtaken
p2744
aVfurnished
p2745
aVlittle
p2746
aVhouse
p2747
aVbrooklyn
p2748
aVwhole
p2749
aVfuture
p2750
aVseemed
p2751
aVassured
p2752
aVblack
p2753
aVcloud
p2754
aVappeared
p2755
aVsoon
p2756
aVoverspread
p2757
aVsky
p2758
aVone
p2759
aVnight
p2760
aVgennaro
p2761
aVreturned
p2762
aVwork
p2763
aVbrought
p2764
aVfellowcountryman
p2765
aVback
p2766
aVname
p2767
aVgorgiano
p2768
aVcome
p2769
aValso
p2770
aVposilippo
p2771
aVhuge
p2772
aVman
p2773
aVtestify
p2774
aVlooked
p2775
aVupon
p2776
aVcorpse
p2777
aVbody
p2778
aVgiant
p2779
aVeverything
p2780
aVgrotesque
p2781
aVgigantic
p2782
aVterrifying
p2783
aVvoice
p2784
aVlike
p2785
aVthunder
p2786
aVlittle
p2787
aVhouse
p2788
aVscarce
p2789
aVroom
p2790
aVwhirl
p2791
aVgreat
p2792
aVarms
p2793
aVtalked
p2794
aVthoughts
p2795
aVemotions
p2796
aVpassions
p2797
aVexaggerated
p2798
aVmonstrous
p2799
aVtalked
p2800
aVrather
p2801
aVroared
p2802
aVenergy
p2803
aVothers
p2804
aVcould
p2805
aVsit
p2806
aVlisten
p2807
aVcowed
p2808
aVmighty
p2809
aVstream
p2810
aVwords
p2811
aVeyes
p2812
aVblazed
p2813
aVheld
p2814
aVmercy
p2815
aVterrible
p2816
aVwonderful
p2817
aVman
p2818
aVthank
p2819
aVgod
p2820
aVdead
p2821
aVcame
p2822
aVyet
p2823
aVaware
p2824
aVgennaro
p2825
aVhappy
p2826
aVpresence
p2827
aVpoor
p2828
aVhusband
p2829
aVwould
p2830
aVsit
p2831
aVpale
p2832
aVlistless
p2833
aVlistening
p2834
aVendless
p2835
aVraving
p2836
aVupon
p2837
aVpolitics
p2838
aVupon
p2839
aVsocial
p2840
aVquestions
p2841
aVmade
p2842
aVvisitor
p2843
aVconversation
p2844
aVgennaro
p2845
aVsaid
p2846
aVnothing
p2847
aVknew
p2848
aVwell
p2849
aVcould
p2850
aVread
p2851
aVface
p2852
aVemotion
p2853
aVnever
p2854
aVseen
p2855
aVfirst
p2856
aVthought
p2857
aVdislike
p2858
aVgradually
p2859
aVunderstood
p2860
aVdislike
p2861
aVfear
p2862
aVdeep
p2863
aVsecret
p2864
aVshrinking
p2865
aVfear
p2866
aVnight
p2867
aVnight
p2868
aVread
p2869
aVterror
p2870
aVput
p2871
aVarms
p2872
aVround
p2873
aVimplored
p2874
aVlove
p2875
aVheld
p2876
aVdear
p2877
aVhold
p2878
aVnothing
p2879
aVtell
p2880
aVhuge
p2881
aVman
p2882
aVovershadowed
p2883
aVtold
p2884
aVheart
p2885
aVgrew
p2886
aVcold
p2887
aVice
p2888
aVlistened
p2889
aVpoor
p2890
aVgennaro
p2891
aVwild
p2892
aVfiery
p2893
aVdays
p2894
aVworld
p2895
aVseemed
p2896
aVmind
p2897
aVdriven
p2898
aVhalf
p2899
aVmad
p2900
aVinjustices
p2901
aVlife
p2902
aVjoined
p2903
aVneapolitan
p2904
aVsociety
p2905
aVred
p2906
aVcircle
p2907
aVallied
p2908
aVold
p2909
aVcarbonari
p2910
aVoaths
p2911
aVsecrets
p2912
aVbrotherhood
p2913
aVfrightful
p2914
aVwithin
p2915
aVrule
p2916
aVescape
p2917
aVpossible
p2918
aVfled
p2919
aVamerica
p2920
aVgennaro
p2921
aVthought
p2922
aVcast
p2923
aVforever
p2924
aVhorror
p2925
aVone
p2926
aVevening
p2927
aVmeet
p2928
aVstreets
p2929
aVman
p2930
aVinitiated
p2931
aVnaples
p2932
aVgiant
p2933
aVgorgiano
p2934
aVman
p2935
aVearned
p2936
aVname
p2937
aVdeath
p2938
aVsouth
p2939
aVitaly
p2940
aVred
p2941
aVelbow
p2942
aVmurder
p2943
aVcome
p2944
aVnew
p2945
aVyork
p2946
aVavoid
p2947
aVitalian
p2948
aVpolice
p2949
aValready
p2950
aVplanted
p2951
aVbranch
p2952
aVdreadful
p2953
aVsociety
p2954
aVnew
p2955
aVhome
p2956
aVgennaro
p2957
aVtold
p2958
aVshowed
p2959
aVsummons
p2960
aVreceived
p2961
aVday
p2962
aVred
p2963
aVcircle
p2964
aVdrawn
p2965
aVupon
p2966
aVhead
p2967
aVtelling
p2968
aVlodge
p2969
aVwould
p2970
aVheld
p2971
aVupon
p2972
aVcertain
p2973
aVdate
p2974
aVpresence
p2975
aVrequired
p2976
aVordered
p2977
aVbad
p2978
aVenough
p2979
aVworse
p2980
aVcome
p2981
aVnoticed
p2982
aVtime
p2983
aVgorgiano
p2984
aVcame
p2985
aVus
p2986
aVconstantly
p2987
aVevening
p2988
aVspoke
p2989
aVmuch
p2990
aVeven
p2991
aVwords
p2992
aVhusband
p2993
aVterrible
p2994
aVglaring
p2995
aVwildbeast
p2996
aVeyes
p2997
aValways
p2998
aVturned
p2999
aVupon
p3000
aVone
p3001
aVnight
p3002
aVsecret
p3003
aVcame
p3004
aVawakened
p3005
aVcalled
p3006
aVlove
p3007
aVwithin
p3008
aVlove
p3009
aVbrute
p3010
aVsavage
p3011
aVgennaro
p3012
aVyet
p3013
aVreturned
p3014
aVcame
p3015
aVpushed
p3016
aVway
p3017
aVseized
p3018
aVmighty
p3019
aVarms
p3020
aVhugged
p3021
aVbear
p3022
aVembrace
p3023
aVcovered
p3024
aVkisses
p3025
aVimplored
p3026
aVcome
p3027
aVaway
p3028
aVstruggling
p3029
aVscreaming
p3030
aVgennaro
p3031
aVentered
p3032
aVattacked
p3033
aVstruck
p3034
aVgennaro
p3035
aVsenseless
p3036
aVfled
p3037
aVhouse
p3038
aVnever
p3039
aVenter
p3040
aVdeadly
p3041
aVenemy
p3042
aVmade
p3043
aVnight
p3044
aVdays
p3045
aVlater
p3046
aVcame
p3047
aVmeeting
p3048
aVgennaro
p3049
aVreturned
p3050
aVface
p3051
aVtold
p3052
aVsomething
p3053
aVdreadful
p3054
aVoccurred
p3055
aVworse
p3056
aVcould
p3057
aVimagined
p3058
aVpossible
p3059
aVfunds
p3060
aVsociety
p3061
aVraised
p3062
aVblackmailing
p3063
aVrich
p3064
aVitalians
p3065
aVthreatening
p3066
aVviolence
p3067
aVrefuse
p3068
aVmoney
p3069
aVseems
p3070
aVcastalotte
p3071
aVdear
p3072
aVfriend
p3073
aVbenefactor
p3074
aVapproached
p3075
aVrefused
p3076
aVyield
p3077
aVthreats
p3078
aVhanded
p3079
aVnotices
p3080
aVpolice
p3081
aVresolved
p3082
aVexample
p3083
aVmade
p3084
aVwould
p3085
aVprevent
p3086
aVvictim
p3087
aVrebelling
p3088
aVmeeting
p3089
aVarranged
p3090
aVhouse
p3091
aVblown
p3092
aVdynamite
p3093
aVdrawing
p3094
aVlots
p3095
aVcarry
p3096
aVdeed
p3097
aVgennaro
p3098
aVsaw
p3099
aVenemy
p3100
aVcruel
p3101
aVface
p3102
aVsmiling
p3103
aVdipped
p3104
aVhand
p3105
aVbag
p3106
aVdoubt
p3107
aVprearranged
p3108
aVfashion
p3109
aVfatal
p3110
aVdisc
p3111
aVred
p3112
aVcircle
p3113
aVupon
p3114
aVmandate
p3115
aVmurder
p3116
aVlay
p3117
aVupon
p3118
aVpalm
p3119
aVkill
p3120
aVbest
p3121
aVfriend
p3122
aVexpose
p3123
aVvengeance
p3124
aVcomrades
p3125
aVpart
p3126
aVfiendish
p3127
aVsystem
p3128
aVpunish
p3129
aVfeared
p3130
aVhated
p3131
aVinjuring
p3132
aVpersons
p3133
aVloved
p3134
aVknowledge
p3135
aVhung
p3136
aVterror
p3137
aVpoor
p3138
aVgennaro
p3139
aVhead
p3140
aVdrove
p3141
aVnearly
p3142
aVcrazy
p3143
aVapprehension
p3144
aVnight
p3145
aVsat
p3146
aVtogether
p3147
aVarms
p3148
aVround
p3149
aVstrengthening
p3150
aVtroubles
p3151
aVlay
p3152
aVus
p3153
aVnext
p3154
aVevening
p3155
aVfixed
p3156
aVattempt
p3157
aVmidday
p3158
aVhusband
p3159
aVway
p3160
aVlondon
p3161
aVgiven
p3162
aVbenefactor
p3163
aVfull
p3164
aVwarning
p3165
aVdanger
p3166
aValso
p3167
aVleft
p3168
aVinformation
p3169
aVpolice
p3170
aVwould
p3171
aVsafeguard
p3172
aVlife
p3173
aVfuture
p3174
aVrest
p3175
aVgentlemen
p3176
aVknow
p3177
aVsure
p3178
aVenemies
p3179
aVwould
p3180
aVbehind
p3181
aVus
p3182
aVlike
p3183
aVshadows
p3184
aVgorgiano
p3185
aVprivate
p3186
aVreasons
p3187
aVvengeance
p3188
aVcase
p3189
aVknew
p3190
aVruthless
p3191
aVcunning
p3192
aVuntiring
p3193
aVcould
p3194
aVitaly
p3195
aVamerica
p3196
aVfull
p3197
aVstories
p3198
aVdreadful
p3199
aVpowers
p3200
aVever
p3201
aVexerted
p3202
aVwould
p3203
aVdarling
p3204
aVmade
p3205
aVuse
p3206
aVclear
p3207
aVdays
p3208
aVstart
p3209
aVgiven
p3210
aVus
p3211
aVarranging
p3212
aVrefuge
p3213
aVfashion
p3214
aVpossible
p3215
aVdanger
p3216
aVcould
p3217
aVreach
p3218
aVpart
p3219
aVwished
p3220
aVfree
p3221
aVmight
p3222
aVcommunicate
p3223
aVamerican
p3224
aVitalian
p3225
aVpolice
p3226
aVknow
p3227
aVlived
p3228
aVlearned
p3229
aVcolumns
p3230
aVnewspaper
p3231
aVlooked
p3232
aVwindow
p3233
aVsaw
p3234
aVtwo
p3235
aVitalians
p3236
aVwatching
p3237
aVhouse
p3238
aVunderstood
p3239
aVway
p3240
aVgorgiano
p3241
aVfound
p3242
aVretreat
p3243
aVfinally
p3244
aVgennaro
p3245
aVtold
p3246
aVpaper
p3247
aVwould
p3248
aVsignal
p3249
aVcertain
p3250
aVwindow
p3251
aVsignals
p3252
aVcame
p3253
aVnothing
p3254
aVwarnings
p3255
aVsuddenly
p3256
aVinterrupted
p3257
aVclear
p3258
aVknew
p3259
aVgorgiano
p3260
aVclose
p3261
aVupon
p3262
aVthank
p3263
aVgod
p3264
aVready
p3265
aVcame
p3266
aVgentleman
p3267
aVwould
p3268
aVask
p3269
aVwhether
p3270
aVanything
p3271
aVfear
p3272
aVlaw
p3273
aVwhether
p3274
aVjudge
p3275
aVupon
p3276
aVearth
p3277
aVwould
p3278
aVcondemn
p3279
aVgennaro
p3280
aVdone
p3281
aVwell
p3282
aVmr
p3283
aVgregson
p3284
aVsaid
p3285
aVamerican
p3286
aVlooking
p3287
aVacross
p3288
aVofficial
p3289
aVnt
p3290
aVknow
p3291
aVbritish
p3292
aVpoint
p3293
aVview
p3294
aVmay
p3295
aVguess
p3296
aVnew
p3297
aVyork
p3298
aVlady
p3299
aVhusband
p3300
aVreceive
p3301
aVpretty
p3302
aVgeneral
p3303
aVvote
p3304
aVthanks
p3305
aVcome
p3306
aVsee
p3307
aVchief
p3308
aVgregson
p3309
aVanswered
p3310
aVsays
p3311
aVcorroborated
p3312
aVthink
p3313
aVhusband
p3314
aVmuch
p3315
aVfear
p3316
aVca
p3317
aVnt
p3318
aVmake
p3319
aVhead
p3320
aVtail
p3321
aVmr
p3322
aVholmes
p3323
aVearth
p3324
aVgot
p3325
aVmixed
p3326
aVmatter
p3327
aVeducation
p3328
aVgregson
p3329
aVeducation
p3330
aVstill
p3331
aVseeking
p3332
aVknowledge
p3333
aVold
p3334
aVuniversity
p3335
aVwell
p3336
aVwatson
p3337
aVone
p3338
aVspecimen
p3339
aVtragic
p3340
aVgrotesque
p3341
aVadd
p3342
aVcollection
p3343
aVway
p3344
aVeight
p3345
aVoclock
p3346
aVwagner
p3347
aVnight
p3348
aVcovent
p3349
aVgarden
p3350
aVhurry
p3351
aVmight
p3352
aVtime
p3353
aVsecond
p3354
aVact
p3355
a.