(lp1
Vadventure
p2
aVcardboard
p3
aVbox
p4
aVsir
p5
aVarthur
p6
aVconan
p7
aVdoyle
p8
aVchoosing
p9
aVtypical
p10
aVcases
p11
aVillustrate
p12
aVremarkable
p13
aVmental
p14
aVqualities
p15
aVfriend
p16
aVsherlock
p17
aVholmes
p18
aVendeavoured
p19
aVfar
p20
aVpossible
p21
aVselect
p22
aVpresented
p23
aVminimum
p24
aVsensationalism
p25
aVoffering
p26
aVfair
p27
aVfield
p28
aVtalents
p29
aVhowever
p30
aVunfortunately
p31
aVimpossible
p32
aVentirely
p33
aVseparate
p34
aVsensational
p35
aVcriminal
p36
aVchronicler
p37
aVleft
p38
aVdilemma
p39
aVmust
p40
aVeither
p41
aVsacrifice
p42
aVdetails
p43
aVessential
p44
aVstatement
p45
aVgive
p46
aVfalse
p47
aVimpression
p48
aVproblem
p49
aVmust
p50
aVuse
p51
aVmatter
p52
aVchance
p53
aVchoice
p54
aVprovided
p55
aVshort
p56
aVpreface
p57
aVshall
p58
aVturn
p59
aVnotes
p60
aVproved
p61
aVstrange
p62
aVthough
p63
aVpeculiarly
p64
aVterrible
p65
aVchain
p66
aVevents
p67
aVblazing
p68
aVhot
p69
aVday
p70
aVaugust
p71
aVbaker
p72
aVstreet
p73
aVlike
p74
aVoven
p75
aVglare
p76
aVsunlight
p77
aVupon
p78
aVyellow
p79
aVbrickwork
p80
aVhouse
p81
aVacross
p82
aVroad
p83
aVpainful
p84
aVeye
p85
aVhard
p86
aVbelieve
p87
aVwalls
p88
aVloomed
p89
aVgloomily
p90
aVfogs
p91
aVwinter
p92
aVblinds
p93
aVhalfdrawn
p94
aVholmes
p95
aVlay
p96
aVcurled
p97
aVupon
p98
aVsofa
p99
aVreading
p100
aVrereading
p101
aVletter
p102
aVreceived
p103
aVmorning
p104
aVpost
p105
aVterm
p106
aVservice
p107
aVindia
p108
aVtrained
p109
aVstand
p110
aVheat
p111
aVbetter
p112
aVcold
p113
aVthermometer
p114
aVninety
p115
aVhardship
p116
aVmorning
p117
aVpaper
p118
aVuninteresting
p119
aVparliament
p120
aVrisen
p121
aVeverybody
p122
aVtown
p123
aVyearned
p124
aVglades
p125
aVnew
p126
aVforest
p127
aVshingle
p128
aVsouthsea
p129
aVdepleted
p130
aVbank
p131
aVaccount
p132
aVcaused
p133
aVpostpone
p134
aVholiday
p135
aVcompanion
p136
aVneither
p137
aVcountry
p138
aVsea
p139
aVpresented
p140
aVslightest
p141
aVattraction
p142
aVloved
p143
aVlie
p144
aVcenter
p145
aVfive
p146
aVmillions
p147
aVpeople
p148
aVfilaments
p149
aVstretching
p150
aVrunning
p151
aVresponsive
p152
aVevery
p153
aVlittle
p154
aVrumour
p155
aVsuspicion
p156
aVunsolved
p157
aVcrime
p158
aVappreciation
p159
aVnature
p160
aVfound
p161
aVplace
p162
aVamong
p163
aVmany
p164
aVgifts
p165
aVchange
p166
aVturned
p167
aVmind
p168
aVevildoer
p169
aVtown
p170
aVtrack
p171
aVbrother
p172
aVcountry
p173
aVfinding
p174
aVholmes
p175
aVabsorbed
p176
aVconversation
p177
aVtossed
p178
aVaside
p179
aVbarren
p180
aVpaper
p181
aVleaning
p182
aVback
p183
aVchair
p184
aVfell
p185
aVbrown
p186
aVstudy
p187
aVsuddenly
p188
aVcompanion
p189
aVvoice
p190
aVbroke
p191
aVupon
p192
aVthoughts
p193
aVright
p194
aVwatson
p195
aVsaid
p196
aVseem
p197
aVpreposterous
p198
aVway
p199
aVsettling
p200
aVdispute
p201
aVpreposterous
p202
aVexclaimed
p203
aVsuddenly
p204
aVrealizing
p205
aVechoed
p206
aVinmost
p207
aVthought
p208
aVsoul
p209
aVsat
p210
aVchair
p211
aVstared
p212
aVblank
p213
aVamazement
p214
aVholmes
p215
aVcried
p216
aVbeyond
p217
aVanything
p218
aVcould
p219
aVimagined
p220
aVlaughed
p221
aVheartily
p222
aVperplexity
p223
aVremember
p224
aVsaid
p225
aVlittle
p226
aVtime
p227
aVago
p228
aVread
p229
aVpassage
p230
aVone
p231
aVpoe
p232
aVsketches
p233
aVclose
p234
aVreasoner
p235
aVfollows
p236
aVunspoken
p237
aVthoughts
p238
aVcompanion
p239
aVinclined
p240
aVtreat
p241
aVmatter
p242
aVmere
p243
aVtourdeforce
p244
aVauthor
p245
aVremarking
p246
aVconstantly
p247
aVhabit
p248
aVthing
p249
aVexpressed
p250
aVincredulity
p251
aVoh
p252
aVperhaps
p253
aVtongue
p254
aVdear
p255
aVwatson
p256
aVcertainly
p257
aVeyebrows
p258
aVsaw
p259
aVthrow
p260
aVpaper
p261
aVenter
p262
aVupon
p263
aVtrain
p264
aVthought
p265
aVhappy
p266
aVopportunity
p267
aVreading
p268
aVeventually
p269
aVbreaking
p270
aVproof
p271
aVrapport
p272
aVstill
p273
aVfar
p274
aVsatisfied
p275
aVexample
p276
aVread
p277
aVsaid
p278
aVreasoner
p279
aVdrew
p280
aVconclusions
p281
aVactions
p282
aVman
p283
aVobserved
p284
aVremember
p285
aVright
p286
aVstumbled
p287
aVheap
p288
aVstones
p289
aVlooked
p290
aVstars
p291
aVseated
p292
aVquietly
p293
aVchair
p294
aVclues
p295
aVgiven
p296
aVinjustice
p297
aVfeatures
p298
aVgiven
p299
aVman
p300
aVmeans
p301
aVshall
p302
aVexpress
p303
aVemotions
p304
aVfaithful
p305
aVservants
p306
aVmean
p307
aVsay
p308
aVread
p309
aVtrain
p310
aVthoughts
p311
aVfeatures
p312
aVfeatures
p313
aVespecially
p314
aVeyes
p315
aVperhaps
p316
aVrecall
p317
aVreverie
p318
aVcommenced
p319
aVtell
p320
aVthrowing
p321
aVpaper
p322
aVaction
p323
aVdrew
p324
aVattention
p325
aVsat
p326
aVhalf
p327
aVminute
p328
aVvacant
p329
aVexpression
p330
aVeyes
p331
aVfixed
p332
aVupon
p333
aVnewly
p334
aVframed
p335
aVpicture
p336
aVgeneral
p337
aVgordon
p338
aVsaw
p339
aValteration
p340
aVface
p341
aVtrain
p342
aVthought
p343
aVstarted
p344
aVlead
p345
aVfar
p346
aVeyes
p347
aVflashed
p348
aVacross
p349
aVunframed
p350
aVportrait
p351
aVhenry
p352
aVward
p353
aVbeecher
p354
aVstands
p355
aVupon
p356
aVtop
p357
aVbooks
p358
aVglanced
p359
aVwall
p360
aVcourse
p361
aVmeaning
p362
aVobvious
p363
aVthinking
p364
aVportrait
p365
aVframed
p366
aVwould
p367
aVcover
p368
aVbare
p369
aVspace
p370
aVcorrespond
p371
aVgordon
p372
aVpicture
p373
aVfollowed
p374
aVwonderfully
p375
aVexclaimed
p376
aVfar
p377
aVcould
p378
aVhardly
p379
aVgone
p380
aVastray
p381
aVthoughts
p382
aVwent
p383
aVback
p384
aVbeecher
p385
aVlooked
p386
aVhard
p387
aVacross
p388
aVstudying
p389
aVcharacter
p390
aVfeatures
p391
aVeyes
p392
aVceased
p393
aVpucker
p394
aVcontinued
p395
aVlook
p396
aVacross
p397
aVface
p398
aVthoughtful
p399
aVrecalling
p400
aVincidents
p401
aVbeecher
p402
aVcareer
p403
aVwell
p404
aVaware
p405
aVcould
p406
aVwithout
p407
aVthinking
p408
aVmission
p409
aVundertook
p410
aVbehalf
p411
aVnorth
p412
aVtime
p413
aVcivil
p414
aVwar
p415
aVremember
p416
aVexpressing
p417
aVpassionate
p418
aVindignation
p419
aVway
p420
aVreceived
p421
aVturbulent
p422
aVpeople
p423
aVfelt
p424
aVstrongly
p425
aVknew
p426
aVcould
p427
aVthink
p428
aVbeecher
p429
aVwithout
p430
aVthinking
p431
aValso
p432
aVmoment
p433
aVlater
p434
aVsaw
p435
aVeyes
p436
aVwander
p437
aVaway
p438
aVpicture
p439
aVsuspected
p440
aVmind
p441
aVturned
p442
aVcivil
p443
aVwar
p444
aVobserved
p445
aVlips
p446
aVset
p447
aVeyes
p448
aVsparkled
p449
aVhands
p450
aVclenched
p451
aVpositive
p452
aVindeed
p453
aVthinking
p454
aVgallantry
p455
aVshown
p456
aVsides
p457
aVdesperate
p458
aVstruggle
p459
aVface
p460
aVgrew
p461
aVsadder
p462
aVshook
p463
aVhead
p464
aVdwelling
p465
aVupon
p466
aVsadness
p467
aVhorror
p468
aVuseless
p469
aVwaste
p470
aVlife
p471
aVhand
p472
aVstole
p473
aVtowards
p474
aVold
p475
aVwound
p476
aVsmile
p477
aVquivered
p478
aVlips
p479
aVshowed
p480
aVridiculous
p481
aVside
p482
aVmethod
p483
aVsettling
p484
aVinternational
p485
aVquestions
p486
aVforced
p487
aVupon
p488
aVmind
p489
aVpoint
p490
aVagreed
p491
aVpreposterous
p492
aVglad
p493
aVfind
p494
aVdeductions
p495
aVcorrect
p496
aVabsolutely
p497
aVsaid
p498
aVexplained
p499
aVconfess
p500
aVamazed
p501
aVsuperficial
p502
aVdear
p503
aVwatson
p504
aVassure
p505
aVintruded
p506
aVupon
p507
aVattention
p508
aVshown
p509
aVincredulity
p510
aVday
p511
aVhands
p512
aVlittle
p513
aVproblem
p514
aVmay
p515
aVprove
p516
aVdifficult
p517
aVsolution
p518
aVsmall
p519
aVessay
p520
aVthought
p521
aVreading
p522
aVobserved
p523
aVpaper
p524
aVshort
p525
aVparagraph
p526
aVreferring
p527
aVremarkable
p528
aVcontents
p529
aVpacket
p530
aVsent
p531
aVpost
p532
aVmiss
p533
aVcushing
p534
aVcross
p535
aVstreet
p536
aVcroydon
p537
aVsaw
p538
aVnothing
p539
aVah
p540
aVmust
p541
aVoverlooked
p542
aVtoss
p543
aVfinancial
p544
aVcolumn
p545
aVperhaps
p546
aVwould
p547
aVgood
p548
aVenough
p549
aVread
p550
aValoud
p551
aVpicked
p552
aVpaper
p553
aVthrown
p554
aVback
p555
aVread
p556
aVparagraph
p557
aVindicated
p558
aVheaded
p559
aVgruesome
p560
aVpacket
p561
aVmiss
p562
aVsusan
p563
aVcushing
p564
aVliving
p565
aVcross
p566
aVstreet
p567
aVcroydon
p568
aVmade
p569
aVvictim
p570
aVmust
p571
aVregarded
p572
aVpeculiarly
p573
aVrevolting
p574
aVpractical
p575
aVjoke
p576
aVunless
p577
aVsinister
p578
aVmeaning
p579
aVprove
p580
aVattached
p581
aVincident
p582
aVtwo
p583
aVoclock
p584
aVyesterday
p585
aVafternoon
p586
aVsmall
p587
aVpacket
p588
aVwrapped
p589
aVbrown
p590
aVpaper
p591
aVhanded
p592
aVpostman
p593
aVcardboard
p594
aVbox
p595
aVinside
p596
aVfilled
p597
aVcoarse
p598
aVsalt
p599
aVemptying
p600
aVmiss
p601
aVcushing
p602
aVhorrified
p603
aVfind
p604
aVtwo
p605
aVhuman
p606
aVears
p607
aVapparently
p608
aVquite
p609
aVfreshly
p610
aVsevered
p611
aVbox
p612
aVsent
p613
aVparcel
p614
aVpost
p615
aVbelfast
p616
aVupon
p617
aVmorning
p618
aVindication
p619
aVsender
p620
aVmatter
p621
aVmysterious
p622
aVmiss
p623
aVcushing
p624
aVmaiden
p625
aVlady
p626
aVfifty
p627
aVled
p628
aVretired
p629
aVlife
p630
aVacquaintances
p631
aVcorrespondents
p632
aVrare
p633
aVevent
p634
aVreceive
p635
aVanything
p636
aVpost
p637
aVyears
p638
aVago
p639
aVhowever
p640
aVresided
p641
aVpenge
p642
aVlet
p643
aVapartments
p644
aVhouse
p645
aVthree
p646
aVyoung
p647
aVmedical
p648
aVstudents
p649
aVobliged
p650
aVget
p651
aVrid
p652
aVaccount
p653
aVnoisy
p654
aVirregular
p655
aVhabits
p656
aVpolice
p657
aVopinion
p658
aVoutrage
p659
aVmay
p660
aVperpetrated
p661
aVupon
p662
aVmiss
p663
aVcushing
p664
aVyouths
p665
aVowed
p666
aVgrudge
p667
aVhoped
p668
aVfrighten
p669
aVsending
p670
aVrelics
p671
aVdissectingrooms
p672
aVprobability
p673
aVlent
p674
aVtheory
p675
aVfact
p676
aVone
p677
aVstudents
p678
aVcame
p679
aVnorth
p680
aVireland
p681
aVbest
p682
aVmiss
p683
aVcushing
p684
aVbelief
p685
aVbelfast
p686
aVmeantime
p687
aVmatter
p688
aVactively
p689
aVinvestigated
p690
aVmr
p691
aVlestrade
p692
aVone
p693
aVsmartest
p694
aVdetective
p695
aVofficers
p696
aVcharge
p697
aVcase
p698
aVmuch
p699
aVdaily
p700
aVchronicle
p701
aVsaid
p702
aVholmes
p703
aVfinished
p704
aVreading
p705
aVfriend
p706
aVlestrade
p707
aVnote
p708
aVmorning
p709
aVsays
p710
aVthink
p711
aVcase
p712
aVmuch
p713
aVline
p714
aVevery
p715
aVhope
p716
aVclearing
p717
aVmatter
p718
aVfind
p719
aVlittle
p720
aVdifficulty
p721
aVgetting
p722
aVanything
p723
aVwork
p724
aVupon
p725
aVcourse
p726
aVwired
p727
aVbelfast
p728
aVpostoffice
p729
aVlarge
p730
aVnumber
p731
aVparcels
p732
aVhanded
p733
aVupon
p734
aVday
p735
aVmeans
p736
aVidentifying
p737
aVparticular
p738
aVone
p739
aVremembering
p740
aVsender
p741
aVbox
p742
aVhalfpound
p743
aVbox
p744
aVhoneydew
p745
aVtobacco
p746
aVhelp
p747
aVus
p748
aVway
p749
aVmedical
p750
aVstudent
p751
aVtheory
p752
aVstill
p753
aVappears
p754
aVfeasible
p755
aVhours
p756
aVspare
p757
aVhappy
p758
aVsee
p759
aVshall
p760
aVeither
p761
aVhouse
p762
aVpolicestation
p763
aVday
p764
aVsay
p765
aVwatson
p766
aVrise
p767
aVsuperior
p768
aVheat
p769
aVrun
p770
aVcroydon
p771
aVchance
p772
aVcase
p773
aVannals
p774
aVlonging
p775
aVsomething
p776
aVshall
p777
aVring
p778
aVboots
p779
aVtell
p780
aVorder
p781
aVcab
p782
aVll
p783
aVback
p784
aVmoment
p785
aVchanged
p786
aVdressinggown
p787
aVfilled
p788
aVcigarcase
p789
aVshower
p790
aVrain
p791
aVfell
p792
aVtrain
p793
aVheat
p794
aVfar
p795
aVless
p796
aVoppressive
p797
aVcroydon
p798
aVtown
p799
aVholmes
p800
aVsent
p801
aVwire
p802
aVlestrade
p803
aVwiry
p804
aVdapper
p805
aVferretlike
p806
aVever
p807
aVwaiting
p808
aVus
p809
aVstation
p810
aVwalk
p811
aVfive
p812
aVminutes
p813
aVtook
p814
aVus
p815
aVcross
p816
aVstreet
p817
aVmiss
p818
aVcushing
p819
aVresided
p820
aVlong
p821
aVstreet
p822
aVtwostory
p823
aVbrick
p824
aVhouses
p825
aVneat
p826
aVprim
p827
aVwhitened
p828
aVstone
p829
aVsteps
p830
aVlittle
p831
aVgroups
p832
aVaproned
p833
aVwomen
p834
aVgossiping
p835
aVdoors
p836
aVhalfway
p837
aVlestrade
p838
aVstopped
p839
aVtapped
p840
aVdoor
p841
aVopened
p842
aVsmall
p843
aVservant
p844
aVgirl
p845
aVmiss
p846
aVcushing
p847
aVsitting
p848
aVfront
p849
aVroom
p850
aVushered
p851
aVplacidfaced
p852
aVwoman
p853
aVlarge
p854
aVgentle
p855
aVeyes
p856
aVgrizzled
p857
aVhair
p858
aVcurving
p859
aVtemples
p860
aVside
p861
aVworked
p862
aVantimacassar
p863
aVlay
p864
aVupon
p865
aVlap
p866
aVbasket
p867
aVcoloured
p868
aVsilks
p869
aVstood
p870
aVupon
p871
aVstool
p872
aVbeside
p873
aVouthouse
p874
aVdreadful
p875
aVthings
p876
aVsaid
p877
aVlestrade
p878
aVentered
p879
aVwish
p880
aVwould
p881
aVtake
p882
aVaway
p883
aValtogether
p884
aVshall
p885
aVmiss
p886
aVcushing
p887
aVkept
p888
aVfriend
p889
aVmr
p890
aVholmes
p891
aVseen
p892
aVpresence
p893
aVpresence
p894
aVsir
p895
aVcase
p896
aVwished
p897
aVask
p898
aVquestions
p899
aVuse
p900
aVasking
p901
aVquestions
p902
aVtell
p903
aVknow
p904
aVnothing
p905
aVwhatever
p906
aVquite
p907
aVmadam
p908
aVsaid
p909
aVholmes
p910
aVsoothing
p911
aVway
p912
aVdoubt
p913
aVannoyed
p914
aVenough
p915
aValready
p916
aVbusiness
p917
aVindeed
p918
aVsir
p919
aVquiet
p920
aVwoman
p921
aVlive
p922
aVretired
p923
aVlife
p924
aVsomething
p925
aVnew
p926
aVsee
p927
aVname
p928
aVpapers
p929
aVfind
p930
aVpolice
p931
aVhouse
p932
aVwo
p933
aVnt
p934
aVthings
p935
aVmr
p936
aVlestrade
p937
aVwish
p938
aVsee
p939
aVmust
p940
aVgo
p941
aVouthouse
p942
aVsmall
p943
aVshed
p944
aVnarrow
p945
aVgarden
p946
aVran
p947
aVbehind
p948
aVhouse
p949
aVlestrade
p950
aVwent
p951
aVbrought
p952
aVyellow
p953
aVcardboard
p954
aVbox
p955
aVpiece
p956
aVbrown
p957
aVpaper
p958
aVstring
p959
aVbench
p960
aVend
p961
aVpath
p962
aVsat
p963
aVhomes
p964
aVexamined
p965
aVone
p966
aVone
p967
aVarticles
p968
aVlestrade
p969
aVhanded
p970
aVstring
p971
aVexceedingly
p972
aVinteresting
p973
aVremarked
p974
aVholding
p975
aVlight
p976
aVsniffing
p977
aVmake
p978
aVstring
p979
aVlestrade
p980
aVtarred
p981
aVprecisely
p982
aVpiece
p983
aVtarred
p984
aVtwine
p985
aValso
p986
aVdoubt
p987
aVremarked
p988
aVmiss
p989
aVcushing
p990
aVcut
p991
aVcord
p992
aVscissors
p993
aVseen
p994
aVdouble
p995
aVfray
p996
aVside
p997
aVimportance
p998
aVsee
p999
aVimportance
p1000
aVsaid
p1001
aVlestrade
p1002
aVimportance
p1003
aVlies
p1004
aVfact
p1005
aVknot
p1006
aVleft
p1007
aVintact
p1008
aVknot
p1009
aVpeculiar
p1010
aVcharacter
p1011
aVneatly
p1012
aVtied
p1013
aValready
p1014
aVmade
p1015
aVnote
p1016
aVeffect
p1017
aVsaid
p1018
aVlestrade
p1019
aVcomplacently
p1020
aVmuch
p1021
aVstring
p1022
aVsaid
p1023
aVholmes
p1024
aVsmiling
p1025
aVbox
p1026
aVwrapper
p1027
aVbrown
p1028
aVpaper
p1029
aVdistinct
p1030
aVsmell
p1031
aVcoffee
p1032
aVobserve
p1033
aVthink
p1034
aVdoubt
p1035
aVaddress
p1036
aVprinted
p1037
aVrather
p1038
aVstraggling
p1039
aVcharacters
p1040
aVmiss
p1041
aVcushing
p1042
aVcross
p1043
aVstreet
p1044
aVcroydon
p1045
aVdone
p1046
aVbroadpointed
p1047
aVpen
p1048
aVprobably
p1049
aVj
aVinferior
p1050
aVink
p1051
aVword
p1052
aVcroydon
p1053
aVoriginally
p1054
aVspelled
p1055
aVchanged
p1056
aVy
aVparcel
p1057
aVdirected
p1058
aVman
p1059
aVprinting
p1060
aVdistinctly
p1061
aVmasculine
p1062
aVlimited
p1063
aVeducation
p1064
aVunacquainted
p1065
aVtown
p1066
aVcroydon
p1067
aVfar
p1068
aVgood
p1069
aVbox
p1070
aVyellow
p1071
aVhalfpound
p1072
aVhoneydew
p1073
aVbox
p1074
aVnothing
p1075
aVdistinctive
p1076
aVsave
p1077
aVtwo
p1078
aVthumb
p1079
aVmarks
p1080
aVleft
p1081
aVbottom
p1082
aVcorner
p1083
aVfilled
p1084
aVrough
p1085
aVsalt
p1086
aVquality
p1087
aVused
p1088
aVpreserving
p1089
aVhides
p1090
aVcoarser
p1091
aVcommercial
p1092
aVpurposes
p1093
aVembedded
p1094
aVsingular
p1095
aVenclosures
p1096
aVtook
p1097
aVtwo
p1098
aVears
p1099
aVspoke
p1100
aVlaying
p1101
aVboard
p1102
aVacross
p1103
aVknee
p1104
aVexamined
p1105
aVminutely
p1106
aVlestrade
p1107
aVbending
p1108
aVforward
p1109
aVside
p1110
aVglanced
p1111
aValternately
p1112
aVdreadful
p1113
aVrelics
p1114
aVthoughtful
p1115
aVeager
p1116
aVface
p1117
aVcompanion
p1118
aVfinally
p1119
aVreturned
p1120
aVbox
p1121
aVsat
p1122
aVdeep
p1123
aVmeditation
p1124
aVobserved
p1125
aVcourse
p1126
aVsaid
p1127
aVlast
p1128
aVears
p1129
aVpair
p1130
aVyes
p1131
aVnoticed
p1132
aVpractical
p1133
aVjoke
p1134
aVstudents
p1135
aVdissectingrooms
p1136
aVwould
p1137
aVeasy
p1138
aVsend
p1139
aVtwo
p1140
aVodd
p1141
aVears
p1142
aVpair
p1143
aVprecisely
p1144
aVpractical
p1145
aVjoke
p1146
aVsure
p1147
aVpresumption
p1148
aVstrongly
p1149
aVbodies
p1150
aVdissectingrooms
p1151
aVinjected
p1152
aVpreservative
p1153
aVfluid
p1154
aVears
p1155
aVbear
p1156
aVsigns
p1157
aVfresh
p1158
aVcut
p1159
aVblunt
p1160
aVinstrument
p1161
aVwould
p1162
aVhardly
p1163
aVhappen
p1164
aVstudent
p1165
aVdone
p1166
aVcarbolic
p1167
aVrectified
p1168
aVspirits
p1169
aVwould
p1170
aVpreservatives
p1171
aVwould
p1172
aVsuggest
p1173
aVmedical
p1174
aVmind
p1175
aVcertainly
p1176
aVrough
p1177
aVsalt
p1178
aVrepeat
p1179
aVpractical
p1180
aVjoke
p1181
aVinvestigating
p1182
aVserious
p1183
aVcrime
p1184
aVvague
p1185
aVthrill
p1186
aVran
p1187
aVlistened
p1188
aVcompanion
p1189
aVwords
p1190
aVsaw
p1191
aVstern
p1192
aVgravity
p1193
aVhardened
p1194
aVfeatures
p1195
aVbrutal
p1196
aVpreliminary
p1197
aVseemed
p1198
aVshadow
p1199
aVforth
p1200
aVstrange
p1201
aVinexplicable
p1202
aVhorror
p1203
aVbackground
p1204
aVlestrade
p1205
aVhowever
p1206
aVshook
p1207
aVhead
p1208
aVlike
p1209
aVman
p1210
aVhalf
p1211
aVconvinced
p1212
aVobjections
p1213
aVjoke
p1214
aVtheory
p1215
aVdoubt
p1216
aVsaid
p1217
aVmuch
p1218
aVstronger
p1219
aVreasons
p1220
aVknow
p1221
aVwoman
p1222
aVled
p1223
aVquiet
p1224
aVrespectable
p1225
aVlife
p1226
aVpenge
p1227
aVlast
p1228
aVtwenty
p1229
aVyears
p1230
aVhardly
p1231
aVaway
p1232
aVhome
p1233
aVday
p1234
aVtime
p1235
aVearth
p1236
aVcriminal
p1237
aVsend
p1238
aVproofs
p1239
aVguilt
p1240
aVespecially
p1241
aVunless
p1242
aVconsummate
p1243
aVactress
p1244
aVunderstands
p1245
aVquite
p1246
aVlittle
p1247
aVmatter
p1248
aVproblem
p1249
aVsolve
p1250
aVholmes
p1251
aVanswered
p1252
aVpart
p1253
aVshall
p1254
aVset
p1255
aVpresuming
p1256
aVreasoning
p1257
aVcorrect
p1258
aVdouble
p1259
aVmurder
p1260
aVcommitted
p1261
aVone
p1262
aVears
p1263
aVwoman
p1264
aVsmall
p1265
aVfinely
p1266
aVformed
p1267
aVpierced
p1268
aVearring
p1269
aVman
p1270
aVsunburned
p1271
aVdiscoloured
p1272
aValso
p1273
aVpierced
p1274
aVearring
p1275
aVtwo
p1276
aVpeople
p1277
aVpresumably
p1278
aVdead
p1279
aVheard
p1280
aVstory
p1281
aVtoday
p1282
aVfriday
p1283
aVpacket
p1284
aVposted
p1285
aVthursday
p1286
aVmorning
p1287
aVtragedy
p1288
aVoccurred
p1289
aVwednesday
p1290
aVtuesday
p1291
aVearlier
p1292
aVtwo
p1293
aVpeople
p1294
aVmurdered
p1295
aVmurderer
p1296
aVwould
p1297
aVsent
p1298
aVsign
p1299
aVwork
p1300
aVmiss
p1301
aVcushing
p1302
aVmay
p1303
aVtake
p1304
aVsender
p1305
aVpacket
p1306
aVman
p1307
aVwant
p1308
aVmust
p1309
aVstrong
p1310
aVreason
p1311
aVsending
p1312
aVmiss
p1313
aVcushing
p1314
aVpacket
p1315
aVreason
p1316
aVmust
p1317
aVtell
p1318
aVdeed
p1319
aVdone
p1320
aVpain
p1321
aVperhaps
p1322
aVcase
p1323
aVknows
p1324
aVknow
p1325
aVdoubt
p1326
aVknew
p1327
aVcall
p1328
aVpolice
p1329
aVmight
p1330
aVburied
p1331
aVears
p1332
aVone
p1333
aVwould
p1334
aVwiser
p1335
aVwould
p1336
aVdone
p1337
aVwished
p1338
aVshield
p1339
aVcriminal
p1340
aVwish
p1341
aVshield
p1342
aVwould
p1343
aVgive
p1344
aVname
p1345
aVtangle
p1346
aVneeds
p1347
aVstraightening
p1348
aVtalking
p1349
aVhigh
p1350
aVquick
p1351
aVvoice
p1352
aVstaring
p1353
aVblankly
p1354
aVgarden
p1355
aVfence
p1356
aVsprang
p1357
aVbriskly
p1358
aVfeet
p1359
aVwalked
p1360
aVtowards
p1361
aVhouse
p1362
aVquestions
p1363
aVask
p1364
aVmiss
p1365
aVcushing
p1366
aVsaid
p1367
aVcase
p1368
aVmay
p1369
aVleave
p1370
aVsaid
p1371
aVlestrade
p1372
aVanother
p1373
aVsmall
p1374
aVbusiness
p1375
aVhand
p1376
aVthink
p1377
aVnothing
p1378
aVlearn
p1379
aVmiss
p1380
aVcushing
p1381
aVfind
p1382
aVpolicestation
p1383
aVshall
p1384
aVlook
p1385
aVway
p1386
aVtrain
p1387
aVanswered
p1388
aVholmes
p1389
aVmoment
p1390
aVlater
p1391
aVback
p1392
aVfront
p1393
aVroom
p1394
aVimpassive
p1395
aVlady
p1396
aVstill
p1397
aVquietly
p1398
aVworking
p1399
aVaway
p1400
aVantimacassar
p1401
aVput
p1402
aVlap
p1403
aVentered
p1404
aVlooked
p1405
aVus
p1406
aVfrank
p1407
aVsearching
p1408
aVblue
p1409
aVeyes
p1410
aVconvinced
p1411
aVsir
p1412
aVsaid
p1413
aVmatter
p1414
aVmistake
p1415
aVparcel
p1416
aVnever
p1417
aVmeant
p1418
aVsaid
p1419
aVseveral
p1420
aVtimes
p1421
aVgentlemen
p1422
aVscotland
p1423
aVyard
p1424
aVsimply
p1425
aVlaughs
p1426
aVenemy
p1427
aVworld
p1428
aVfar
p1429
aVknow
p1430
aVanyone
p1431
aVplay
p1432
aVtrick
p1433
aVcoming
p1434
aVopinion
p1435
aVmiss
p1436
aVcushing
p1437
aVsaid
p1438
aVholmes
p1439
aVtaking
p1440
aVseat
p1441
aVbeside
p1442
aVthink
p1443
aVprobable
p1444
aVpaused
p1445
aVsurprised
p1446
aVglancing
p1447
aVround
p1448
aVsee
p1449
aVstaring
p1450
aVsingular
p1451
aVintentness
p1452
aVlady
p1453
aVprofile
p1454
aVsurprise
p1455
aVsatisfaction
p1456
aVinstant
p1457
aVread
p1458
aVupon
p1459
aVeager
p1460
aVface
p1461
aVthough
p1462
aVglanced
p1463
aVround
p1464
aVfind
p1465
aVcause
p1466
aVsilence
p1467
aVbecome
p1468
aVdemure
p1469
aVever
p1470
aVstared
p1471
aVhard
p1472
aVflat
p1473
aVgrizzled
p1474
aVhair
p1475
aVtrim
p1476
aVcap
p1477
aVlittle
p1478
aVgilt
p1479
aVearrings
p1480
aVplacid
p1481
aVfeatures
p1482
aVcould
p1483
aVsee
p1484
aVnothing
p1485
aVcould
p1486
aVaccount
p1487
aVcompanion
p1488
aVevident
p1489
aVexcitement
p1490
aVone
p1491
aVtwo
p1492
aVquestions
p1493
aVoh
p1494
aVweary
p1495
aVquestions
p1496
aVcried
p1497
aVmiss
p1498
aVcushing
p1499
aVimpatiently
p1500
aVtwo
p1501
aVsisters
p1502
aVbelieve
p1503
aVcould
p1504
aVknow
p1505
aVobserved
p1506
aVinstant
p1507
aVentered
p1508
aVroom
p1509
aVportrait
p1510
aVgroup
p1511
aVthree
p1512
aVladies
p1513
aVupon
p1514
aVmantelpiece
p1515
aVone
p1516
aVundoubtedly
p1517
aVothers
p1518
aVexceedingly
p1519
aVlike
p1520
aVcould
p1521
aVdoubt
p1522
aVrelationship
p1523
aVyes
p1524
aVquite
p1525
aVright
p1526
aVsisters
p1527
aVsarah
p1528
aVmary
p1529
aVelbow
p1530
aVanother
p1531
aVportrait
p1532
aVtaken
p1533
aVliverpool
p1534
aVyounger
p1535
aVsister
p1536
aVcompany
p1537
aVman
p1538
aVappears
p1539
aVsteward
p1540
aVuniform
p1541
aVobserve
p1542
aVunmarried
p1543
aVtime
p1544
aVquick
p1545
aVobserving
p1546
aVtrade
p1547
aVwell
p1548
aVquite
p1549
aVright
p1550
aVmarried
p1551
aVmr
p1552
aVbrowner
p1553
aVdays
p1554
aVafterwards
p1555
aVsouth
p1556
aVamerican
p1557
aVline
p1558
aVtaken
p1559
aVfond
p1560
aVcould
p1561
aVnt
p1562
aVabide
p1563
aVleave
p1564
aVlong
p1565
aVgot
p1566
aVliverpool
p1567
aVlondon
p1568
aVboats
p1569
aVah
p1570
aVconqueror
p1571
aVperhaps
p1572
aVmay
p1573
aVday
p1574
aVlast
p1575
aVheard
p1576
aVjim
p1577
aVcame
p1578
aVsee
p1579
aVbroke
p1580
aVpledge
p1581
aVafterwards
p1582
aVwould
p1583
aValways
p1584
aVtake
p1585
aVdrink
p1586
aVashore
p1587
aVlittle
p1588
aVdrink
p1589
aVwould
p1590
aVsend
p1591
aVstark
p1592
aVstaring
p1593
aVmad
p1594
aVah
p1595
aVbad
p1596
aVday
p1597
aVever
p1598
aVtook
p1599
aVglass
p1600
aVhand
p1601
aVfirst
p1602
aVdropped
p1603
aVquarrelled
p1604
aVsarah
p1605
aVmary
p1606
aVstopped
p1607
aVwriting
p1608
aVnt
p1609
aVknow
p1610
aVthings
p1611
aVgoing
p1612
aVevident
p1613
aVmiss
p1614
aVcushing
p1615
aVcome
p1616
aVupon
p1617
aVsubject
p1618
aVfelt
p1619
aVdeeply
p1620
aVlike
p1621
aVpeople
p1622
aVlead
p1623
aVlonely
p1624
aVlife
p1625
aVshy
p1626
aVfirst
p1627
aVended
p1628
aVbecoming
p1629
aVextremely
p1630
aVcommunicative
p1631
aVtold
p1632
aVus
p1633
aVmany
p1634
aVdetails
p1635
aVbrotherinlaw
p1636
aVsteward
p1637
aVwandering
p1638
aVsubject
p1639
aVformer
p1640
aVlodgers
p1641
aVmedical
p1642
aVstudents
p1643
aVgave
p1644
aVus
p1645
aVlong
p1646
aVaccount
p1647
aVdelinquencies
p1648
aVnames
p1649
aVhospitals
p1650
aVholmes
p1651
aVlistened
p1652
aVattentively
p1653
aVeverything
p1654
aVthrowing
p1655
aVquestion
p1656
aVtime
p1657
aVtime
p1658
aVsecond
p1659
aVsister
p1660
aVsarah
p1661
aVsaid
p1662
aVwonder
p1663
aVsince
p1664
aVmaiden
p1665
aVladies
p1666
aVkeep
p1667
aVhouse
p1668
aVtogether
p1669
aVah
p1670
aVnt
p1671
aVknow
p1672
aVsarah
p1673
aVtemper
p1674
aVwould
p1675
aVwonder
p1676
aVtried
p1677
aVcame
p1678
aVcroydon
p1679
aVkept
p1680
aVtwo
p1681
aVmonths
p1682
aVago
p1683
aVpart
p1684
aVnt
p1685
aVwant
p1686
aVsay
p1687
aVword
p1688
aVsister
p1689
aValways
p1690
aVmeddlesome
p1691
aVhard
p1692
aVplease
p1693
aVsarah
p1694
aVsay
p1695
aVquarrelled
p1696
aVliverpool
p1697
aVrelations
p1698
aVyes
p1699
aVbest
p1700
aVfriends
p1701
aVone
p1702
aVtime
p1703
aVwent
p1704
aVlive
p1705
aVorder
p1706
aVnear
p1707
aVword
p1708
aVhard
p1709
aVenough
p1710
aVjim
p1711
aVbrowner
p1712
aVlast
p1713
aVsix
p1714
aVmonths
p1715
aVwould
p1716
aVspeak
p1717
aVnothing
p1718
aVdrinking
p1719
aVways
p1720
aVcaught
p1721
aVmeddling
p1722
aVsuspect
p1723
aVgiven
p1724
aVbit
p1725
aVmind
p1726
aVstart
p1727
aVthank
p1728
aVmiss
p1729
aVcushing
p1730
aVsaid
p1731
aVholmes
p1732
aVrising
p1733
aVbowing
p1734
aVsister
p1735
aVsarah
p1736
aVlives
p1737
aVthink
p1738
aVsaid
p1739
aVnew
p1740
aVstreet
p1741
aVwallington
p1742
aVgoodbye
p1743
aVsorry
p1744
aVtroubled
p1745
aVcase
p1746
aVsay
p1747
aVnothing
p1748
aVwhatever
p1749
aVcab
p1750
aVpassing
p1751
aVcame
p1752
aVholmes
p1753
aVhailed
p1754
aVfar
p1755
aVwallington
p1756
aVasked
p1757
aVmile
p1758
aVsir
p1759
aVgood
p1760
aVjump
p1761
aVwatson
p1762
aVmust
p1763
aVstrike
p1764
aViron
p1765
aVhot
p1766
aVsimple
p1767
aVcase
p1768
aVone
p1769
aVtwo
p1770
aVinstructive
p1771
aVdetails
p1772
aVconnection
p1773
aVpull
p1774
aVtelegraph
p1775
aVoffice
p1776
aVpass
p1777
aVcabby
p1778
aVholmes
p1779
aVsent
p1780
aVshort
p1781
aVwire
p1782
aVrest
p1783
aVdrive
p1784
aVlay
p1785
aVback
p1786
aVcab
p1787
aVhat
p1788
aVtilted
p1789
aVnose
p1790
aVkeep
p1791
aVsun
p1792
aVface
p1793
aVdrive
p1794
aVpulled
p1795
aVhouse
p1796
aVunlike
p1797
aVone
p1798
aVquitted
p1799
aVcompanion
p1800
aVordered
p1801
aVwait
p1802
aVhand
p1803
aVupon
p1804
aVknocker
p1805
aVdoor
p1806
aVopened
p1807
aVgrave
p1808
aVyoung
p1809
aVgentleman
p1810
aVblack
p1811
aVshiny
p1812
aVhat
p1813
aVappeared
p1814
aVstep
p1815
aVmiss
p1816
aVcushing
p1817
aVhome
p1818
aVasked
p1819
aVholmes
p1820
aVmiss
p1821
aVsarah
p1822
aVcushing
p1823
aVextremely
p1824
aVill
p1825
aVsaid
p1826
aVsuffering
p1827
aVsince
p1828
aVyesterday
p1829
aVbrain
p1830
aVsymptoms
p1831
aVgreat
p1832
aVseverity
p1833
aVmedical
p1834
aVadviser
p1835
aVpossibly
p1836
aVtake
p1837
aVresponsibility
p1838
aVallowing
p1839
aVanyone
p1840
aVsee
p1841
aVrecommend
p1842
aVcall
p1843
aVten
p1844
aVdays
p1845
aVdrew
p1846
aVgloves
p1847
aVclosed
p1848
aVdoor
p1849
aVmarched
p1850
aVstreet
p1851
aVwell
p1852
aVca
p1853
aVnt
p1854
aVca
p1855
aVnt
p1856
aVsaid
p1857
aVholmes
p1858
aVcheerfully
p1859
aVperhaps
p1860
aVcould
p1861
aVwould
p1862
aVtold
p1863
aVmuch
p1864
aVwish
p1865
aVtell
p1866
aVanything
p1867
aVwanted
p1868
aVlook
p1869
aVhowever
p1870
aVthink
p1871
aVgot
p1872
aVwant
p1873
aVdrive
p1874
aVus
p1875
aVdecent
p1876
aVhotel
p1877
aVcabby
p1878
aVmay
p1879
aVlunch
p1880
aVafterwards
p1881
aVshall
p1882
aVdrop
p1883
aVupon
p1884
aVfriend
p1885
aVlestrade
p1886
aVpolicestation
p1887
aVpleasant
p1888
aVlittle
p1889
aVmeal
p1890
aVtogether
p1891
aVholmes
p1892
aVwould
p1893
aVtalk
p1894
aVnothing
p1895
aVviolins
p1896
aVnarrating
p1897
aVgreat
p1898
aVexultation
p1899
aVpurchased
p1900
aVstradivarius
p1901
aVworth
p1902
aVleast
p1903
aVfive
p1904
aVhundred
p1905
aVguineas
p1906
aVjew
p1907
aVbroker
p1908
aVtottenham
p1909
aVcourt
p1910
aVroad
p1911
aVfiftyfive
p1912
aVshillings
p1913
aVled
p1914
aVpaganini
p1915
aVsat
p1916
aVhour
p1917
aVbottle
p1918
aVclaret
p1919
aVtold
p1920
aVanecdote
p1921
aVanecdote
p1922
aVextraordinary
p1923
aVman
p1924
aVafternoon
p1925
aVfar
p1926
aVadvanced
p1927
aVhot
p1928
aVglare
p1929
aVsoftened
p1930
aVmellow
p1931
aVglow
p1932
aVfound
p1933
aVpolicestation
p1934
aVlestrade
p1935
aVwaiting
p1936
aVus
p1937
aVdoor
p1938
aVtelegram
p1939
aVmr
p1940
aVholmes
p1941
aVsaid
p1942
aVha
p1943
aVanswer
p1944
aVtore
p1945
aVopen
p1946
aVglanced
p1947
aVeyes
p1948
aVcrumpled
p1949
aVpocket
p1950
aVright
p1951
aVsaid
p1952
aVfound
p1953
aVanything
p1954
aVfound
p1955
aVeverything
p1956
aVlestrade
p1957
aVstared
p1958
aVamazement
p1959
aVjoking
p1960
aVnever
p1961
aVserious
p1962
aVlife
p1963
aVshocking
p1964
aVcrime
p1965
aVcommitted
p1966
aVthink
p1967
aVlaid
p1968
aVbare
p1969
aVevery
p1970
aVdetail
p1971
aVcriminal
p1972
aVholmes
p1973
aVscribbled
p1974
aVwords
p1975
aVupon
p1976
aVback
p1977
aVone
p1978
aVvisiting
p1979
aVcards
p1980
aVthrew
p1981
aVlestrade
p1982
aVname
p1983
aVsaid
p1984
aVeffect
p1985
aVarrest
p1986
aVtomorrow
p1987
aVnight
p1988
aVearliest
p1989
aVprefer
p1990
aVmention
p1991
aVname
p1992
aVconnection
p1993
aVcase
p1994
aVchoose
p1995
aVassociated
p1996
aVcrimes
p1997
aVpresent
p1998
aVdifficulty
p1999
aVsolution
p2000
aVcome
p2001
aVwatson
p2002
aVstrode
p2003
aVtogether
p2004
aVstation
p2005
aVleaving
p2006
aVlestrade
p2007
aVstill
p2008
aVstaring
p2009
aVdelighted
p2010
aVface
p2011
aVcard
p2012
aVholmes
p2013
aVthrown
p2014
aVcase
p2015
aVsaid
p2016
aVsherlock
p2017
aVholmes
p2018
aVchatted
p2019
aVcigars
p2020
aVnight
p2021
aVrooms
p2022
aVbaker
p2023
aVstreet
p2024
aVone
p2025
aVinvestigations
p2026
aVchronicled
p2027
aVnames
p2028
aVstudy
p2029
aVscarlet
p2030
aVsign
p2031
aVfour
p2032
aVcompelled
p2033
aVreason
p2034
aVbackward
p2035
aVeffects
p2036
aVcauses
p2037
aVwritten
p2038
aVlestrade
p2039
aVasking
p2040
aVsupply
p2041
aVus
p2042
aVdetails
p2043
aVwanting
p2044
aVget
p2045
aVsecured
p2046
aVman
p2047
aVmay
p2048
aVsafely
p2049
aVtrusted
p2050
aValthough
p2051
aVabsolutely
p2052
aVdevoid
p2053
aVreason
p2054
aVtenacious
p2055
aVbulldog
p2056
aVunderstands
p2057
aVindeed
p2058
aVtenacity
p2059
aVbrought
p2060
aVtop
p2061
aVscotland
p2062
aVyard
p2063
aVcase
p2064
aVcomplete
p2065
aVasked
p2066
aVfairly
p2067
aVcomplete
p2068
aVessentials
p2069
aVknow
p2070
aVauthor
p2071
aVrevolting
p2072
aVbusiness
p2073
aValthough
p2074
aVone
p2075
aVvictims
p2076
aVstill
p2077
aVescapes
p2078
aVus
p2079
aVcourse
p2080
aVformed
p2081
aVconclusions
p2082
aVpresume
p2083
aVjim
p2084
aVbrowner
p2085
aVsteward
p2086
aVliverpool
p2087
aVboat
p2088
aVman
p2089
aVsuspect
p2090
aVoh
p2091
aVsuspicion
p2092
aVyet
p2093
aVsee
p2094
aVanything
p2095
aVsave
p2096
aVvague
p2097
aVindications
p2098
aVcontrary
p2099
aVmind
p2100
aVnothing
p2101
aVcould
p2102
aVclear
p2103
aVlet
p2104
aVrun
p2105
aVprincipal
p2106
aVsteps
p2107
aVapproached
p2108
aVcase
p2109
aVremember
p2110
aVabsolutely
p2111
aVblank
p2112
aVmind
p2113
aValways
p2114
aVadvantage
p2115
aVformed
p2116
aVtheories
p2117
aVsimply
p2118
aVobserve
p2119
aVdraw
p2120
aVinferences
p2121
aVobservations
p2122
aVsee
p2123
aVfirst
p2124
aVplacid
p2125
aVrespectable
p2126
aVlady
p2127
aVseemed
p2128
aVquite
p2129
aVinnocent
p2130
aVsecret
p2131
aVportrait
p2132
aVshowed
p2133
aVtwo
p2134
aVyounger
p2135
aVsisters
p2136
aVinstantly
p2137
aVflashed
p2138
aVacross
p2139
aVmind
p2140
aVbox
p2141
aVmight
p2142
aVmeant
p2143
aVone
p2144
aVset
p2145
aVidea
p2146
aVaside
p2147
aVone
p2148
aVcould
p2149
aVdisproved
p2150
aVconfirmed
p2151
aVleisure
p2152
aVwent
p2153
aVgarden
p2154
aVremember
p2155
aVsaw
p2156
aVsingular
p2157
aVcontents
p2158
aVlittle
p2159
aVyellow
p2160
aVbox
p2161
aVstring
p2162
aVquality
p2163
aVused
p2164
aVsailmakers
p2165
aVaboard
p2166
aVship
p2167
aVwhiff
p2168
aVsea
p2169
aVperceptible
p2170
aVinvestigation
p2171
aVobserved
p2172
aVknot
p2173
aVone
p2174
aVpopular
p2175
aVsailors
p2176
aVparcel
p2177
aVposted
p2178
aVport
p2179
aVmale
p2180
aVear
p2181
aVpierced
p2182
aVearring
p2183
aVmuch
p2184
aVcommon
p2185
aVamong
p2186
aVsailors
p2187
aVlandsmen
p2188
aVquite
p2189
aVcertain
p2190
aVactors
p2191
aVtragedy
p2192
aVfound
p2193
aVamong
p2194
aVseafaring
p2195
aVclasses
p2196
aVcame
p2197
aVexamine
p2198
aVaddress
p2199
aVpacket
p2200
aVobserved
p2201
aVmiss
p2202
aVcushing
p2203
aVoldest
p2204
aVsister
p2205
aVwould
p2206
aVcourse
p2207
aVmiss
p2208
aVcushing
p2209
aValthough
p2210
aVinitial
p2211
aVmight
p2212
aVbelong
p2213
aVone
p2214
aVothers
p2215
aVwell
p2216
aVcase
p2217
aVcommence
p2218
aVinvestigation
p2219
aVfresh
p2220
aVbasis
p2221
aValtogether
p2222
aVtherefore
p2223
aVwent
p2224
aVhouse
p2225
aVintention
p2226
aVclearing
p2227
aVpoint
p2228
aVassure
p2229
aVmiss
p2230
aVcushing
p2231
aVconvinced
p2232
aVmistake
p2233
aVmade
p2234
aVmay
p2235
aVremember
p2236
aVcame
p2237
aVsuddenly
p2238
aVstop
p2239
aVfact
p2240
aVseen
p2241
aVsomething
p2242
aVfilled
p2243
aVsurprise
p2244
aVtime
p2245
aVnarrowed
p2246
aVfield
p2247
aVinquiry
p2248
aVimmensely
p2249
aVmedical
p2250
aVman
p2251
aVaware
p2252
aVwatson
p2253
aVpart
p2254
aVbody
p2255
aVvaries
p2256
aVmuch
p2257
aVhuman
p2258
aVear
p2259
aVear
p2260
aVrule
p2261
aVquite
p2262
aVdistinctive
p2263
aVdiffers
p2264
aVones
p2265
aVlast
p2266
aVyear
p2267
aVanthropological
p2268
aVjournal
p2269
aVfind
p2270
aVtwo
p2271
aVshort
p2272
aVmonographs
p2273
aVpen
p2274
aVupon
p2275
aVsubject
p2276
aVtherefore
p2277
aVexamined
p2278
aVears
p2279
aVbox
p2280
aVeyes
p2281
aVexpert
p2282
aVcarefully
p2283
aVnoted
p2284
aVanatomical
p2285
aVpeculiarities
p2286
aVimagine
p2287
aVsurprise
p2288
aVlooking
p2289
aVmiss
p2290
aVcushing
p2291
aVperceived
p2292
aVear
p2293
aVcorresponded
p2294
aVexactly
p2295
aVfemale
p2296
aVear
p2297
aVinspected
p2298
aVmatter
p2299
aVentirely
p2300
aVbeyond
p2301
aVcoincidence
p2302
aVshortening
p2303
aVpinna
p2304
aVbroad
p2305
aVcurve
p2306
aVupper
p2307
aVlobe
p2308
aVconvolution
p2309
aVinner
p2310
aVcartilage
p2311
aVessentials
p2312
aVear
p2313
aVfirst
p2314
aVplace
p2315
aVsister
p2316
aVname
p2317
aVsarah
p2318
aVaddress
p2319
aVrecently
p2320
aVquite
p2321
aVobvious
p2322
aVmistake
p2323
aVoccurred
p2324
aVpacket
p2325
aVmeant
p2326
aVheard
p2327
aVsteward
p2328
aVmarried
p2329
aVthird
p2330
aVsister
p2331
aVlearned
p2332
aVone
p2333
aVtime
p2334
aVintimate
p2335
aVmiss
p2336
aVsarah
p2337
aVactually
p2338
aVgone
p2339
aVliverpool
p2340
aVnear
p2341
aVbrowners
p2342
aVquarrel
p2343
aVafterwards
p2344
aVdivided
p2345
aVquarrel
p2346
aVput
p2347
aVstop
p2348
aVcommunications
p2349
aVmonths
p2350
aVbrowner
p2351
aVoccasion
p2352
aVaddress
p2353
aVpacket
p2354
aVmiss
p2355
aVsarah
p2356
aVwould
p2357
aVundoubtedly
p2358
aVdone
p2359
aVold
p2360
aVaddress
p2361
aVmatter
p2362
aVbegun
p2363
aVstraighten
p2364
aVwonderfully
p2365
aVlearned
p2366
aVexistence
p2367
aVsteward
p2368
aVimpulsive
p2369
aVman
p2370
aVstrong
p2371
aVpassions
p2372
aVremember
p2373
aVthrew
p2374
aVmust
p2375
aVsuperior
p2376
aVberth
p2377
aVorder
p2378
aVnearer
p2379
aVwife
p2380
aVsubject
p2381
aVoccasional
p2382
aVfits
p2383
aVhard
p2384
aVdrinking
p2385
aVreason
p2386
aVbelieve
p2387
aVwife
p2388
aVmurdered
p2389
aVman
p2390
aVpresumably
p2391
aVseafaring
p2392
aVman
p2393
aVmurdered
p2394
aVtime
p2395
aVjealousy
p2396
aVcourse
p2397
aVsuggests
p2398
aVmotive
p2399
aVcrime
p2400
aVproofs
p2401
aVdeed
p2402
aVsent
p2403
aVmiss
p2404
aVsarah
p2405
aVcushing
p2406
aVprobably
p2407
aVresidence
p2408
aVliverpool
p2409
aVhand
p2410
aVbringing
p2411
aVevents
p2412
aVled
p2413
aVtragedy
p2414
aVobserve
p2415
aVline
p2416
aVboats
p2417
aVcall
p2418
aVbelfast
p2419
aVdublin
p2420
aVwaterford
p2421
aVpresuming
p2422
aVbrowner
p2423
aVcommitted
p2424
aVdeed
p2425
aVembarked
p2426
aVupon
p2427
aVsteamer
p2428
aVmay
p2429
aVday
p2430
aVbelfast
p2431
aVwould
p2432
aVfirst
p2433
aVplace
p2434
aVcould
p2435
aVpost
p2436
aVterrible
p2437
aVpacket
p2438
aVsecond
p2439
aVsolution
p2440
aVstage
p2441
aVobviously
p2442
aVpossible
p2443
aValthough
p2444
aVthought
p2445
aVexceedingly
p2446
aVunlikely
p2447
aVdetermined
p2448
aVelucidate
p2449
aVgoing
p2450
aVunsuccessful
p2451
aVlover
p2452
aVmight
p2453
aVkilled
p2454
aVmr
p2455
aVmrs
p2456
aVbrowner
p2457
aVmale
p2458
aVear
p2459
aVmight
p2460
aVbelonged
p2461
aVhusband
p2462
aVmany
p2463
aVgrave
p2464
aVobjections
p2465
aVtheory
p2466
aVconceivable
p2467
aVtherefore
p2468
aVsent
p2469
aVtelegram
p2470
aVfriend
p2471
aValgar
p2472
aVliverpool
p2473
aVforce
p2474
aVasked
p2475
aVfind
p2476
aVmrs
p2477
aVbrowner
p2478
aVhome
p2479
aVbrowner
p2480
aVdeparted
p2481
aVmay
p2482
aVday
p2483
aVwent
p2484
aVwallington
p2485
aVvisit
p2486
aVmiss
p2487
aVsarah
p2488
aVcurious
p2489
aVfirst
p2490
aVplace
p2491
aVsee
p2492
aVfar
p2493
aVfamily
p2494
aVear
p2495
aVreproduced
p2496
aVcourse
p2497
aVmight
p2498
aVgive
p2499
aVus
p2500
aVimportant
p2501
aVinformation
p2502
aVsanguine
p2503
aVwould
p2504
aVmust
p2505
aVheard
p2506
aVbusiness
p2507
aVday
p2508
aVsince
p2509
aVcroydon
p2510
aVringing
p2511
aValone
p2512
aVcould
p2513
aVunderstood
p2514
aVpacket
p2515
aVmeant
p2516
aVwilling
p2517
aVhelp
p2518
aVjustice
p2519
aVwould
p2520
aVprobably
p2521
aVcommunicated
p2522
aVpolice
p2523
aValready
p2524
aVhowever
p2525
aVclearly
p2526
aVduty
p2527
aVsee
p2528
aVwent
p2529
aVfound
p2530
aVnews
p2531
aVarrival
p2532
aVpacket
p2533
aVillness
p2534
aVdated
p2535
aVtime
p2536
aVeffect
p2537
aVupon
p2538
aVbring
p2539
aVbrain
p2540
aVfever
p2541
aVclearer
p2542
aVever
p2543
aVunderstood
p2544
aVfull
p2545
aVsignificance
p2546
aVequally
p2547
aVclear
p2548
aVwait
p2549
aVtime
p2550
aVassistance
p2551
aVhowever
p2552
aVreally
p2553
aVindependent
p2554
aVhelp
p2555
aVanswers
p2556
aVwaiting
p2557
aVus
p2558
aVpolicestation
p2559
aVdirected
p2560
aValgar
p2561
aVsend
p2562
aVnothing
p2563
aVcould
p2564
aVconclusive
p2565
aVmrs
p2566
aVbrowner
p2567
aVhouse
p2568
aVclosed
p2569
aVthree
p2570
aVdays
p2571
aVneighbours
p2572
aVopinion
p2573
aVgone
p2574
aVsouth
p2575
aVsee
p2576
aVrelatives
p2577
aVascertained
p2578
aVshipping
p2579
aVoffices
p2580
aVbrowner
p2581
aVleft
p2582
aVaboard
p2583
aVmay
p2584
aVday
p2585
aVcalculate
p2586
aVdue
p2587
aVthames
p2588
aVtomorrow
p2589
aVnight
p2590
aVarrives
p2591
aVmet
p2592
aVobtuse
p2593
aVresolute
p2594
aVlestrade
p2595
aVdoubt
p2596
aVshall
p2597
aVdetails
p2598
aVfilled
p2599
aVsherlock
p2600
aVholmes
p2601
aVdisappointed
p2602
aVexpectations
p2603
aVtwo
p2604
aVdays
p2605
aVlater
p2606
aVreceived
p2607
aVbulky
p2608
aVenvelope
p2609
aVcontained
p2610
aVshort
p2611
aVnote
p2612
aVdetective
p2613
aVtypewritten
p2614
aVdocument
p2615
aVcovered
p2616
aVseveral
p2617
aVpages
p2618
aVfoolscap
p2619
aVlestrade
p2620
aVgot
p2621
aVright
p2622
aVsaid
p2623
aVholmes
p2624
aVglancing
p2625
aVperhaps
p2626
aVwould
p2627
aVinterest
p2628
aVhear
p2629
aVsays
p2630
aVdear
p2631
aVmr
p2632
aVholmes
p2633
aVaccordance
p2634
aVscheme
p2635
aVformed
p2636
aVorder
p2637
aVtest
p2638
aVtheories
p2639
aVrather
p2640
aVfine
p2641
aVwatson
p2642
aVwent
p2643
aValbert
p2644
aVdock
p2645
aVyesterday
p2646
aVpm
p2647
aVboarded
p2648
aVss
p2649
aVmay
p2650
aVday
p2651
aVbelonging
p2652
aVliverpool
p2653
aVdublin
p2654
aVlondon
p2655
aVsteam
p2656
aVpacket
p2657
aVcompany
p2658
aVinquiry
p2659
aVfound
p2660
aVsteward
p2661
aVboard
p2662
aVname
p2663
aVjames
p2664
aVbrowner
p2665
aVacted
p2666
aVvoyage
p2667
aVextraordinary
p2668
aVmanner
p2669
aVcaptain
p2670
aVcompelled
p2671
aVrelieve
p2672
aVduties
p2673
aVdescending
p2674
aVberth
p2675
aVfound
p2676
aVseated
p2677
aVupon
p2678
aVchest
p2679
aVhead
p2680
aVsunk
p2681
aVupon
p2682
aVhands
p2683
aVrocking
p2684
aVfro
p2685
aVbig
p2686
aVpowerful
p2687
aVchap
p2688
aVcleanshaven
p2689
aVswarthy
p2690
aVsomething
p2691
aVlike
p2692
aValdrige
p2693
aVhelped
p2694
aVus
p2695
aVbogus
p2696
aVlaundry
p2697
aVaffair
p2698
aVjumped
p2699
aVheard
p2700
aVbusiness
p2701
aVwhistle
p2702
aVlips
p2703
aVcall
p2704
aVcouple
p2705
aVriver
p2706
aVpolice
p2707
aVround
p2708
aVcorner
p2709
aVseemed
p2710
aVheart
p2711
aVheld
p2712
aVhands
p2713
aVquietly
p2714
aVenough
p2715
aVdarbies
p2716
aVbrought
p2717
aValong
p2718
aVcells
p2719
aVbox
p2720
aVwell
p2721
aVthought
p2722
aVmight
p2723
aVsomething
p2724
aVincriminating
p2725
aVbar
p2726
aVbig
p2727
aVsharp
p2728
aVknife
p2729
aVsailors
p2730
aVgot
p2731
aVnothing
p2732
aVtrouble
p2733
aVhowever
p2734
aVfind
p2735
aVshall
p2736
aVwant
p2737
aVevidence
p2738
aVbrought
p2739
aVinspector
p2740
aVstation
p2741
aVasked
p2742
aVleave
p2743
aVmake
p2744
aVstatement
p2745
aVcourse
p2746
aVtaken
p2747
aVmade
p2748
aVshorthand
p2749
aVman
p2750
aVthree
p2751
aVcopies
p2752
aVtypewritten
p2753
aVone
p2754
aVenclose
p2755
aVaffair
p2756
aVproves
p2757
aValways
p2758
aVthought
p2759
aVwould
p2760
aVextremely
p2761
aVsimple
p2762
aVone
p2763
aVobliged
p2764
aVassisting
p2765
aVinvestigation
p2766
aVkind
p2767
aVregards
p2768
aVtruly
p2769
aVg
aVlestrade
p2770
aVhum
p2771
aVinvestigation
p2772
aVreally
p2773
aVsimple
p2774
aVone
p2775
aVremarked
p2776
aVholmes
p2777
aVnt
p2778
aVthink
p2779
aVstruck
p2780
aVlight
p2781
aVfirst
p2782
aVcalled
p2783
aVus
p2784
aVhowever
p2785
aVlet
p2786
aVus
p2787
aVsee
p2788
aVjim
p2789
aVbrowner
p2790
aVsay
p2791
aVstatement
p2792
aVmade
p2793
aVinspector
p2794
aVmontgomery
p2795
aVshadwell
p2796
aVpolice
p2797
aVstation
p2798
aVadvantage
p2799
aVverbatim
p2800
aVanything
p2801
aVsay
p2802
aVyes
p2803
aVdeal
p2804
aVsay
p2805
aVmake
p2806
aVclean
p2807
aVbreast
p2808
aVhang
p2809
aVleave
p2810
aValone
p2811
aVnt
p2812
aVcare
p2813
aVplug
p2814
aVtell
p2815
aVve
p2816
aVshut
p2817
aVeye
p2818
aVsleep
p2819
aVsince
p2820
aVnt
p2821
aVbelieve
p2822
aVever
p2823
aVget
p2824
aVpast
p2825
aVwaking
p2826
aVsometimes
p2827
aVface
p2828
aVgenerally
p2829
aVm
aVnever
p2830
aVwithout
p2831
aVone
p2832
aVlooks
p2833
aVfrowning
p2834
aVblacklike
p2835
aVkind
p2836
aVo
aVsurprise
p2837
aVupon
p2838
aVface
p2839
aVay
p2840
aVwhite
p2841
aVlamb
p2842
aVmight
p2843
aVwell
p2844
aVsurprised
p2845
aVread
p2846
aVdeath
p2847
aVface
p2848
aVseldom
p2849
aVlooked
p2850
aVanything
p2851
aVlove
p2852
aVupon
p2853
aVsarah
p2854
aVfault
p2855
aVmay
p2856
aVcurse
p2857
aVbroken
p2858
aVman
p2859
aVput
p2860
aVblight
p2861
aVset
p2862
aVblood
p2863
aVrotting
p2864
aVveins
p2865
aVwant
p2866
aVclear
p2867
aVknow
p2868
aVwent
p2869
aVback
p2870
aVdrink
p2871
aVlike
p2872
aVbeast
p2873
aVwould
p2874
aVforgiven
p2875
aVwould
p2876
aVstuck
p2877
aVclose
p2878
aVrope
p2879
aVblock
p2880
aVwoman
p2881
aVnever
p2882
aVdarkened
p2883
aVdoor
p2884
aVsarah
p2885
aVcushing
p2886
aVloved
p2887
aVroot
p2888
aVbusiness
p2889
aVloved
p2890
aVlove
p2891
aVturned
p2892
aVpoisonous
p2893
aVhate
p2894
aVknew
p2895
aVthought
p2896
aVwife
p2897
aVfootmark
p2898
aVmud
p2899
aVwhole
p2900
aVbody
p2901
aVsoul
p2902
aVthree
p2903
aVsisters
p2904
aValtogether
p2905
aVold
p2906
aVone
p2907
aVgood
p2908
aVwoman
p2909
aVsecond
p2910
aVdevil
p2911
aVthird
p2912
aVangel
p2913
aVsarah
p2914
aVthirtythree
p2915
aVmary
p2916
aVtwentynine
p2917
aVmarried
p2918
aVhappy
p2919
aVday
p2920
aVlong
p2921
aVset
p2922
aVhouse
p2923
aVtogether
p2924
aVliverpool
p2925
aVbetter
p2926
aVwoman
p2927
aVmary
p2928
aVasked
p2929
aVsarah
p2930
aVweek
p2931
aVweek
p2932
aVgrew
p2933
aVmonth
p2934
aVone
p2935
aVthing
p2936
aVled
p2937
aVanother
p2938
aVone
p2939
aVblue
p2940
aVribbon
p2941
aVtime
p2942
aVputting
p2943
aVlittle
p2944
aVmoney
p2945
aVbright
p2946
aVnew
p2947
aVdollar
p2948
aVgod
p2949
aVwhoever
p2950
aVwould
p2951
aVthought
p2952
aVcould
p2953
aVcome
p2954
aVwhoever
p2955
aVwould
p2956
aVdreamed
p2957
aVused
p2958
aVhome
p2959
aVweekends
p2960
aVoften
p2961
aVsometimes
p2962
aVship
p2963
aVheld
p2964
aVback
p2965
aVcargo
p2966
aVwould
p2967
aVwhole
p2968
aVweek
p2969
aVtime
p2970
aVway
p2971
aVsaw
p2972
aVdeal
p2973
aVsisterinlaw
p2974
aVsarah
p2975
aVfine
p2976
aVtall
p2977
aVwoman
p2978
aVblack
p2979
aVquick
p2980
aVfierce
p2981
aVproud
p2982
aVway
p2983
aVcarrying
p2984
aVhead
p2985
aVglint
p2986
aVeye
p2987
aVlike
p2988
aVspark
p2989
aVflint
p2990
aVlittle
p2991
aVmary
p2992
aVnever
p2993
aVthought
p2994
aVswear
p2995
aVhope
p2996
aVgod
p2997
aVmercy
p2998
aVseemed
p2999
aVsometimes
p3000
aVliked
p3001
aValone
p3002
aVcoax
p3003
aVwalk
p3004
aVnever
p3005
aVthought
p3006
aVanything
p3007
aVone
p3008
aVevening
p3009
aVeyes
p3010
aVopened
p3011
aVcome
p3012
aVship
p3013
aVfound
p3014
aVwife
p3015
aVsarah
p3016
aVhome
p3017
aVmary
p3018
aVasked
p3019
aVoh
p3020
aVgone
p3021
aVpay
p3022
aVaccounts
p3023
aVimpatient
p3024
aVpaced
p3025
aVroom
p3026
aVca
p3027
aVnt
p3028
aVhappy
p3029
aVfive
p3030
aVminutes
p3031
aVwithout
p3032
aVmary
p3033
aVjim
p3034
aVsays
p3035
aVbad
p3036
aVcompliment
p3037
aVca
p3038
aVnt
p3039
aVcontented
p3040
aVsociety
p3041
aVshort
p3042
aVtime
p3043
aVright
p3044
aVlass
p3045
aVsaid
p3046
aVputting
p3047
aVhand
p3048
aVtowards
p3049
aVkindly
p3050
aVway
p3051
aVinstant
p3052
aVburned
p3053
aVfever
p3054
aVlooked
p3055
aVeyes
p3056
aVread
p3057
aVneed
p3058
aVspeak
p3059
aVeither
p3060
aVfrowned
p3061
aVdrew
p3062
aVhand
p3063
aVaway
p3064
aVstood
p3065
aVside
p3066
aVsilence
p3067
aVbit
p3068
aVput
p3069
aVhand
p3070
aVpatted
p3071
aVshoulder
p3072
aVsteady
p3073
aVold
p3074
aVjim
p3075
aVsaid
p3076
aVkind
p3077
aVo
aVmocking
p3078
aVlaugh
p3079
aVran
p3080
aVroom
p3081
aVwell
p3082
aVtime
p3083
aVsarah
p3084
aVhated
p3085
aVwhole
p3086
aVheart
p3087
aVsoul
p3088
aVwoman
p3089
aVhate
p3090
aVfool
p3091
aVlet
p3092
aVgo
p3093
aVbiding
p3094
aVus
p3095
aVbesotted
p3096
aVfool
p3097
aVnever
p3098
aVsaid
p3099
aVword
p3100
aVmary
p3101
aVknew
p3102
aVwould
p3103
aVgrieve
p3104
aVthings
p3105
aVwent
p3106
aVmuch
p3107
aVtime
p3108
aVbegan
p3109
aVfind
p3110
aVbit
p3111
aVchange
p3112
aVmary
p3113
aValways
p3114
aVtrusting
p3115
aVinnocent
p3116
aVbecame
p3117
aVqueer
p3118
aVsuspicious
p3119
aVwanting
p3120
aVknow
p3121
aVletters
p3122
aVpockets
p3123
aVthousand
p3124
aVfollies
p3125
aVday
p3126
aVday
p3127
aVgrew
p3128
aVqueerer
p3129
aVirritable
p3130
aVceaseless
p3131
aVrows
p3132
aVnothing
p3133
aVfairly
p3134
aVpuzzled
p3135
aVsarah
p3136
aVavoided
p3137
aVmary
p3138
aVinseparable
p3139
aVsee
p3140
aVplotting
p3141
aVscheming
p3142
aVpoisoning
p3143
aVwife
p3144
aVmind
p3145
aVblind
p3146
aVbeetle
p3147
aVcould
p3148
aVunderstand
p3149
aVtime
p3150
aVbroke
p3151
aVblue
p3152
aVribbon
p3153
aVbegan
p3154
aVdrink
p3155
aVthink
p3156
aVdone
p3157
aVmary
p3158
aVever
p3159
aVreason
p3160
aVdisgusted
p3161
aVgap
p3162
aVus
p3163
aVbegan
p3164
aVwider
p3165
aVwider
p3166
aValec
p3167
aVfairbairn
p3168
aVchipped
p3169
aVthings
p3170
aVbecame
p3171
aVthousand
p3172
aVtimes
p3173
aVblacker
p3174
aVsee
p3175
aVsarah
p3176
aVcame
p3177
aVhouse
p3178
aVfirst
p3179
aVsoon
p3180
aVsee
p3181
aVus
p3182
aVman
p3183
aVwinning
p3184
aVways
p3185
aVmade
p3186
aVfriends
p3187
aVwherever
p3188
aVwent
p3189
aVdashing
p3190
aVswaggering
p3191
aVchap
p3192
aVsmart
p3193
aVcurled
p3194
aVseen
p3195
aVhalf
p3196
aVworld
p3197
aVcould
p3198
aVtalk
p3199
aVseen
p3200
aVgood
p3201
aVcompany
p3202
aVwo
p3203
aVnt
p3204
aVdeny
p3205
aVwonderful
p3206
aVpolite
p3207
aVways
p3208
aVsailor
p3209
aVman
p3210
aVthink
p3211
aVmust
p3212
aVtime
p3213
aVknew
p3214
aVpoop
p3215
aVforecastle
p3216
aVmonth
p3217
aVhouse
p3218
aVnever
p3219
aVcross
p3220
aVmind
p3221
aVharm
p3222
aVmight
p3223
aVcome
p3224
aVsoft
p3225
aVtricky
p3226
aVways
p3227
aVlast
p3228
aVsomething
p3229
aVmade
p3230
aVsuspect
p3231
aVday
p3232
aVpeace
p3233
aVgone
p3234
aVforever
p3235
aVlittle
p3236
aVthing
p3237
aVcome
p3238
aVparlour
p3239
aVunexpected
p3240
aVwalked
p3241
aVdoor
p3242
aVsaw
p3243
aVlight
p3244
aVwelcome
p3245
aVwife
p3246
aVface
p3247
aVsaw
p3248
aVfaded
p3249
aVturned
p3250
aVaway
p3251
aVlook
p3252
aVdisappointment
p3253
aVenough
p3254
aVone
p3255
aValec
p3256
aVfairbairn
p3257
aVwhose
p3258
aVstep
p3259
aVcould
p3260
aVmistaken
p3261
aVmine
p3262
aVcould
p3263
aVseen
p3264
aVkilled
p3265
aValways
p3266
aVlike
p3267
aVmadman
p3268
aVtemper
p3269
aVgets
p3270
aVloose
p3271
aVmary
p3272
aVsaw
p3273
aVdevil
p3274
aVlight
p3275
aVeyes
p3276
aVran
p3277
aVforward
p3278
aVhands
p3279
aVsleeve
p3280
aVnt
p3281
aVjim
p3282
aVnt
p3283
aVsays
p3284
aVsarah
p3285
aVasked
p3286
aVkitchen
p3287
aVsays
p3288
aVsarah
p3289
aVsays
p3290
aVwent
p3291
aVman
p3292
aVfairbairn
p3293
aVnever
p3294
aVdarken
p3295
aVdoor
p3296
aVsays
p3297
aVorder
p3298
aVoh
p3299
aVsays
p3300
aVfriends
p3301
aVgood
p3302
aVenough
p3303
aVhouse
p3304
aVgood
p3305
aVenough
p3306
aVeither
p3307
aVlike
p3308
aVsays
p3309
aVfairbairn
p3310
aVshows
p3311
aVface
p3312
aVll
p3313
aVsend
p3314
aVone
p3315
aVears
p3316
aVkeepsake
p3317
aVfrightened
p3318
aVface
p3319
aVthink
p3320
aVnever
p3321
aVanswered
p3322
aVword
p3323
aVevening
p3324
aVleft
p3325
aVhouse
p3326
aVwell
p3327
aVnt
p3328
aVknow
p3329
aVwhether
p3330
aVpure
p3331
aVdevilry
p3332
aVpart
p3333
aVwoman
p3334
aVwhether
p3335
aVthought
p3336
aVcould
p3337
aVturn
p3338
aVwife
p3339
aVencouraging
p3340
aVmisbehave
p3341
aVanyway
p3342
aVtook
p3343
aVhouse
p3344
aVtwo
p3345
aVstreets
p3346
aVlet
p3347
aVlodgings
p3348
aVsailors
p3349
aVfairbairn
p3350
aVused
p3351
aVstay
p3352
aVmary
p3353
aVwould
p3354
aVgo
p3355
aVround
p3356
aVtea
p3357
aVsister
p3358
aVoften
p3359
aVwent
p3360
aVnt
p3361
aVknow
p3362
aVfollowed
p3363
aVone
p3364
aVday
p3365
aVbroke
p3366
aVdoor
p3367
aVfairbairn
p3368
aVgot
p3369
aVaway
p3370
aVback
p3371
aVgarden
p3372
aVwall
p3373
aVlike
p3374
aVcowardly
p3375
aVskunk
p3376
aVswore
p3377
aVwife
p3378
aVwould
p3379
aVkill
p3380
aVfound
p3381
aVcompany
p3382
aVled
p3383
aVback
p3384
aVsobbing
p3385
aVtrembling
p3386
aVwhite
p3387
aVpiece
p3388
aVpaper
p3389
aVtrace
p3390
aVlove
p3391
aVus
p3392
aVlonger
p3393
aVcould
p3394
aVsee
p3395
aVhated
p3396
aVfeared
p3397
aVthought
p3398
aVdrove
p3399
aVdrink
p3400
aVdespised
p3401
aVwell
p3402
aVwell
p3403
aVsarah
p3404
aVfound
p3405
aVcould
p3406
aVmake
p3407
aVliving
p3408
aVliverpool
p3409
aVwent
p3410
aVback
p3411
aVunderstand
p3412
aVlive
p3413
aVsister
p3414
aVcroydon
p3415
aVthings
p3416
aVjogged
p3417
aVmuch
p3418
aVever
p3419
aVhome
p3420
aVcame
p3421
aVweek
p3422
aVmisery
p3423
aVruin
p3424
aVway
p3425
aVgone
p3426
aVmay
p3427
aVday
p3428
aVround
p3429
aVvoyage
p3430
aVseven
p3431
aVdays
p3432
aVhogshead
p3433
aVgot
p3434
aVloose
p3435
aVstarted
p3436
aVone
p3437
aVplates
p3438
aVput
p3439
aVback
p3440
aVport
p3441
aVtwelve
p3442
aVhours
p3443
aVleft
p3444
aVship
p3445
aVcame
p3446
aVhome
p3447
aVthinking
p3448
aVsurprise
p3449
aVwould
p3450
aVwife
p3451
aVhoping
p3452
aVmaybe
p3453
aVwould
p3454
aVglad
p3455
aVsee
p3456
aVsoon
p3457
aVthought
p3458
aVhead
p3459
aVturned
p3460
aVstreet
p3461
aVmoment
p3462
aVcab
p3463
aVpassed
p3464
aVsitting
p3465
aVside
p3466
aVfairbairn
p3467
aVtwo
p3468
aVchatting
p3469
aVlaughing
p3470
aVnever
p3471
aVthought
p3472
aVstood
p3473
aVwatching
p3474
aVfootpath
p3475
aVtell
p3476
aVgive
p3477
aVword
p3478
aVmoment
p3479
aVmaster
p3480
aVlike
p3481
aVdim
p3482
aVdream
p3483
aVlook
p3484
aVback
p3485
aVdrinking
p3486
aVhard
p3487
aVlate
p3488
aVtwo
p3489
aVthings
p3490
aVtogether
p3491
aVfairly
p3492
aVturned
p3493
aVbrain
p3494
aVsomething
p3495
aVthrobbing
p3496
aVhead
p3497
aVlike
p3498
aVdocker
p3499
aVhammer
p3500
aVmorning
p3501
aVseemed
p3502
aVniagara
p3503
aVwhizzing
p3504
aVbuzzing
p3505
aVears
p3506
aVwell
p3507
aVtook
p3508
aVheels
p3509
aVran
p3510
aVcab
p3511
aVheavy
p3512
aVoak
p3513
aVstick
p3514
aVhand
p3515
aVtell
p3516
aVsaw
p3517
aVred
p3518
aVfirst
p3519
aVran
p3520
aVgot
p3521
aVcunning
p3522
aVhung
p3523
aVback
p3524
aVlittle
p3525
aVsee
p3526
aVwithout
p3527
aVseen
p3528
aVpulled
p3529
aVsoon
p3530
aVrailway
p3531
aVstation
p3532
aVgood
p3533
aVcrowd
p3534
aVround
p3535
aVbookingoffice
p3536
aVgot
p3537
aVquite
p3538
aVclose
p3539
aVwithout
p3540
aVseen
p3541
aVtook
p3542
aVtickets
p3543
aVnew
p3544
aVbrighton
p3545
aVgot
p3546
aVthree
p3547
aVcarriages
p3548
aVbehind
p3549
aVreached
p3550
aVwalked
p3551
aValong
p3552
aVparade
p3553
aVnever
p3554
aVhundred
p3555
aVyards
p3556
aVlast
p3557
aVsaw
p3558
aVhire
p3559
aVboat
p3560
aVstart
p3561
aVrow
p3562
aVhot
p3563
aVday
p3564
aVthought
p3565
aVdoubt
p3566
aVwould
p3567
aVcooler
p3568
aVwater
p3569
aVgiven
p3570
aVhands
p3571
aVbit
p3572
aVhaze
p3573
aVcould
p3574
aVsee
p3575
aVhundred
p3576
aVyards
p3577
aVhired
p3578
aVboat
p3579
aVpulled
p3580
aVcould
p3581
aVsee
p3582
aVblur
p3583
aVcraft
p3584
aVgoing
p3585
aVnearly
p3586
aVfast
p3587
aVmust
p3588
aVlong
p3589
aVmile
p3590
aVshore
p3591
aVcaught
p3592
aVhaze
p3593
aVlike
p3594
aVcurtain
p3595
aVround
p3596
aVus
p3597
aVthree
p3598
aVmiddle
p3599
aVgod
p3600
aVshall
p3601
aVever
p3602
aVforget
p3603
aVfaces
p3604
aVsaw
p3605
aVboat
p3606
aVclosing
p3607
aVupon
p3608
aVscreamed
p3609
aVswore
p3610
aVlike
p3611
aVmadman
p3612
aVjabbed
p3613
aVoar
p3614
aVmust
p3615
aVseen
p3616
aVdeath
p3617
aVeyes
p3618
aVgot
p3619
aVpast
p3620
aVgot
p3621
aVone
p3622
aVstick
p3623
aVcrushed
p3624
aVhead
p3625
aVlike
p3626
aVegg
p3627
aVwould
p3628
aVspared
p3629
aVperhaps
p3630
aVmadness
p3631
aVthrew
p3632
aVarms
p3633
aVround
p3634
aVcrying
p3635
aVcalling
p3636
aValec
p3637
aVstruck
p3638
aVlay
p3639
aVstretched
p3640
aVbeside
p3641
aVlike
p3642
aVwild
p3643
aVbeast
p3644
aVtasted
p3645
aVblood
p3646
aVsarah
p3647
aVlord
p3648
aVjoined
p3649
aVpulled
p3650
aVknife
p3651
aVwell
p3652
aVve
p3653
aVsaid
p3654
aVenough
p3655
aVgave
p3656
aVkind
p3657
aVsavage
p3658
aVjoy
p3659
aVthought
p3660
aVsarah
p3661
aVwould
p3662
aVfeel
p3663
aVsigns
p3664
aVmeddling
p3665
aVbrought
p3666
aVtied
p3667
aVbodies
p3668
aVboat
p3669
aVstove
p3670
aVplank
p3671
aVstood
p3672
aVsunk
p3673
aVknew
p3674
aVwell
p3675
aVowner
p3676
aVwould
p3677
aVthink
p3678
aVlost
p3679
aVbearings
p3680
aVhaze
p3681
aVdrifted
p3682
aVsea
p3683
aVcleaned
p3684
aVgot
p3685
aVback
p3686
aVland
p3687
aVjoined
p3688
aVship
p3689
aVwithout
p3690
aVsoul
p3691
aVsuspicion
p3692
aVpassed
p3693
aVnight
p3694
aVmade
p3695
aVpacket
p3696
aVsarah
p3697
aVcushing
p3698
aVnext
p3699
aVday
p3700
aVsent
p3701
aVbelfast
p3702
aVwhole
p3703
aVtruth
p3704
aVhang
p3705
aVlike
p3706
aVpunish
p3707
aVpunished
p3708
aValready
p3709
aVshut
p3710
aVeyes
p3711
aVsee
p3712
aVtwo
p3713
aVfaces
p3714
aVstaring
p3715
aVstaring
p3716
aVstared
p3717
aVboat
p3718
aVbroke
p3719
aVhaze
p3720
aVkilled
p3721
aVquick
p3722
aVkilling
p3723
aVslow
p3724
aVanother
p3725
aVnight
p3726
aVshall
p3727
aVeither
p3728
aVmad
p3729
aVdead
p3730
aVmorning
p3731
aVwo
p3732
aVnt
p3733
aVput
p3734
aValone
p3735
aVcell
p3736
aVsir
p3737
aVpity
p3738
aVsake
p3739
aVnt
p3740
aVmay
p3741
aVtreated
p3742
aVday
p3743
aVagony
p3744
aVtreat
p3745
aVmeaning
p3746
aVwatson
p3747
aVsaid
p3748
aVholmes
p3749
aVsolemnly
p3750
aVlaid
p3751
aVpaper
p3752
aVobject
p3753
aVserved
p3754
aVcircle
p3755
aVmisery
p3756
aVviolence
p3757
aVfear
p3758
aVmust
p3759
aVtend
p3760
aVend
p3761
aVelse
p3762
aVuniverse
p3763
aVruled
p3764
aVchance
p3765
aVunthinkable
p3766
aVend
p3767
aVgreat
p3768
aVstanding
p3769
aVperennial
p3770
aVproblem
p3771
aVhuman
p3772
aVreason
p3773
aVfar
p3774
aVanswer
p3775
aVever
p3776
a.