(lp1
Vadventure
p2
aVwisteria
p3
aVlodge
p4
aVsir
p5
aVarthur
p6
aVconan
p7
aVdoyle
p8
aVcontents
p9
aVsingular
p10
aVexperience
p11
aVmr
p12
aVjohn
p13
aVscott
p14
aVeccles
p15
aVtiger
p16
aVsan
p17
aVpedro
p18
aVsingular
p19
aVexperience
p20
aVmr
p21
aVjohn
p22
aVscott
p23
aVeccles
p24
aVfind
p25
aVrecorded
p26
aVnotebook
p27
aVbleak
p28
aVwindy
p29
aVday
p30
aVtowards
p31
aVend
p32
aVmarch
p33
aVyear
p34
aVholmes
p35
aVreceived
p36
aVtelegram
p37
aVsat
p38
aVlunch
p39
aVscribbled
p40
aVreply
p41
aVmade
p42
aVremark
p43
aVmatter
p44
aVremained
p45
aVthoughts
p46
aVstood
p47
aVfront
p48
aVfire
p49
aVafterwards
p50
aVthoughtful
p51
aVface
p52
aVsmoking
p53
aVpipe
p54
aVcasting
p55
aVoccasional
p56
aVglance
p57
aVmessage
p58
aVsuddenly
p59
aVturned
p60
aVupon
p61
aVmischievous
p62
aVtwinkle
p63
aVeyes
p64
aVsuppose
p65
aVwatson
p66
aVmust
p67
aVlook
p68
aVupon
p69
aVman
p70
aVletters
p71
aVsaid
p72
aVdefine
p73
aVword
p74
aVgrotesque
p75
aVstrange
p76
aVremarkable
p77
aVsuggested
p78
aVshook
p79
aVhead
p80
aVdefinition
p81
aVsurely
p82
aVsomething
p83
aVsaid
p84
aVunderlying
p85
aVsuggestion
p86
aVtragic
p87
aVterrible
p88
aVcast
p89
aVmind
p90
aVback
p91
aVnarratives
p92
aVafflicted
p93
aVlongsuffering
p94
aVpublic
p95
aVrecognize
p96
aVoften
p97
aVgrotesque
p98
aVdeepened
p99
aVcriminal
p100
aVthink
p101
aVlittle
p102
aVaffair
p103
aVredheaded
p104
aVmen
p105
aVgrotesque
p106
aVenough
p107
aVoutset
p108
aVyet
p109
aVended
p110
aVdesperate
p111
aVattempt
p112
aVrobbery
p113
aVgrotesque
p114
aVaffair
p115
aVfive
p116
aVorange
p117
aVpips
p118
aVled
p119
aVstraight
p120
aVmurderous
p121
aVconspiracy
p122
aVword
p123
aVputs
p124
aValert
p125
aVasked
p126
aVread
p127
aVtelegram
p128
aValoud
p129
aVincredible
p130
aVgrotesque
p131
aVexperience
p132
aVmay
p133
aVconsult
p134
aVscott
p135
aVeccles
p136
aVpost
p137
aVoffice
p138
aVcharing
p139
aVcross
p140
aVman
p141
aVwoman
p142
aVasked
p143
aVoh
p144
aVman
p145
aVcourse
p146
aVwoman
p147
aVwould
p148
aVever
p149
aVsend
p150
aVreplypaid
p151
aVtelegram
p152
aVwould
p153
aVcome
p154
aVsee
p155
aVdear
p156
aVwatson
p157
aVknow
p158
aVbored
p159
aVsince
p160
aVlocked
p161
aVcolonel
p162
aVcarruthers
p163
aVmind
p164
aVlike
p165
aVracing
p166
aVengine
p167
aVtearing
p168
aVpieces
p169
aVconnected
p170
aVwork
p171
aVbuilt
p172
aVlife
p173
aVcommonplace
p174
aVpapers
p175
aVsterile
p176
aVaudacity
p177
aVromance
p178
aVseem
p179
aVpassed
p180
aVforever
p181
aVcriminal
p182
aVworld
p183
aVask
p184
aVwhether
p185
aVready
p186
aVlook
p187
aVnew
p188
aVproblem
p189
aVhowever
p190
aVtrivial
p191
aVmay
p192
aVprove
p193
aVunless
p194
aVmistaken
p195
aVclient
p196
aVmeasured
p197
aVstep
p198
aVheard
p199
aVupon
p200
aVstairs
p201
aVmoment
p202
aVlater
p203
aVstout
p204
aVtall
p205
aVgraywhiskered
p206
aVsolemnly
p207
aVrespectable
p208
aVperson
p209
aVushered
p210
aVroom
p211
aVlife
p212
aVhistory
p213
aVwritten
p214
aVheavy
p215
aVfeatures
p216
aVpompous
p217
aVmanner
p218
aVspats
p219
aVgoldrimmed
p220
aVspectacles
p221
aVconservative
p222
aVchurchman
p223
aVgood
p224
aVcitizen
p225
aVorthodox
p226
aVconventional
p227
aVlast
p228
aVdegree
p229
aVamazing
p230
aVexperience
p231
aVdisturbed
p232
aVnative
p233
aVcomposure
p234
aVleft
p235
aVtraces
p236
aVbristling
p237
aVhair
p238
aVflushed
p239
aVangry
p240
aVcheeks
p241
aVflurried
p242
aVexcited
p243
aVmanner
p244
aVplunged
p245
aVinstantly
p246
aVbusiness
p247
aVsingular
p248
aVunpleasant
p249
aVexperience
p250
aVmr
p251
aVholmes
p252
aVsaid
p253
aVnever
p254
aVlife
p255
aVplaced
p256
aVsituation
p257
aVimproper
p258
aVoutrageous
p259
aVmust
p260
aVinsist
p261
aVupon
p262
aVexplanation
p263
aVswelled
p264
aVpuffed
p265
aVanger
p266
aVpray
p267
aVsit
p268
aVmr
p269
aVscott
p270
aVeccles
p271
aVsaid
p272
aVholmes
p273
aVsoothing
p274
aVvoice
p275
aVmay
p276
aVask
p277
aVfirst
p278
aVplace
p279
aVcame
p280
aVwell
p281
aVsir
p282
aVappear
p283
aVmatter
p284
aVconcerned
p285
aVpolice
p286
aVyet
p287
aVheard
p288
aVfacts
p289
aVmust
p290
aVadmit
p291
aVcould
p292
aVleave
p293
aVprivate
p294
aVdetectives
p295
aVclass
p296
aVabsolutely
p297
aVsympathy
p298
aVnone
p299
aVless
p300
aVheard
p301
aVname
p302
aVquite
p303
aVsecond
p304
aVplace
p305
aVcome
p306
aVholmes
p307
aVglanced
p308
aVwatch
p309
aVquarterpast
p310
aVtwo
p311
aVsaid
p312
aVtelegram
p313
aVdispatched
p314
aVone
p315
aVone
p316
aVglance
p317
aVtoilet
p318
aVattire
p319
aVwithout
p320
aVseeing
p321
aVdisturbance
p322
aVdates
p323
aVmoment
p324
aVwaking
p325
aVclient
p326
aVsmoothed
p327
aVunbrushed
p328
aVhair
p329
aVfelt
p330
aVunshaven
p331
aVchin
p332
aVright
p333
aVmr
p334
aVholmes
p335
aVnever
p336
aVgave
p337
aVthought
p338
aVtoilet
p339
aVglad
p340
aVget
p341
aVhouse
p342
aVrunning
p343
aVround
p344
aVmaking
p345
aVinquiries
p346
aVcame
p347
aVwent
p348
aVhouse
p349
aVagents
p350
aVknow
p351
aVsaid
p352
aVmr
p353
aVgarcia
p354
aVrent
p355
aVpaid
p356
aVright
p357
aVeverything
p358
aVorder
p359
aVwisteria
p360
aVlodge
p361
aVcome
p362
aVcome
p363
aVsir
p364
aVsaid
p365
aVholmes
p366
aVlaughing
p367
aVlike
p368
aVfriend
p369
aVdr
p370
aVwatson
p371
aVbad
p372
aVhabit
p373
aVtelling
p374
aVstories
p375
aVwrong
p376
aVend
p377
aVforemost
p378
aVplease
p379
aVarrange
p380
aVthoughts
p381
aVlet
p382
aVknow
p383
aVdue
p384
aVsequence
p385
aVexactly
p386
aVevents
p387
aVsent
p388
aVunbrushed
p389
aVunkempt
p390
aVdress
p391
aVboots
p392
aVwaistcoat
p393
aVbuttoned
p394
aVawry
p395
aVsearch
p396
aVadvice
p397
aVassistance
p398
aVclient
p399
aVlooked
p400
aVrueful
p401
aVface
p402
aVunconventional
p403
aVappearance
p404
aVm
aVsure
p405
aVmust
p406
aVlook
p407
aVbad
p408
aVmr
p409
aVholmes
p410
aVaware
p411
aVwhole
p412
aVlife
p413
aVthing
p414
aVever
p415
aVhappened
p416
aVtell
p417
aVwhole
p418
aVqueer
p419
aVbusiness
p420
aVdone
p421
aVadmit
p422
aVsure
p423
aVenough
p424
aVexcuse
p425
aVnarrative
p426
aVnipped
p427
aVbud
p428
aVbustle
p429
aVoutside
p430
aVmrs
p431
aVhudson
p432
aVopened
p433
aVdoor
p434
aVusher
p435
aVtwo
p436
aVrobust
p437
aVofficiallooking
p438
aVindividuals
p439
aVone
p440
aVwell
p441
aVknown
p442
aVus
p443
aVinspector
p444
aVgregson
p445
aVscotland
p446
aVyard
p447
aVenergetic
p448
aVgallant
p449
aVwithin
p450
aVlimitations
p451
aVcapable
p452
aVofficer
p453
aVshook
p454
aVhands
p455
aVholmes
p456
aVintroduced
p457
aVcomrade
p458
aVinspector
p459
aVbaynes
p460
aVsurrey
p461
aVconstabulary
p462
aVhunting
p463
aVtogether
p464
aVmr
p465
aVholmes
p466
aVtrail
p467
aVlay
p468
aVdirection
p469
aVturned
p470
aVbulldog
p471
aVeyes
p472
aVupon
p473
aVvisitor
p474
aVmr
p475
aVjohn
p476
aVscott
p477
aVeccles
p478
aVpopham
p479
aVhouse
p480
aVlee
p481
aVfollowing
p482
aVmorning
p483
aVtraced
p484
aVtelegram
p485
aVdoubt
p486
aVsaid
p487
aVholmes
p488
aVexactly
p489
aVmr
p490
aVholmes
p491
aVpicked
p492
aVscent
p493
aVcharing
p494
aVcross
p495
aVpostoffice
p496
aVcame
p497
aVfollow
p498
aVwant
p499
aVwish
p500
aVstatement
p501
aVmr
p502
aVscott
p503
aVeccles
p504
aVevents
p505
aVled
p506
aVdeath
p507
aVlast
p508
aVnight
p509
aVmr
p510
aValoysius
p511
aVgarcia
p512
aVwisteria
p513
aVlodge
p514
aVnear
p515
aVesher
p516
aVclient
p517
aVsat
p518
aVstaring
p519
aVeyes
p520
aVevery
p521
aVtinge
p522
aVcolour
p523
aVstruck
p524
aVastonished
p525
aVface
p526
aVdead
p527
aVsay
p528
aVdead
p529
aVyes
p530
aVsir
p531
aVdead
p532
aVaccident
p533
aVmurder
p534
aVever
p535
aVone
p536
aVupon
p537
aVearth
p538
aVgood
p539
aVgod
p540
aVawful
p541
aVnt
p542
aVmean
p543
aVnt
p544
aVmean
p545
aVsuspected
p546
aVletter
p547
aVfound
p548
aVdead
p549
aVman
p550
aVpocket
p551
aVknow
p552
aVplanned
p553
aVpass
p554
aVlast
p555
aVnight
p556
aVhouse
p557
aVoh
p558
aVcame
p559
aVofficial
p560
aVnotebook
p561
aVwait
p562
aVbit
p563
aVgregson
p564
aVsaid
p565
aVsherlock
p566
aVholmes
p567
aVdesire
p568
aVplain
p569
aVstatement
p570
aVduty
p571
aVwarn
p572
aVmr
p573
aVscott
p574
aVeccles
p575
aVmay
p576
aVused
p577
aVmr
p578
aVeccles
p579
aVgoing
p580
aVtell
p581
aVus
p582
aVentered
p583
aVroom
p584
aVthink
p585
aVwatson
p586
aVbrandy
p587
aVsoda
p588
aVwould
p589
aVharm
p590
aVsir
p591
aVsuggest
p592
aVtake
p593
aVnotice
p594
aVaddition
p595
aVaudience
p596
aVproceed
p597
aVnarrative
p598
aVexactly
p599
aVwould
p600
aVdone
p601
aVnever
p602
aVinterrupted
p603
aVvisitor
p604
aVgulped
p605
aVbrandy
p606
aVcolour
p607
aVreturned
p608
aVface
p609
aVdubious
p610
aVglance
p611
aVinspector
p612
aVnotebook
p613
aVplunged
p614
aVextraordinary
p615
aVstatement
p616
aVbachelor
p617
aVsaid
p618
aVsociable
p619
aVturn
p620
aVcultivate
p621
aVlarge
p622
aVnumber
p623
aVfriends
p624
aVamong
p625
aVfamily
p626
aVretired
p627
aVbrewer
p628
aVcalled
p629
aVmelville
p630
aVliving
p631
aVabermarle
p632
aVmansion
p633
aVkensington
p634
aVtable
p635
aVmet
p636
aVweeks
p637
aVago
p638
aVyoung
p639
aVfellow
p640
aVnamed
p641
aVgarcia
p642
aVunderstood
p643
aVspanish
p644
aVdescent
p645
aVconnected
p646
aVway
p647
aVembassy
p648
aVspoke
p649
aVperfect
p650
aVenglish
p651
aVpleasing
p652
aVmanners
p653
aVgoodlooking
p654
aVman
p655
aVever
p656
aVsaw
p657
aVlife
p658
aVway
p659
aVstruck
p660
aVquite
p661
aVfriendship
p662
aVyoung
p663
aVfellow
p664
aVseemed
p665
aVtake
p666
aVfancy
p667
aVfirst
p668
aVwithin
p669
aVtwo
p670
aVdays
p671
aVmeeting
p672
aVcame
p673
aVsee
p674
aVlee
p675
aVone
p676
aVthing
p677
aVled
p678
aVanother
p679
aVended
p680
aVinviting
p681
aVspend
p682
aVdays
p683
aVhouse
p684
aVwisteria
p685
aVlodge
p686
aVesher
p687
aVoxshott
p688
aVyesterday
p689
aVevening
p690
aVwent
p691
aVesher
p692
aVfulfil
p693
aVengagement
p694
aVdescribed
p695
aVhousehold
p696
aVwent
p697
aVlived
p698
aVfaithful
p699
aVservant
p700
aVcountryman
p701
aVlooked
p702
aVneeds
p703
aVfellow
p704
aVcould
p705
aVspeak
p706
aVenglish
p707
aVhousekeeping
p708
aVwonderful
p709
aVcook
p710
aVsaid
p711
aVhalfbreed
p712
aVpicked
p713
aVtravels
p714
aVcould
p715
aVserve
p716
aVexcellent
p717
aVdinner
p718
aVremember
p719
aVremarked
p720
aVqueer
p721
aVhousehold
p722
aVfind
p723
aVheart
p724
aVsurrey
p725
aVagreed
p726
aVthough
p727
aVproved
p728
aVgood
p729
aVdeal
p730
aVqueerer
p731
aVthought
p732
aVdrove
p733
aVplace
p734
aVtwo
p735
aVmiles
p736
aVsouth
p737
aVside
p738
aVesher
p739
aVhouse
p740
aVfairsized
p741
aVone
p742
aVstanding
p743
aVback
p744
aVroad
p745
aVcurving
p746
aVdrive
p747
aVbanked
p748
aVhigh
p749
aVevergreen
p750
aVshrubs
p751
aVold
p752
aVtumbledown
p753
aVbuilding
p754
aVcrazy
p755
aVstate
p756
aVdisrepair
p757
aVtrap
p758
aVpulled
p759
aVgrassgrown
p760
aVdrive
p761
aVfront
p762
aVblotched
p763
aVweatherstained
p764
aVdoor
p765
aVdoubts
p766
aVwisdom
p767
aVvisiting
p768
aVman
p769
aVknew
p770
aVslightly
p771
aVopened
p772
aVdoor
p773
aVhowever
p774
aVgreeted
p775
aVgreat
p776
aVshow
p777
aVcordiality
p778
aVhanded
p779
aVmanservant
p780
aVmelancholy
p781
aVswarthy
p782
aVindividual
p783
aVled
p784
aVway
p785
aVbag
p786
aVhand
p787
aVbedroom
p788
aVwhole
p789
aVplace
p790
aVdepressing
p791
aVdinner
p792
aVteteatete
p793
aVthough
p794
aVhost
p795
aVbest
p796
aVentertaining
p797
aVthoughts
p798
aVseemed
p799
aVcontinually
p800
aVwander
p801
aVtalked
p802
aVvaguely
p803
aVwildly
p804
aVcould
p805
aVhardly
p806
aVunderstand
p807
aVcontinually
p808
aVdrummed
p809
aVfingers
p810
aVtable
p811
aVgnawed
p812
aVnails
p813
aVgave
p814
aVsigns
p815
aVnervous
p816
aVimpatience
p817
aVdinner
p818
aVneither
p819
aVwell
p820
aVserved
p821
aVwell
p822
aVcooked
p823
aVgloomy
p824
aVpresence
p825
aVtaciturn
p826
aVservant
p827
aVhelp
p828
aVenliven
p829
aVus
p830
aVassure
p831
aVmany
p832
aVtimes
p833
aVcourse
p834
aVevening
p835
aVwished
p836
aVcould
p837
aVinvent
p838
aVexcuse
p839
aVwould
p840
aVtake
p841
aVback
p842
aVlee
p843
aVone
p844
aVthing
p845
aVcomes
p846
aVback
p847
aVmemory
p848
aVmay
p849
aVbearing
p850
aVupon
p851
aVbusiness
p852
aVtwo
p853
aVgentlemen
p854
aVinvestigating
p855
aVthought
p856
aVnothing
p857
aVtime
p858
aVnear
p859
aVend
p860
aVdinner
p861
aVnote
p862
aVhanded
p863
aVservant
p864
aVnoticed
p865
aVhost
p866
aVread
p867
aVseemed
p868
aVeven
p869
aVdistrait
p870
aVstrange
p871
aVgave
p872
aVpretence
p873
aVconversation
p874
aVsat
p875
aVsmoking
p876
aVendless
p877
aVcigarettes
p878
aVlost
p879
aVthoughts
p880
aVmade
p881
aVremark
p882
aVcontents
p883
aVeleven
p884
aVglad
p885
aVgo
p886
aVbed
p887
aVtime
p888
aVlater
p889
aVgarcia
p890
aVlooked
p891
aVdoor
p892
aVroom
p893
aVdark
p894
aVtime
p895
aVasked
p896
aVrung
p897
aVsaid
p898
aVapologized
p899
aVdisturbed
p900
aVlate
p901
aVsaying
p902
aVnearly
p903
aVone
p904
aVoclock
p905
aVdropped
p906
aVslept
p907
aVsoundly
p908
aVnight
p909
aVcome
p910
aVamazing
p911
aVpart
p912
aVtale
p913
aVwoke
p914
aVbroad
p915
aVdaylight
p916
aVglanced
p917
aVwatch
p918
aVtime
p919
aVnearly
p920
aVnine
p921
aVparticularly
p922
aVasked
p923
aVcalled
p924
aVeight
p925
aVmuch
p926
aVastonished
p927
aVforgetfulness
p928
aVsprang
p929
aVrang
p930
aVservant
p931
aVresponse
p932
aVrang
p933
aVresult
p934
aVcame
p935
aVconclusion
p936
aVbell
p937
aVorder
p938
aVhuddled
p939
aVclothes
p940
aVhurried
p941
aVdownstairs
p942
aVexceedingly
p943
aVbad
p944
aVtemper
p945
aVorder
p946
aVhot
p947
aVwater
p948
aVimagine
p949
aVsurprise
p950
aVfound
p951
aVone
p952
aVshouted
p953
aVhall
p954
aVanswer
p955
aVran
p956
aVroom
p957
aVroom
p958
aVdeserted
p959
aVhost
p960
aVshown
p961
aVbedroom
p962
aVnight
p963
aVknocked
p964
aVdoor
p965
aVreply
p966
aVturned
p967
aVhandle
p968
aVwalked
p969
aVroom
p970
aVempty
p971
aVbed
p972
aVnever
p973
aVslept
p974
aVgone
p975
aVrest
p976
aVforeign
p977
aVhost
p978
aVforeign
p979
aVfootman
p980
aVforeign
p981
aVcook
p982
aVvanished
p983
aVnight
p984
aVend
p985
aVvisit
p986
aVwisteria
p987
aVlodge
p988
aVsherlock
p989
aVholmes
p990
aVrubbing
p991
aVhands
p992
aVchuckling
p993
aVadded
p994
aVbizarre
p995
aVincident
p996
aVcollection
p997
aVstrange
p998
aVepisodes
p999
aVexperience
p1000
aVfar
p1001
aVknow
p1002
aVperfectly
p1003
aVunique
p1004
aVsaid
p1005
aVmay
p1006
aVask
p1007
aVsir
p1008
aVfurious
p1009
aVfirst
p1010
aVidea
p1011
aVvictim
p1012
aVabsurd
p1013
aVpractical
p1014
aVjoke
p1015
aVpacked
p1016
aVthings
p1017
aVbanged
p1018
aVhall
p1019
aVdoor
p1020
aVbehind
p1021
aVset
p1022
aVesher
p1023
aVbag
p1024
aVhand
p1025
aVcalled
p1026
aVallan
p1027
aVbrothers
p1028
aVchief
p1029
aVland
p1030
aVagents
p1031
aVvillage
p1032
aVfound
p1033
aVfirm
p1034
aVvilla
p1035
aVrented
p1036
aVstruck
p1037
aVwhole
p1038
aVproceeding
p1039
aVcould
p1040
aVhardly
p1041
aVpurpose
p1042
aVmaking
p1043
aVfool
p1044
aVmain
p1045
aVobject
p1046
aVmust
p1047
aVget
p1048
aVrent
p1049
aVlate
p1050
aVmarch
p1051
aVquarterday
p1052
aVhand
p1053
aVtheory
p1054
aVwould
p1055
aVwork
p1056
aVagent
p1057
aVobliged
p1058
aVwarning
p1059
aVtold
p1060
aVrent
p1061
aVpaid
p1062
aVadvance
p1063
aVmade
p1064
aVway
p1065
aVtown
p1066
aVcalled
p1067
aVspanish
p1068
aVembassy
p1069
aVman
p1070
aVunknown
p1071
aVwent
p1072
aVsee
p1073
aVmelville
p1074
aVwhose
p1075
aVhouse
p1076
aVfirst
p1077
aVmet
p1078
aVgarcia
p1079
aVfound
p1080
aVreally
p1081
aVknew
p1082
aVrather
p1083
aVless
p1084
aVfinally
p1085
aVgot
p1086
aVreply
p1087
aVwire
p1088
aVcame
p1089
aVsince
p1090
aVgather
p1091
aVperson
p1092
aVgives
p1093
aVadvice
p1094
aVdifficult
p1095
aVcases
p1096
aVmr
p1097
aVinspector
p1098
aVunderstand
p1099
aVsaid
p1100
aVentered
p1101
aVroom
p1102
aVcarry
p1103
aVstory
p1104
aVtragedy
p1105
aVoccurred
p1106
aVassure
p1107
aVevery
p1108
aVword
p1109
aVsaid
p1110
aVtruth
p1111
aVoutside
p1112
aVtold
p1113
aVknow
p1114
aVabsolutely
p1115
aVnothing
p1116
aVfate
p1117
aVman
p1118
aVdesire
p1119
aVhelp
p1120
aVlaw
p1121
aVevery
p1122
aVpossible
p1123
aVway
p1124
aVsure
p1125
aVmr
p1126
aVscott
p1127
aVeccles
p1128
aVsure
p1129
aVsaid
p1130
aVinspector
p1131
aVgregson
p1132
aVamiable
p1133
aVtone
p1134
aVbound
p1135
aVsay
p1136
aVeverything
p1137
aVsaid
p1138
aVagrees
p1139
aVclosely
p1140
aVfacts
p1141
aVcome
p1142
aVnotice
p1143
aVexample
p1144
aVnote
p1145
aVarrived
p1146
aVdinner
p1147
aVchance
p1148
aVobserve
p1149
aVbecame
p1150
aVyes
p1151
aVgarcia
p1152
aVrolled
p1153
aVthrew
p1154
aVfire
p1155
aVsay
p1156
aVmr
p1157
aVbaynes
p1158
aVcountry
p1159
aVdetective
p1160
aVstout
p1161
aVpuffy
p1162
aVred
p1163
aVman
p1164
aVwhose
p1165
aVface
p1166
aVredeemed
p1167
aVgrossness
p1168
aVtwo
p1169
aVextraordinarily
p1170
aVbright
p1171
aVeyes
p1172
aValmost
p1173
aVhidden
p1174
aVbehind
p1175
aVheavy
p1176
aVcreases
p1177
aVcheek
p1178
aVbrow
p1179
aVslow
p1180
aVsmile
p1181
aVdrew
p1182
aVfolded
p1183
aVdiscoloured
p1184
aVscrap
p1185
aVpaper
p1186
aVpocket
p1187
aVdoggrate
p1188
aVmr
p1189
aVholmes
p1190
aVoverpitched
p1191
aVpicked
p1192
aVunburned
p1193
aVback
p1194
aVholmes
p1195
aVsmiled
p1196
aVappreciation
p1197
aVmust
p1198
aVexamined
p1199
aVhouse
p1200
aVcarefully
p1201
aVfind
p1202
aVsingle
p1203
aVpellet
p1204
aVpaper
p1205
aVmr
p1206
aVholmes
p1207
aVway
p1208
aVshall
p1209
aVread
p1210
aVmr
p1211
aVgregson
p1212
aVlondoner
p1213
aVnodded
p1214
aVnote
p1215
aVwritten
p1216
aVupon
p1217
aVordinary
p1218
aVcreamlaid
p1219
aVpaper
p1220
aVwithout
p1221
aVwatermark
p1222
aVquartersheet
p1223
aVpaper
p1224
aVcut
p1225
aVtwo
p1226
aVsnips
p1227
aVshortbladed
p1228
aVscissors
p1229
aVfolded
p1230
aVthree
p1231
aVtimes
p1232
aVsealed
p1233
aVpurple
p1234
aVwax
p1235
aVput
p1236
aVhurriedly
p1237
aVpressed
p1238
aVflat
p1239
aVoval
p1240
aVobject
p1241
aVaddressed
p1242
aVmr
p1243
aVgarcia
p1244
aVwisteria
p1245
aVlodge
p1246
aVsays
p1247
aVcolours
p1248
aVgreen
p1249
aVwhite
p1250
aVgreen
p1251
aVopen
p1252
aVwhite
p1253
aVshut
p1254
aVmain
p1255
aVstair
p1256
aVfirst
p1257
aVcorridor
p1258
aVseventh
p1259
aVright
p1260
aVgreen
p1261
aVbaize
p1262
aVgodspeed
p1263
aVd
aVwoman
p1264
aVwriting
p1265
aVdone
p1266
aVsharppointed
p1267
aVpen
p1268
aVaddress
p1269
aVeither
p1270
aVdone
p1271
aVanother
p1272
aVpen
p1273
aVsomeone
p1274
aVelse
p1275
aVthicker
p1276
aVbolder
p1277
aVsee
p1278
aVremarkable
p1279
aVnote
p1280
aVsaid
p1281
aVholmes
p1282
aVglancing
p1283
aVmust
p1284
aVcompliment
p1285
aVmr
p1286
aVbaynes
p1287
aVupon
p1288
aVattention
p1289
aVdetail
p1290
aVexamination
p1291
aVtrifling
p1292
aVpoints
p1293
aVmight
p1294
aVperhaps
p1295
aVadded
p1296
aVoval
p1297
aVseal
p1298
aVundoubtedly
p1299
aVplain
p1300
aVsleevelink
p1301
aVelse
p1302
aVshape
p1303
aVscissors
p1304
aVbent
p1305
aVnail
p1306
aVscissors
p1307
aVshort
p1308
aVtwo
p1309
aVsnips
p1310
aVdistinctly
p1311
aVsee
p1312
aVslight
p1313
aVcurve
p1314
aVcountry
p1315
aVdetective
p1316
aVchuckled
p1317
aVthought
p1318
aVsqueezed
p1319
aVjuice
p1320
aVsee
p1321
aVlittle
p1322
aVsaid
p1323
aVm
aVbound
p1324
aVsay
p1325
aVmake
p1326
aVnothing
p1327
aVnote
p1328
aVexcept
p1329
aVsomething
p1330
aVhand
p1331
aVwoman
p1332
aVusual
p1333
aVbottom
p1334
aVmr
p1335
aVscott
p1336
aVeccles
p1337
aVfidgeted
p1338
aVseat
p1339
aVconversation
p1340
aVglad
p1341
aVfound
p1342
aVnote
p1343
aVsince
p1344
aVcorroborates
p1345
aVstory
p1346
aVsaid
p1347
aVbeg
p1348
aVpoint
p1349
aVyet
p1350
aVheard
p1351
aVhappened
p1352
aVmr
p1353
aVgarcia
p1354
aVbecome
p1355
aVhousehold
p1356
aVgarcia
p1357
aVsaid
p1358
aVgregson
p1359
aVeasily
p1360
aVanswered
p1361
aVfound
p1362
aVdead
p1363
aVmorning
p1364
aVupon
p1365
aVoxshott
p1366
aVcommon
p1367
aVnearly
p1368
aVmile
p1369
aVhome
p1370
aVhead
p1371
aVsmashed
p1372
aVpulp
p1373
aVheavy
p1374
aVblows
p1375
aVsandbag
p1376
aVinstrument
p1377
aVcrushed
p1378
aVrather
p1379
aVwounded
p1380
aVlonely
p1381
aVcorner
p1382
aVhouse
p1383
aVwithin
p1384
aVquarter
p1385
aVmile
p1386
aVspot
p1387
aVapparently
p1388
aVstruck
p1389
aVfirst
p1390
aVbehind
p1391
aVassailant
p1392
aVgone
p1393
aVbeating
p1394
aVlong
p1395
aVdead
p1396
aVfurious
p1397
aVassault
p1398
aVfootsteps
p1399
aVclue
p1400
aVcriminals
p1401
aVrobbed
p1402
aVattempt
p1403
aVrobbery
p1404
aVpainful
p1405
aVpainful
p1406
aVterrible
p1407
aVsaid
p1408
aVmr
p1409
aVscott
p1410
aVeccles
p1411
aVquerulous
p1412
aVvoice
p1413
aVreally
p1414
aVuncommonly
p1415
aVhard
p1416
aVnothing
p1417
aVhost
p1418
aVgoing
p1419
aVupon
p1420
aVnocturnal
p1421
aVexcursion
p1422
aVmeeting
p1423
aVsad
p1424
aVend
p1425
aVcome
p1426
aVmixed
p1427
aVcase
p1428
aVsimply
p1429
aVsir
p1430
aVinspector
p1431
aVbaynes
p1432
aVanswered
p1433
aVdocument
p1434
aVfound
p1435
aVpocket
p1436
aVdeceased
p1437
aVletter
p1438
aVsaying
p1439
aVwould
p1440
aVnight
p1441
aVdeath
p1442
aVenvelope
p1443
aVletter
p1444
aVgave
p1445
aVus
p1446
aVdead
p1447
aVman
p1448
aVname
p1449
aVaddress
p1450
aVnine
p1451
aVmorning
p1452
aVreached
p1453
aVhouse
p1454
aVfound
p1455
aVneither
p1456
aVanyone
p1457
aVelse
p1458
aVinside
p1459
aVwired
p1460
aVmr
p1461
aVgregson
p1462
aVrun
p1463
aVlondon
p1464
aVexamined
p1465
aVwisteria
p1466
aVlodge
p1467
aVcame
p1468
aVtown
p1469
aVjoined
p1470
aVmr
p1471
aVgregson
p1472
aVthink
p1473
aVsaid
p1474
aVgregson
p1475
aVrising
p1476
aVbest
p1477
aVput
p1478
aVmatter
p1479
aVofficial
p1480
aVshape
p1481
aVcome
p1482
aVround
p1483
aVus
p1484
aVstation
p1485
aVmr
p1486
aVscott
p1487
aVeccles
p1488
aVlet
p1489
aVus
p1490
aVstatement
p1491
aVwriting
p1492
aVcertainly
p1493
aVcome
p1494
aVretain
p1495
aVservices
p1496
aVmr
p1497
aVholmes
p1498
aVdesire
p1499
aVspare
p1500
aVexpense
p1501
aVpains
p1502
aVget
p1503
aVtruth
p1504
aVfriend
p1505
aVturned
p1506
aVcountry
p1507
aVinspector
p1508
aVsuppose
p1509
aVobjection
p1510
aVcollaborating
p1511
aVmr
p1512
aVbaynes
p1513
aVhighly
p1514
aVhonoured
p1515
aVsir
p1516
aVsure
p1517
aVappear
p1518
aVprompt
p1519
aVbusinesslike
p1520
aVdone
p1521
aVclue
p1522
aVmay
p1523
aVask
p1524
aVexact
p1525
aVhour
p1526
aVman
p1527
aVmet
p1528
aVdeath
p1529
aVsince
p1530
aVone
p1531
aVoclock
p1532
aVrain
p1533
aVtime
p1534
aVdeath
p1535
aVcertainly
p1536
aVrain
p1537
aVperfectly
p1538
aVimpossible
p1539
aVmr
p1540
aVbaynes
p1541
aVcried
p1542
aVclient
p1543
aVvoice
p1544
aVunmistakable
p1545
aVcould
p1546
aVswear
p1547
aVaddressed
p1548
aVbedroom
p1549
aVhour
p1550
aVremarkable
p1551
aVmeans
p1552
aVimpossible
p1553
aVsaid
p1554
aVholmes
p1555
aVsmiling
p1556
aVclue
p1557
aVasked
p1558
aVgregson
p1559
aVface
p1560
aVcase
p1561
aVcomplex
p1562
aVone
p1563
aVthough
p1564
aVcertainly
p1565
aVpresents
p1566
aVnovel
p1567
aVinteresting
p1568
aVfeatures
p1569
aVknowledge
p1570
aVfacts
p1571
aVnecessary
p1572
aVwould
p1573
aVventure
p1574
aVgive
p1575
aVfinal
p1576
aVdefinite
p1577
aVopinion
p1578
aVway
p1579
aVmr
p1580
aVbaynes
p1581
aVfind
p1582
aVanything
p1583
aVremarkable
p1584
aVbesides
p1585
aVnote
p1586
aVexamination
p1587
aVhouse
p1588
aVdetective
p1589
aVlooked
p1590
aVfriend
p1591
aVsingular
p1592
aVway
p1593
aVsaid
p1594
aVone
p1595
aVtwo
p1596
aVremarkable
p1597
aVthings
p1598
aVperhaps
p1599
aVfinished
p1600
aVpolicestation
p1601
aVwould
p1602
aVcare
p1603
aVcome
p1604
aVgive
p1605
aVopinion
p1606
aVentirely
p1607
aVservice
p1608
aVsaid
p1609
aVsherlock
p1610
aVholmes
p1611
aVringing
p1612
aVbell
p1613
aVshow
p1614
aVgentlemen
p1615
aVmrs
p1616
aVhudson
p1617
aVkindly
p1618
aVsend
p1619
aVboy
p1620
aVtelegram
p1621
aVpay
p1622
aVfiveshilling
p1623
aVreply
p1624
aVsat
p1625
aVtime
p1626
aVsilence
p1627
aVvisitors
p1628
aVleft
p1629
aVholmes
p1630
aVsmoked
p1631
aVhard
p1632
aVbrowns
p1633
aVdrawn
p1634
aVkeen
p1635
aVeyes
p1636
aVhead
p1637
aVthrust
p1638
aVforward
p1639
aVeager
p1640
aVway
p1641
aVcharacteristic
p1642
aVman
p1643
aVwell
p1644
aVwatson
p1645
aVasked
p1646
aVturning
p1647
aVsuddenly
p1648
aVupon
p1649
aVmake
p1650
aVmake
p1651
aVnothing
p1652
aVmystification
p1653
aVscott
p1654
aVeccles
p1655
aVcrime
p1656
aVwell
p1657
aVtaken
p1658
aVdisappearance
p1659
aVman
p1660
aVcompanions
p1661
aVsay
p1662
aVway
p1663
aVconcerned
p1664
aVmurder
p1665
aVfled
p1666
aVjustice
p1667
aVcertainly
p1668
aVpossible
p1669
aVpoint
p1670
aVview
p1671
aVface
p1672
aVmust
p1673
aVadmit
p1674
aVhowever
p1675
aVstrange
p1676
aVtwo
p1677
aVservants
p1678
aVconspiracy
p1679
aVattacked
p1680
aVone
p1681
aVnight
p1682
aVguest
p1683
aValone
p1684
aVmercy
p1685
aVevery
p1686
aVnight
p1687
aVweek
p1688
aVfly
p1689
aVquite
p1690
aVfly
p1691
aVbig
p1692
aVfact
p1693
aVanother
p1694
aVbig
p1695
aVfact
p1696
aVremarkable
p1697
aVexperience
p1698
aVclient
p1699
aVscott
p1700
aVeccles
p1701
aVdear
p1702
aVwatson
p1703
aVbeyond
p1704
aVlimits
p1705
aVhuman
p1706
aVingenuity
p1707
aVfurnish
p1708
aVexplanation
p1709
aVwould
p1710
aVcover
p1711
aVbig
p1712
aVfacts
p1713
aVone
p1714
aVwould
p1715
aValso
p1716
aVadmit
p1717
aVmysterious
p1718
aVnote
p1719
aVcurious
p1720
aVphraseology
p1721
aVwould
p1722
aVworth
p1723
aVaccepting
p1724
aVtemporary
p1725
aVhypothesis
p1726
aVfresh
p1727
aVfacts
p1728
aVcome
p1729
aVknowledge
p1730
aVfit
p1731
aVscheme
p1732
aVhypothesis
p1733
aVmay
p1734
aVgradually
p1735
aVbecome
p1736
aVsolution
p1737
aVhypothesis
p1738
aVholmes
p1739
aVleaned
p1740
aVback
p1741
aVchair
p1742
aVhalfclosed
p1743
aVeyes
p1744
aVmust
p1745
aVadmit
p1746
aVdear
p1747
aVwatson
p1748
aVidea
p1749
aVjoke
p1750
aVimpossible
p1751
aVgrave
p1752
aVevents
p1753
aVafoot
p1754
aVsequel
p1755
aVshowed
p1756
aVcoaxing
p1757
aVscott
p1758
aVeccles
p1759
aVwisteria
p1760
aVlodge
p1761
aVconnection
p1762
aVpossible
p1763
aVconnection
p1764
aVlet
p1765
aVus
p1766
aVtake
p1767
aVlink
p1768
aVlink
p1769
aVface
p1770
aVsomething
p1771
aVunnatural
p1772
aVstrange
p1773
aVsudden
p1774
aVfriendship
p1775
aVyoung
p1776
aVspaniard
p1777
aVscott
p1778
aVeccles
p1779
aVformer
p1780
aVforced
p1781
aVpace
p1782
aVcalled
p1783
aVupon
p1784
aVeccles
p1785
aVend
p1786
aVlondon
p1787
aVday
p1788
aVfirst
p1789
aVmet
p1790
aVkept
p1791
aVclose
p1792
aVtouch
p1793
aVgot
p1794
aVesher
p1795
aVwant
p1796
aVeccles
p1797
aVcould
p1798
aVeccles
p1799
aVsupply
p1800
aVsee
p1801
aVcharm
p1802
aVman
p1803
aVparticularly
p1804
aVintelligent
p1805
aVman
p1806
aVlikely
p1807
aVcongenial
p1808
aVquickwitted
p1809
aVlatin
p1810
aVpicked
p1811
aVpeople
p1812
aVgarcia
p1813
aVmet
p1814
aVparticularly
p1815
aVsuited
p1816
aVpurpose
p1817
aVone
p1818
aVoutstanding
p1819
aVquality
p1820
aVsay
p1821
aVtype
p1822
aVconventional
p1823
aVbritish
p1824
aVrespectability
p1825
aVman
p1826
aVwitness
p1827
aVimpress
p1828
aVanother
p1829
aVbriton
p1830
aVsaw
p1831
aVneither
p1832
aVinspectors
p1833
aVdreamed
p1834
aVquestioning
p1835
aVstatement
p1836
aVextraordinary
p1837
aVwitness
p1838
aVnothing
p1839
aVthings
p1840
aVturned
p1841
aVeverything
p1842
aVgone
p1843
aVanother
p1844
aVway
p1845
aVread
p1846
aVmatter
p1847
aVsee
p1848
aVmight
p1849
aVproved
p1850
aValibi
p1851
aVexactly
p1852
aVdear
p1853
aVwatson
p1854
aVmight
p1855
aVproved
p1856
aValibi
p1857
aVsuppose
p1858
aVargument
p1859
aVsake
p1860
aVhousehold
p1861
aVwisteria
p1862
aVlodge
p1863
aVconfederates
p1864
aVdesign
p1865
aVattempt
p1866
aVwhatever
p1867
aVmay
p1868
aVcome
p1869
aVsay
p1870
aVone
p1871
aVoclock
p1872
aVjuggling
p1873
aVclocks
p1874
aVquite
p1875
aVpossible
p1876
aVmay
p1877
aVgot
p1878
aVscott
p1879
aVeccles
p1880
aVbed
p1881
aVearlier
p1882
aVthought
p1883
aVcase
p1884
aVlikely
p1885
aVgarcia
p1886
aVwent
p1887
aVway
p1888
aVtell
p1889
aVone
p1890
aVreally
p1891
aVtwelve
p1892
aVgarcia
p1893
aVcould
p1894
aVwhatever
p1895
aVback
p1896
aVhour
p1897
aVmentioned
p1898
aVevidently
p1899
aVpowerful
p1900
aVreply
p1901
aVaccusation
p1902
aVirreproachable
p1903
aVenglishman
p1904
aVready
p1905
aVswear
p1906
aVcourt
p1907
aVlaw
p1908
aVaccused
p1909
aVhouse
p1910
aVtime
p1911
aVinsurance
p1912
aVworst
p1913
aVyes
p1914
aVyes
p1915
aVsee
p1916
aVdisappearance
p1917
aVothers
p1918
aVfacts
p1919
aVyet
p1920
aVthink
p1921
aVinsuperable
p1922
aVdifficulties
p1923
aVstill
p1924
aVerror
p1925
aVargue
p1926
aVfront
p1927
aVdata
p1928
aVfind
p1929
aVinsensibly
p1930
aVtwisting
p1931
aVround
p1932
aVfit
p1933
aVtheories
p1934
aVmessage
p1935
aVrun
p1936
aVcolours
p1937
aVgreen
p1938
aVwhite
p1939
aVsounds
p1940
aVlike
p1941
aVracing
p1942
aVgreen
p1943
aVopen
p1944
aVwhite
p1945
aVshut
p1946
aVclearly
p1947
aVsignal
p1948
aVmain
p1949
aVstair
p1950
aVfirst
p1951
aVcorridor
p1952
aVseventh
p1953
aVright
p1954
aVgreen
p1955
aVbaize
p1956
aVassignation
p1957
aVmay
p1958
aVfind
p1959
aVjealous
p1960
aVhusband
p1961
aVbottom
p1962
aVclearly
p1963
aVdangerous
p1964
aVquest
p1965
aVwould
p1966
aVsaid
p1967
aVgodspeed
p1968
aVd
aVguide
p1969
aVman
p1970
aVspaniard
p1971
aVsuggest
p1972
aVd
aVstands
p1973
aVdolores
p1974
aVcommon
p1975
aVfemale
p1976
aVname
p1977
aVspain
p1978
aVgood
p1979
aVwatson
p1980
aVgood
p1981
aVquite
p1982
aVinadmissable
p1983
aVspaniard
p1984
aVwould
p1985
aVwrite
p1986
aVspaniard
p1987
aVspanish
p1988
aVwriter
p1989
aVnote
p1990
aVcertainly
p1991
aVenglish
p1992
aVwell
p1993
aVpossess
p1994
aVsoul
p1995
aVpatience
p1996
aVexcellent
p1997
aVinspector
p1998
aVcome
p1999
aVback
p2000
aVus
p2001
aVmeanwhile
p2002
aVthank
p2003
aVlucky
p2004
aVfate
p2005
aVrescued
p2006
aVus
p2007
aVshort
p2008
aVhours
p2009
aVinsufferable
p2010
aVfatigues
p2011
aVidleness
p2012
aVanswer
p2013
aVarrived
p2014
aVholmes
p2015
aVtelegram
p2016
aVsurrey
p2017
aVofficer
p2018
aVreturned
p2019
aVholmes
p2020
aVread
p2021
aVplace
p2022
aVnotebook
p2023
aVcaught
p2024
aVglimpse
p2025
aVexpectant
p2026
aVface
p2027
aVtossed
p2028
aVacross
p2029
aVlaugh
p2030
aVmoving
p2031
aVexalted
p2032
aVcircles
p2033
aVsaid
p2034
aVtelegram
p2035
aVlist
p2036
aVnames
p2037
aVaddresses
p2038
aVlord
p2039
aVharringby
p2040
aVdingle
p2041
aVsir
p2042
aVgeorge
p2043
aVffolliott
p2044
aVoxshott
p2045
aVtowers
p2046
aVmr
p2047
aVhynes
p2048
aVhynes
p2049
aVjp
p2050
aVpurdley
p2051
aVplace
p2052
aVmr
p2053
aVjames
p2054
aVbaker
p2055
aVwilliams
p2056
aVforton
p2057
aVold
p2058
aVhall
p2059
aVmr
p2060
aVhenderson
p2061
aVhigh
p2062
aVgable
p2063
aVrev
p2064
aVjoshua
p2065
aVstone
p2066
aVnether
p2067
aVwalsling
p2068
aVobvious
p2069
aVway
p2070
aVlimiting
p2071
aVfield
p2072
aVoperations
p2073
aVsaid
p2074
aVholmes
p2075
aVdoubt
p2076
aVbaynes
p2077
aVmethodical
p2078
aVmind
p2079
aValready
p2080
aVadopted
p2081
aVsimilar
p2082
aVplan
p2083
aVnt
p2084
aVquite
p2085
aVunderstand
p2086
aVwell
p2087
aVdear
p2088
aVfellow
p2089
aValready
p2090
aVarrived
p2091
aVconclusion
p2092
aVmessage
p2093
aVreceived
p2094
aVgarcia
p2095
aVdinner
p2096
aVappointment
p2097
aVassignation
p2098
aVobvious
p2099
aVreading
p2100
aVcorrect
p2101
aVorder
p2102
aVkeep
p2103
aVtryst
p2104
aVone
p2105
aVascend
p2106
aVmain
p2107
aVstair
p2108
aVseek
p2109
aVseventh
p2110
aVdoor
p2111
aVcorridor
p2112
aVperfectly
p2113
aVclear
p2114
aVhouse
p2115
aVlarge
p2116
aVone
p2117
aVequally
p2118
aVcertain
p2119
aVhouse
p2120
aVmile
p2121
aVtwo
p2122
aVoxshott
p2123
aVsince
p2124
aVgarcia
p2125
aVwalking
p2126
aVdirection
p2127
aVhoped
p2128
aVaccording
p2129
aVreading
p2130
aVfacts
p2131
aVback
p2132
aVwisteria
p2133
aVlodge
p2134
aVtime
p2135
aVavail
p2136
aValibi
p2137
aVwould
p2138
aVvalid
p2139
aVone
p2140
aVoclock
p2141
aVnumber
p2142
aVlarge
p2143
aVhouses
p2144
aVclose
p2145
aVoxshott
p2146
aVmust
p2147
aVlimited
p2148
aVadopted
p2149
aVobvious
p2150
aVmethod
p2151
aVsending
p2152
aVagents
p2153
aVmentioned
p2154
aVscott
p2155
aVeccles
p2156
aVobtaining
p2157
aVlist
p2158
aVtelegram
p2159
aVend
p2160
aVtangled
p2161
aVskein
p2162
aVmust
p2163
aVlie
p2164
aVamong
p2165
aVnearly
p2166
aVsix
p2167
aVoclock
p2168
aVfound
p2169
aVpretty
p2170
aVsurrey
p2171
aVvillage
p2172
aVesher
p2173
aVinspector
p2174
aVbaynes
p2175
aVcompanion
p2176
aVholmes
p2177
aVtaken
p2178
aVthings
p2179
aVnight
p2180
aVfound
p2181
aVcomfortable
p2182
aVquarters
p2183
aVbull
p2184
aVfinally
p2185
aVset
p2186
aVcompany
p2187
aVdetective
p2188
aVvisit
p2189
aVwisteria
p2190
aVlodge
p2191
aVcold
p2192
aVdark
p2193
aVmarch
p2194
aVevening
p2195
aVsharp
p2196
aVwind
p2197
aVfine
p2198
aVrain
p2199
aVbeating
p2200
aVupon
p2201
aVfaces
p2202
aVfit
p2203
aVsetting
p2204
aVwild
p2205
aVcommon
p2206
aVroad
p2207
aVpassed
p2208
aVtragic
p2209
aVgoal
p2210
aVled
p2211
aVus
p2212
aVtiger
p2213
aVsan
p2214
aVpedro
p2215
aVcold
p2216
aVmelancholy
p2217
aVwalk
p2218
aVcouple
p2219
aVmiles
p2220
aVbrought
p2221
aVus
p2222
aVhigh
p2223
aVwooden
p2224
aVgate
p2225
aVopened
p2226
aVgloomy
p2227
aVavenue
p2228
aVchestnuts
p2229
aVcurved
p2230
aVshadowed
p2231
aVdrive
p2232
aVled
p2233
aVus
p2234
aVlow
p2235
aVdark
p2236
aVhouse
p2237
aVpitchblack
p2238
aVslatecoloured
p2239
aVsky
p2240
aVfront
p2241
aVwindow
p2242
aVupon
p2243
aVleft
p2244
aVdoor
p2245
aVpeeped
p2246
aVglimmer
p2247
aVfeeble
p2248
aVlight
p2249
aVconstable
p2250
aVpossession
p2251
aVsaid
p2252
aVbaynes
p2253
aVll
p2254
aVknock
p2255
aVwindow
p2256
aVstepped
p2257
aVacross
p2258
aVgrass
p2259
aVplot
p2260
aVtapped
p2261
aVhand
p2262
aVpane
p2263
aVfogged
p2264
aVglass
p2265
aVdimly
p2266
aVsaw
p2267
aVman
p2268
aVspring
p2269
aVchair
p2270
aVbeside
p2271
aVfire
p2272
aVheard
p2273
aVsharp
p2274
aVcry
p2275
aVwithin
p2276
aVroom
p2277
aVinstant
p2278
aVlater
p2279
aVwhitefaced
p2280
aVhardbreathing
p2281
aVpoliceman
p2282
aVopened
p2283
aVdoor
p2284
aVcandle
p2285
aVwavering
p2286
aVtrembling
p2287
aVhand
p2288
aVmatter
p2289
aVwalters
p2290
aVasked
p2291
aVbaynes
p2292
aVsharply
p2293
aVman
p2294
aVmopped
p2295
aVforehead
p2296
aVhandkerchief
p2297
aVgave
p2298
aVlong
p2299
aVsigh
p2300
aVrelief
p2301
aVglad
p2302
aVcome
p2303
aVsir
p2304
aVlong
p2305
aVevening
p2306
aVnt
p2307
aVthink
p2308
aVnerve
p2309
aVgood
p2310
aVnerve
p2311
aVwalters
p2312
aVthought
p2313
aVnerve
p2314
aVbody
p2315
aVwell
p2316
aVsir
p2317
aVlonely
p2318
aVsilent
p2319
aVhouse
p2320
aVqueer
p2321
aVthing
p2322
aVkitchen
p2323
aVtapped
p2324
aVwindow
p2325
aVthought
p2326
aVcome
p2327
aVcome
p2328
aVdevil
p2329
aVsir
p2330
aVknow
p2331
aVwindow
p2332
aVwindow
p2333
aVtwo
p2334
aVhours
p2335
aVago
p2336
aVlight
p2337
aVfading
p2338
aVsitting
p2339
aVreading
p2340
aVchair
p2341
aVnt
p2342
aVknow
p2343
aVmade
p2344
aVlook
p2345
aVface
p2346
aVlooking
p2347
aVlower
p2348
aVpane
p2349
aVlord
p2350
aVsir
p2351
aVface
p2352
aVll
p2353
aVsee
p2354
aVdreams
p2355
aVtut
p2356
aVtut
p2357
aVwalters
p2358
aVtalk
p2359
aVpoliceconstable
p2360
aVknow
p2361
aVsir
p2362
aVknow
p2363
aVshook
p2364
aVsir
p2365
aVuse
p2366
aVdeny
p2367
aVnt
p2368
aVblack
p2369
aVsir
p2370
aVwhite
p2371
aVcolour
p2372
aVknow
p2373
aVkind
p2374
aVqueer
p2375
aVshade
p2376
aVlike
p2377
aVclay
p2378
aVsplash
p2379
aVmilk
p2380
aVsize
p2381
aVtwice
p2382
aVsir
p2383
aVlook
p2384
aVgreat
p2385
aVstaring
p2386
aVgoggle
p2387
aVeyes
p2388
aVline
p2389
aVwhite
p2390
aVteeth
p2391
aVlike
p2392
aVhungry
p2393
aVbeast
p2394
aVtell
p2395
aVsir
p2396
aVcould
p2397
aVnt
p2398
aVmove
p2399
aVfinger
p2400
aVget
p2401
aVbreath
p2402
aVtill
p2403
aVwhisked
p2404
aVaway
p2405
aVgone
p2406
aVran
p2407
aVshrubbery
p2408
aVthank
p2409
aVgod
p2410
aVone
p2411
aVnt
p2412
aVknow
p2413
aVgood
p2414
aVman
p2415
aVwalters
p2416
aVput
p2417
aVblack
p2418
aVmark
p2419
aVdevil
p2420
aVconstable
p2421
aVduty
p2422
aVnever
p2423
aVthank
p2424
aVgod
p2425
aVcould
p2426
aVlay
p2427
aVhands
p2428
aVupon
p2429
aVsuppose
p2430
aVwhole
p2431
aVthing
p2432
aVvision
p2433
aVtouch
p2434
aVnerves
p2435
aVleast
p2436
aVeasily
p2437
aVsettled
p2438
aVsaid
p2439
aVholmes
p2440
aVlighting
p2441
aVlittle
p2442
aVpocket
p2443
aVlantern
p2444
aVyes
p2445
aVreported
p2446
aVshort
p2447
aVexamination
p2448
aVgrass
p2449
aVbed
p2450
aVnumber
p2451
aVtwelve
p2452
aVshoe
p2453
aVsay
p2454
aVscale
p2455
aVfoot
p2456
aVmust
p2457
aVcertainly
p2458
aVgiant
p2459
aVbecame
p2460
aVseems
p2461
aVbroken
p2462
aVshrubbery
p2463
aVmade
p2464
aVroad
p2465
aVwell
p2466
aVsaid
p2467
aVinspector
p2468
aVgrave
p2469
aVthoughtful
p2470
aVface
p2471
aVwhoever
p2472
aVmay
p2473
aVwhatever
p2474
aVmay
p2475
aVwanted
p2476
aVgone
p2477
aVpresent
p2478
aVimmediate
p2479
aVthings
p2480
aVattend
p2481
aVmr
p2482
aVholmes
p2483
aVpermission
p2484
aVshow
p2485
aVround
p2486
aVhouse
p2487
aVvarious
p2488
aVbedrooms
p2489
aVsittingrooms
p2490
aVyielded
p2491
aVnothing
p2492
aVcareful
p2493
aVsearch
p2494
aVapparently
p2495
aVtenants
p2496
aVbrought
p2497
aVlittle
p2498
aVnothing
p2499
aVfurniture
p2500
aVsmallest
p2501
aVdetails
p2502
aVtaken
p2503
aVhouse
p2504
aVgood
p2505
aVdeal
p2506
aVclothing
p2507
aVstamp
p2508
aVmarx
p2509
aVco
p2510
aVhigh
p2511
aVholborn
p2512
aVleft
p2513
aVbehind
p2514
aVtelegraphic
p2515
aVinquiries
p2516
aValready
p2517
aVmade
p2518
aVshowed
p2519
aVmarx
p2520
aVknew
p2521
aVnothing
p2522
aVcustomer
p2523
aVsave
p2524
aVgood
p2525
aVpayer
p2526
aVodds
p2527
aVends
p2528
aVpipes
p2529
aVnovels
p2530
aVtwo
p2531
aVspanish
p2532
aVoldfashioned
p2533
aVpinfire
p2534
aVrevolver
p2535
aVguitar
p2536
aVamong
p2537
aVpersonal
p2538
aVproperty
p2539
aVnothing
p2540
aVsaid
p2541
aVbaynes
p2542
aVstalking
p2543
aVcandle
p2544
aVhand
p2545
aVroom
p2546
aVroom
p2547
aVmr
p2548
aVholmes
p2549
aVinvite
p2550
aVattention
p2551
aVkitchen
p2552
aVgloomy
p2553
aVhighceilinged
p2554
aVroom
p2555
aVback
p2556
aVhouse
p2557
aVstraw
p2558
aVlitter
p2559
aVone
p2560
aVcorner
p2561
aVserved
p2562
aVapparently
p2563
aVbed
p2564
aVcook
p2565
aVtable
p2566
aVpiled
p2567
aVhalfeaten
p2568
aVdishes
p2569
aVdirty
p2570
aVplates
p2571
aVdebris
p2572
aVlast
p2573
aVnight
p2574
aVdinner
p2575
aVlook
p2576
aVsaid
p2577
aVbaynes
p2578
aVmake
p2579
aVheld
p2580
aVcandle
p2581
aVextraordinary
p2582
aVobject
p2583
aVstood
p2584
aVback
p2585
aVdresser
p2586
aVwrinkled
p2587
aVshrunken
p2588
aVwithered
p2589
aVdifficult
p2590
aVsay
p2591
aVmight
p2592
aVone
p2593
aVcould
p2594
aVsay
p2595
aVblack
p2596
aVleathery
p2597
aVbore
p2598
aVresemblance
p2599
aVdwarfish
p2600
aVhuman
p2601
aVfigure
p2602
aVfirst
p2603
aVexamined
p2604
aVthought
p2605
aVmummified
p2606
aVnegro
p2607
aVbaby
p2608
aVseemed
p2609
aVtwisted
p2610
aVancient
p2611
aVmonkey
p2612
aVfinally
p2613
aVleft
p2614
aVdoubt
p2615
aVwhether
p2616
aVanimal
p2617
aVhuman
p2618
aVdouble
p2619
aVband
p2620
aVwhite
p2621
aVshells
p2622
aVstrung
p2623
aVround
p2624
aVcentre
p2625
aVinteresting
p2626
aVinteresting
p2627
aVindeed
p2628
aVsaid
p2629
aVholmes
p2630
aVpeering
p2631
aVsinister
p2632
aVrelic
p2633
aVanything
p2634
aVsilence
p2635
aVbaynes
p2636
aVled
p2637
aVway
p2638
aVsink
p2639
aVheld
p2640
aVforward
p2641
aVcandle
p2642
aVlimbs
p2643
aVbody
p2644
aVlarge
p2645
aVwhite
p2646
aVbird
p2647
aVtorn
p2648
aVsavagely
p2649
aVpieces
p2650
aVfeathers
p2651
aVstill
p2652
aVlittered
p2653
aVholmes
p2654
aVpointed
p2655
aVwattles
p2656
aVsevered
p2657
aVhead
p2658
aVwhite
p2659
aVcock
p2660
aVsaid
p2661
aVinteresting
p2662
aVreally
p2663
aVcurious
p2664
aVcase
p2665
aVmr
p2666
aVbaynes
p2667
aVkept
p2668
aVsinister
p2669
aVexhibit
p2670
aVlast
p2671
aVsink
p2672
aVdrew
p2673
aVzinc
p2674
aVpail
p2675
aVcontained
p2676
aVquantity
p2677
aVblood
p2678
aVtable
p2679
aVtook
p2680
aVplatter
p2681
aVheaped
p2682
aVsmall
p2683
aVpieces
p2684
aVcharred
p2685
aVbone
p2686
aVsomething
p2687
aVkilled
p2688
aVsomething
p2689
aVburned
p2690
aVraked
p2691
aVfire
p2692
aVdoctor
p2693
aVmorning
p2694
aVsays
p2695
aVhuman
p2696
aVholmes
p2697
aVsmiled
p2698
aVrubbed
p2699
aVhands
p2700
aVmust
p2701
aVcongratulate
p2702
aVinspector
p2703
aVhandling
p2704
aVdistinctive
p2705
aVinstructive
p2706
aVcase
p2707
aVpowers
p2708
aVmay
p2709
aVsay
p2710
aVwithout
p2711
aVoffence
p2712
aVseem
p2713
aVsuperior
p2714
aVopportunities
p2715
aVinspector
p2716
aVbaynes
p2717
aVsmall
p2718
aVeyes
p2719
aVtwinkled
p2720
aVpleasure
p2721
aVre
p2722
aVright
p2723
aVmr
p2724
aVholmes
p2725
aVstagnate
p2726
aVprovinces
p2727
aVcase
p2728
aVsort
p2729
aVgives
p2730
aVman
p2731
aVchance
p2732
aVhope
p2733
aVshall
p2734
aVtake
p2735
aVmake
p2736
aVbones
p2737
aVlamb
p2738
aVsay
p2739
aVkid
p2740
aVwhite
p2741
aVcock
p2742
aVcurious
p2743
aVmr
p2744
aVbaynes
p2745
aVcurious
p2746
aVsay
p2747
aValmost
p2748
aVunique
p2749
aVyes
p2750
aVsir
p2751
aVmust
p2752
aVstrange
p2753
aVpeople
p2754
aVstrange
p2755
aVways
p2756
aVhouse
p2757
aVone
p2758
aVdead
p2759
aVcompanions
p2760
aVfollow
p2761
aVkill
p2762
aVevery
p2763
aVport
p2764
aVwatched
p2765
aVviews
p2766
aVdifferent
p2767
aVyes
p2768
aVsir
p2769
aVviews
p2770
aVdifferent
p2771
aVtheory
p2772
aVll
p2773
aVwork
p2774
aVmr
p2775
aVholmes
p2776
aVdue
p2777
aVcredit
p2778
aVname
p2779
aVmade
p2780
aVstill
p2781
aVmake
p2782
aVmine
p2783
aVglad
p2784
aVable
p2785
aVsay
p2786
aVafterwards
p2787
aVsolved
p2788
aVwithout
p2789
aVhelp
p2790
aVholmes
p2791
aVlaughed
p2792
aVgoodhumoredly
p2793
aVwell
p2794
aVwell
p2795
aVinspector
p2796
aVsaid
p2797
aVfollow
p2798
aVpath
p2799
aVfollow
p2800
aVmine
p2801
aVresults
p2802
aValways
p2803
aVmuch
p2804
aVservice
p2805
aVcare
p2806
aVapply
p2807
aVthink
p2808
aVseen
p2809
aVwish
p2810
aVhouse
p2811
aVtime
p2812
aVmay
p2813
aVprofitably
p2814
aVemployed
p2815
aVelsewhere
p2816
aVau
p2817
aVrevoir
p2818
aVgood
p2819
aVluck
p2820
aVcould
p2821
aVtell
p2822
aVnumerous
p2823
aVsubtle
p2824
aVsigns
p2825
aVmight
p2826
aVlost
p2827
aVupon
p2828
aVanyone
p2829
aVholmes
p2830
aVhot
p2831
aVscent
p2832
aVimpassive
p2833
aVever
p2834
aVcasual
p2835
aVobserver
p2836
aVnone
p2837
aVless
p2838
aVsubdued
p2839
aVeagerness
p2840
aVsuggestion
p2841
aVtension
p2842
aVbrightened
p2843
aVeyes
p2844
aVbrisker
p2845
aVmanner
p2846
aVassured
p2847
aVgame
p2848
aVafoot
p2849
aVhabit
p2850
aVsaid
p2851
aVnothing
p2852
aVmine
p2853
aVasked
p2854
aVquestions
p2855
aVsufficient
p2856
aVshare
p2857
aVsport
p2858
aVlend
p2859
aVhumble
p2860
aVhelp
p2861
aVcapture
p2862
aVwithout
p2863
aVdistracting
p2864
aVintent
p2865
aVbrain
p2866
aVneedless
p2867
aVinterruption
p2868
aVwould
p2869
aVcome
p2870
aVround
p2871
aVdue
p2872
aVtime
p2873
aVwaited
p2874
aVtherefore
p2875
aVeverdeepening
p2876
aVdisappointment
p2877
aVwaited
p2878
aVvain
p2879
aVday
p2880
aVsucceeded
p2881
aVday
p2882
aVfriend
p2883
aVtook
p2884
aVstep
p2885
aVforward
p2886
aVone
p2887
aVmorning
p2888
aVspent
p2889
aVtown
p2890
aVlearned
p2891
aVcasual
p2892
aVreference
p2893
aVvisited
p2894
aVbritish
p2895
aVmuseum
p2896
aVsave
p2897
aVone
p2898
aVexcursion
p2899
aVspent
p2900
aVdays
p2901
aVlong
p2902
aVoften
p2903
aVsolitary
p2904
aVwalks
p2905
aVchatting
p2906
aVnumber
p2907
aVvillage
p2908
aVgossips
p2909
aVwhose
p2910
aVacquaintance
p2911
aVcultivated
p2912
aVm
aVsure
p2913
aVwatson
p2914
aVweek
p2915
aVcountry
p2916
aVinvaluable
p2917
aVremarked
p2918
aVpleasant
p2919
aVsee
p2920
aVfirst
p2921
aVgreen
p2922
aVshoots
p2923
aVupon
p2924
aVhedges
p2925
aVcatkins
p2926
aVhazels
p2927
aVspud
p2928
aVtin
p2929
aVbox
p2930
aVelementary
p2931
aVbook
p2932
aVbotany
p2933
aVinstructive
p2934
aVdays
p2935
aVspent
p2936
aVprowled
p2937
aVequipment
p2938
aVpoor
p2939
aVshow
p2940
aVplants
p2941
aVwould
p2942
aVbring
p2943
aVback
p2944
aVevening
p2945
aVoccasionally
p2946
aVrambles
p2947
aVcame
p2948
aVacross
p2949
aVinspector
p2950
aVbaynes
p2951
aVfat
p2952
aVred
p2953
aVface
p2954
aVwreathed
p2955
aVsmiles
p2956
aVsmall
p2957
aVeyes
p2958
aVglittered
p2959
aVgreeted
p2960
aVcompanion
p2961
aVsaid
p2962
aVlittle
p2963
aVcase
p2964
aVlittle
p2965
aVgathered
p2966
aValso
p2967
aVdissatisfied
p2968
aVcourse
p2969
aVevents
p2970
aVmust
p2971
aVadmit
p2972
aVhowever
p2973
aVsomewhat
p2974
aVsurprised
p2975
aVfive
p2976
aVdays
p2977
aVcrime
p2978
aVopened
p2979
aVmorning
p2980
aVpaper
p2981
aVfind
p2982
aVlarge
p2983
aVletters
p2984
aVoxshott
p2985
aVmystery
p2986
aVsolution
p2987
aVarrest
p2988
aVsupposed
p2989
aVassassin
p2990
aVholmes
p2991
aVsprang
p2992
aVchair
p2993
aVstung
p2994
aVread
p2995
aVheadlines
p2996
aVjove
p2997
aVcried
p2998
aVnt
p2999
aVmean
p3000
aVbaynes
p3001
aVgot
p3002
aVapparently
p3003
aVsaid
p3004
aVread
p3005
aVfollowing
p3006
aVreport
p3007
aVgreat
p3008
aVexcitement
p3009
aVcaused
p3010
aVesher
p3011
aVneighbouring
p3012
aVdistrict
p3013
aVlearned
p3014
aVlate
p3015
aVlast
p3016
aVnight
p3017
aVarrest
p3018
aVeffected
p3019
aVconnection
p3020
aVoxshott
p3021
aVmurder
p3022
aVremembered
p3023
aVmr
p3024
aVgarcia
p3025
aVwisteria
p3026
aVlodge
p3027
aVfound
p3028
aVdead
p3029
aVoxshott
p3030
aVcommon
p3031
aVbody
p3032
aVshowing
p3033
aVsigns
p3034
aVextreme
p3035
aVviolence
p3036
aVnight
p3037
aVservant
p3038
aVcook
p3039
aVfled
p3040
aVappeared
p3041
aVshow
p3042
aVparticipation
p3043
aVcrime
p3044
aVsuggested
p3045
aVnever
p3046
aVproved
p3047
aVdeceased
p3048
aVgentleman
p3049
aVmay
p3050
aVvaluables
p3051
aVhouse
p3052
aVabstraction
p3053
aVmotive
p3054
aVcrime
p3055
aVevery
p3056
aVeffort
p3057
aVmade
p3058
aVinspector
p3059
aVbaynes
p3060
aVcase
p3061
aVhand
p3062
aVascertain
p3063
aVhiding
p3064
aVplace
p3065
aVfugitives
p3066
aVgood
p3067
aVreason
p3068
aVbelieve
p3069
aVgone
p3070
aVfar
p3071
aVlurking
p3072
aVretreat
p3073
aValready
p3074
aVprepared
p3075
aVcertain
p3076
aVfirst
p3077
aVhowever
p3078
aVwould
p3079
aVeventually
p3080
aVdetected
p3081
aVcook
p3082
aVevidence
p3083
aVone
p3084
aVtwo
p3085
aVtradespeople
p3086
aVcaught
p3087
aVglimpse
p3088
aVwindow
p3089
aVman
p3090
aVremarkable
p3091
aVappearance
p3092
aVhuge
p3093
aVhideous
p3094
aVmulatto
p3095
aVyellowish
p3096
aVfeatures
p3097
aVpronounced
p3098
aVnegroid
p3099
aVtype
p3100
aVman
p3101
aVseen
p3102
aVsince
p3103
aVcrime
p3104
aVdetected
p3105
aVpursued
p3106
aVconstable
p3107
aVwalters
p3108
aVevening
p3109
aVaudacity
p3110
aVrevisit
p3111
aVwisteria
p3112
aVlodge
p3113
aVinspector
p3114
aVbaynes
p3115
aVconsidering
p3116
aVvisit
p3117
aVmust
p3118
aVpurpose
p3119
aVview
p3120
aVlikely
p3121
aVtherefore
p3122
aVrepeated
p3123
aVabandoned
p3124
aVhouse
p3125
aVleft
p3126
aVambuscade
p3127
aVshrubbery
p3128
aVman
p3129
aVwalked
p3130
aVtrap
p3131
aVcaptured
p3132
aVlast
p3133
aVnight
p3134
aVstruggle
p3135
aVconstable
p3136
aVdowning
p3137
aVbadly
p3138
aVbitten
p3139
aVsavage
p3140
aVunderstand
p3141
aVprisoner
p3142
aVbrought
p3143
aVmagistrates
p3144
aVremand
p3145
aVapplied
p3146
aVpolice
p3147
aVgreat
p3148
aVdevelopments
p3149
aVhoped
p3150
aVcapture
p3151
aVreally
p3152
aVmust
p3153
aVsee
p3154
aVbaynes
p3155
aVcried
p3156
aVholmes
p3157
aVpicking
p3158
aVhat
p3159
aVcatch
p3160
aVstarts
p3161
aVhurried
p3162
aVvillage
p3163
aVstreet
p3164
aVfound
p3165
aVexpected
p3166
aVinspector
p3167
aVleaving
p3168
aVlodgings
p3169
aVve
p3170
aVseen
p3171
aVpaper
p3172
aVmr
p3173
aVholmes
p3174
aVasked
p3175
aVholding
p3176
aVone
p3177
aVus
p3178
aVyes
p3179
aVbaynes
p3180
aVve
p3181
aVseen
p3182
aVpray
p3183
aVnt
p3184
aVthink
p3185
aVliberty
p3186
aVgive
p3187
aVword
p3188
aVfriendly
p3189
aVwarning
p3190
aVwarning
p3191
aVmr
p3192
aVholmes
p3193
aVlooked
p3194
aVcase
p3195
aVcare
p3196
aVconvinced
p3197
aVright
p3198
aVlines
p3199
aVnt
p3200
aVwant
p3201
aVcommit
p3202
aVfar
p3203
aVunless
p3204
aVsure
p3205
aVre
p3206
aVkind
p3207
aVmr
p3208
aVholmes
p3209
aVassure
p3210
aVspeak
p3211
aVgood
p3212
aVseemed
p3213
aVsomething
p3214
aVlike
p3215
aVwink
p3216
aVquivered
p3217
aVinstant
p3218
aVone
p3219
aVmr
p3220
aVbaynes
p3221
aVtiny
p3222
aVeyes
p3223
aVagreed
p3224
aVwork
p3225
aVlines
p3226
aVmr
p3227
aVholmes
p3228
aVoh
p3229
aVgood
p3230
aVsaid
p3231
aVholmes
p3232
aVnt
p3233
aVblame
p3234
aVsir
p3235
aVbelieve
p3236
aVmean
p3237
aVwell
p3238
aVsystems
p3239
aVmr
p3240
aVholmes
p3241
aVmaybe
p3242
aVmine
p3243
aVlet
p3244
aVus
p3245
aVsay
p3246
aVre
p3247
aVwelcome
p3248
aValways
p3249
aVnews
p3250
aVfellow
p3251
aVperfect
p3252
aVsavage
p3253
aVstrong
p3254
aVcarthorse
p3255
aVfierce
p3256
aVdevil
p3257
aVchewed
p3258
aVdowning
p3259
aVthumb
p3260
aVnearly
p3261
aVcould
p3262
aVmaster
p3263
aVhardly
p3264
aVspeaks
p3265
aVword
p3266
aVenglish
p3267
aVget
p3268
aVnothing
p3269
aVgrunts
p3270
aVthink
p3271
aVevidence
p3272
aVmurdered
p3273
aVlate
p3274
aVmaster
p3275
aVnt
p3276
aVsay
p3277
aVmr
p3278
aVholmes
p3279
aVnt
p3280
aVsay
p3281
aVlittle
p3282
aVways
p3283
aVtry
p3284
aVtry
p3285
aVmine
p3286
aVagreement
p3287
aVholmes
p3288
aVshrugged
p3289
aVshoulders
p3290
aVwalked
p3291
aVaway
p3292
aVtogether
p3293
aVca
p3294
aVnt
p3295
aVmake
p3296
aVman
p3297
aVseems
p3298
aVriding
p3299
aVfall
p3300
aVwell
p3301
aVsays
p3302
aVmust
p3303
aVtry
p3304
aVway
p3305
aVsee
p3306
aVcomes
p3307
aVsomething
p3308
aVinspector
p3309
aVbaynes
p3310
aVca
p3311
aVnt
p3312
aVquite
p3313
aVunderstand
p3314
aVsit
p3315
aVchair
p3316
aVwatson
p3317
aVsaid
p3318
aVsherlock
p3319
aVholmes
p3320
aVreturned
p3321
aVapartment
p3322
aVbull
p3323
aVwant
p3324
aVput
p3325
aVtouch
p3326
aVsituation
p3327
aVmay
p3328
aVneed
p3329
aVhelp
p3330
aVtonight
p3331
aVlet
p3332
aVshow
p3333
aVevolution
p3334
aVcase
p3335
aVfar
p3336
aVable
p3337
aVfollow
p3338
aVsimple
p3339
aVleading
p3340
aVfeatures
p3341
aVnone
p3342
aVless
p3343
aVpresented
p3344
aVsurprising
p3345
aVdifficulties
p3346
aVway
p3347
aVarrest
p3348
aVgaps
p3349
aVdirection
p3350
aVstill
p3351
aVfill
p3352
aVgo
p3353
aVback
p3354
aVnote
p3355
aVhanded
p3356
aVgarcia
p3357
aVupon
p3358
aVevening
p3359
aVdeath
p3360
aVmay
p3361
aVput
p3362
aVaside
p3363
aVidea
p3364
aVbaynes
p3365
aVgarcia
p3366
aVservants
p3367
aVconcerned
p3368
aVmatter
p3369
aVproof
p3370
aVlies
p3371
aVfact
p3372
aVarranged
p3373
aVpresence
p3374
aVscott
p3375
aVeccles
p3376
aVcould
p3377
aVdone
p3378
aVpurpose
p3379
aValibi
p3380
aVgarcia
p3381
aVenterprise
p3382
aVapparently
p3383
aVcriminal
p3384
aVenterprise
p3385
aVhand
p3386
aVnight
p3387
aVcourse
p3388
aVmet
p3389
aVdeath
p3390
aVsay
p3391
aVcriminal
p3392
aVman
p3393
aVcriminal
p3394
aVenterprise
p3395
aVdesires
p3396
aVestablish
p3397
aValibi
p3398
aVlikely
p3399
aVtaken
p3400
aVlife
p3401
aVsurely
p3402
aVperson
p3403
aVcriminal
p3404
aVenterprise
p3405
aVdirected
p3406
aVfar
p3407
aVseems
p3408
aVsafe
p3409
aVground
p3410
aVsee
p3411
aVreason
p3412
aVdisappearance
p3413
aVgarcia
p3414
aVhousehold
p3415
aVconfederates
p3416
aVunknown
p3417
aVcrime
p3418
aVcame
p3419
aVgarcia
p3420
aVreturned
p3421
aVpossible
p3422
aVsuspicion
p3423
aVwould
p3424
aVwarded
p3425
aVenglishman
p3426
aVevidence
p3427
aVwould
p3428
aVwell
p3429
aVattempt
p3430
aVdangerous
p3431
aVone
p3432
aVgarcia
p3433
aVreturn
p3434
aVcertain
p3435
aVhour
p3436
aVprobable
p3437
aVlife
p3438
aVsacrificed
p3439
aVarranged
p3440
aVtherefore
p3441
aVcase
p3442
aVtwo
p3443
aVsubordinates
p3444
aVmake
p3445
aVprearranged
p3446
aVspot
p3447
aVcould
p3448
aVescape
p3449
aVinvestigation
p3450
aVposition
p3451
aVafterwards
p3452
aVrenew
p3453
aVattempt
p3454
aVwould
p3455
aVfully
p3456
aVexplain
p3457
aVfacts
p3458
aVwould
p3459
aVwhole
p3460
aVinexplicable
p3461
aVtangle
p3462
aVseemed
p3463
aVstraighten
p3464
aVwondered
p3465
aValways
p3466
aVobvious
p3467
aVone
p3468
aVservant
p3469
aVreturn
p3470
aVimagine
p3471
aVconfusion
p3472
aVflight
p3473
aVsomething
p3474
aVprecious
p3475
aVsomething
p3476
aVcould
p3477
aVbear
p3478
aVpart
p3479
aVleft
p3480
aVbehind
p3481
aVwould
p3482
aVexplain
p3483
aVpersistence
p3484
aVwould
p3485
aVwell
p3486
aVnext
p3487
aVstep
p3488
aVnext
p3489
aVstep
p3490
aVnote
p3491
aVreceived
p3492
aVgarcia
p3493
aVdinner
p3494
aVindicates
p3495
aVconfederate
p3496
aVend
p3497
aVend
p3498
aValready
p3499
aVshown
p3500
aVcould
p3501
aVlie
p3502
aVlarge
p3503
aVhouse
p3504
aVnumber
p3505
aVlarge
p3506
aVhouses
p3507
aVlimited
p3508
aVfirst
p3509
aVdays
p3510
aVvillage
p3511
aVdevoted
p3512
aVseries
p3513
aVwalks
p3514
aVintervals
p3515
aVbotanical
p3516
aVresearches
p3517
aVmade
p3518
aVreconnaissance
p3519
aVlarge
p3520
aVhouses
p3521
aVexamination
p3522
aVfamily
p3523
aVhistory
p3524
aVoccupants
p3525
aVone
p3526
aVhouse
p3527
aVone
p3528
aVriveted
p3529
aVattention
p3530
aVfamous
p3531
aVold
p3532
aVjacobean
p3533
aVgrange
p3534
aVhigh
p3535
aVgable
p3536
aVone
p3537
aVmile
p3538
aVfarther
p3539
aVside
p3540
aVoxshott
p3541
aVless
p3542
aVhalf
p3543
aVmile
p3544
aVscene
p3545
aVtragedy
p3546
aVmansions
p3547
aVbelonged
p3548
aVprosaic
p3549
aVrespectable
p3550
aVpeople
p3551
aVlive
p3552
aVfar
p3553
aValoof
p3554
aVromance
p3555
aVmr
p3556
aVhenderson
p3557
aVhigh
p3558
aVgable
p3559
aVaccounts
p3560
aVcurious
p3561
aVman
p3562
aVcurious
p3563
aVadventures
p3564
aVmight
p3565
aVbefall
p3566
aVconcentrated
p3567
aVattention
p3568
aVtherefore
p3569
aVupon
p3570
aVhousehold
p3571
aVsingular
p3572
aVset
p3573
aVpeople
p3574
aVwatson
p3575
aVman
p3576
aVsingular
p3577
aVmanaged
p3578
aVsee
p3579
aVplausible
p3580
aVpretext
p3581
aVseemed
p3582
aVread
p3583
aVdark
p3584
aVdeepset
p3585
aVbrooding
p3586
aVeyes
p3587
aVperfectly
p3588
aVaware
p3589
aVtrue
p3590
aVbusiness
p3591
aVman
p3592
aVfifty
p3593
aVstrong
p3594
aVactive
p3595
aVirongray
p3596
aVhair
p3597
aVgreat
p3598
aVbunched
p3599
aVblack
p3600
aVeyebrows
p3601
aVstep
p3602
aVdeer
p3603
aVair
p3604
aVemperor
p3605
aVfierce
p3606
aVmasterful
p3607
aVman
p3608
aVredhot
p3609
aVspirit
p3610
aVbehind
p3611
aVparchment
p3612
aVface
p3613
aVeither
p3614
aVforeigner
p3615
aVlived
p3616
aVlong
p3617
aVtropics
p3618
aVyellow
p3619
aVsapless
p3620
aVtough
p3621
aVwhipcord
p3622
aVfriend
p3623
aVsecretary
p3624
aVmr
p3625
aVlucas
p3626
aVundoubtedly
p3627
aVforeigner
p3628
aVchocolate
p3629
aVbrown
p3630
aVwily
p3631
aVsuave
p3632
aVcatlike
p3633
aVpoisonous
p3634
aVgentleness
p3635
aVspeech
p3636
aVsee
p3637
aVwatson
p3638
aVcome
p3639
aValready
p3640
aVupon
p3641
aVtwo
p3642
aVsets
p3643
aVforeigners
p3644
aVone
p3645
aVwisteria
p3646
aVlodge
p3647
aVone
p3648
aVhigh
p3649
aVgable
p3650
aVgaps
p3651
aVbeginning
p3652
aVclose
p3653
aVtwo
p3654
aVmen
p3655
aVclose
p3656
aVconfidential
p3657
aVfriends
p3658
aVcentre
p3659
aVhousehold
p3660
aVone
p3661
aVperson
p3662
aVimmediate
p3663
aVpurpose
p3664
aVmay
p3665
aVeven
p3666
aVimportant
p3667
aVhenderson
p3668
aVtwo
p3669
aVchildren
p3670
aVgirls
p3671
aVeleven
p3672
aVthirteen
p3673
aVgoverness
p3674
aVmiss
p3675
aVburnet
p3676
aVenglishwoman
p3677
aVforty
p3678
aVthereabouts
p3679
aValso
p3680
aVone
p3681
aVconfidential
p3682
aVmanservant
p3683
aVlittle
p3684
aVgroup
p3685
aVforms
p3686
aVreal
p3687
aVfamily
p3688
aVtravel
p3689
aVtogether
p3690
aVhenderson
p3691
aVgreat
p3692
aVtraveller
p3693
aValways
p3694
aVmove
p3695
aVwithin
p3696
aVlast
p3697
aVweeks
p3698
aVreturned
p3699
aVyear
p3700
aVabsence
p3701
aVhigh
p3702
aVgable
p3703
aVmay
p3704
aVadd
p3705
aVenormously
p3706
aVrich
p3707
aVwhatever
p3708
aVwhims
p3709
aVmay
p3710
aVeasily
p3711
aVsatisfy
p3712
aVrest
p3713
aVhouse
p3714
aVfull
p3715
aVbutlers
p3716
aVfootmen
p3717
aVmaidservants
p3718
aVusual
p3719
aVoverfed
p3720
aVunderworked
p3721
aVstaff
p3722
aVlarge
p3723
aVenglish
p3724
aVcountry
p3725
aVhouse
p3726
aVmuch
p3727
aVlearned
p3728
aVpartly
p3729
aVvillage
p3730
aVgossip
p3731
aVpartly
p3732
aVobservation
p3733
aVbetter
p3734
aVinstruments
p3735
aVdischarged
p3736
aVservants
p3737
aVgrievance
p3738
aVlucky
p3739
aVenough
p3740
aVfind
p3741
aVone
p3742
aVcall
p3743
aVluck
p3744
aVwould
p3745
aVcome
p3746
aVway
p3747
aVlooking
p3748
aVbaynes
p3749
aVremarks
p3750
aVsystems
p3751
aVsystem
p3752
aVenabled
p3753
aVfind
p3754
aVjohn
p3755
aVwarner
p3756
aVlate
p3757
aVgardener
p3758
aVhigh
p3759
aVgable
p3760
aVsacked
p3761
aVmoment
p3762
aVtemper
p3763
aVimperious
p3764
aVemployer
p3765
aVturn
p3766
aVfriends
p3767
aVamong
p3768
aVindoor
p3769
aVservants
p3770
aVunite
p3771
aVfear
p3772
aVdislike
p3773
aVmaster
p3774
aVkey
p3775
aVsecrets
p3776
aVestablishment
p3777
aVcurious
p3778
aVpeople
p3779
aVwatson
p3780
aVnt
p3781
aVpretend
p3782
aVunderstand
p3783
aVyet
p3784
aVcurious
p3785
aVpeople
p3786
aVanyway
p3787
aVdoublewinged
p3788
aVhouse
p3789
aVservants
p3790
aVlive
p3791
aVone
p3792
aVside
p3793
aVfamily
p3794
aVlink
p3795
aVtwo
p3796
aVsave
p3797
aVhenderson
p3798
aVservant
p3799
aVserves
p3800
aVfamily
p3801
aVmeals
p3802
aVeverything
p3803
aVcarried
p3804
aVcertain
p3805
aVdoor
p3806
aVforms
p3807
aVone
p3808
aVconnection
p3809
aVgoverness
p3810
aVchildren
p3811
aVhardly
p3812
aVgo
p3813
aVexcept
p3814
aVgarden
p3815
aVhenderson
p3816
aVnever
p3817
aVchance
p3818
aVwalks
p3819
aValone
p3820
aVdark
p3821
aVsecretary
p3822
aVlike
p3823
aVshadow
p3824
aVgossip
p3825
aVamong
p3826
aVservants
p3827
aVmaster
p3828
aVterribly
p3829
aVafraid
p3830
aVsomething
p3831
aVsold
p3832
aVsoul
p3833
aVdevil
p3834
aVexchange
p3835
aVmoney
p3836
aVsays
p3837
aVwarner
p3838
aVexpects
p3839
aVcreditor
p3840
aVcome
p3841
aVclaim
p3842
aVcame
p3843
aVnobody
p3844
aVidea
p3845
aVviolent
p3846
aVtwice
p3847
aVhenderson
p3848
aVlashed
p3849
aVfolk
p3850
aVdogwhip
p3851
aVlong
p3852
aVpurse
p3853
aVheavy
p3854
aVcompensation
p3855
aVkept
p3856
aVcourts
p3857
aVwell
p3858
aVwatson
p3859
aVlet
p3860
aVus
p3861
aVjudge
p3862
aVsituation
p3863
aVnew
p3864
aVinformation
p3865
aVmay
p3866
aVtake
p3867
aVletter
p3868
aVcame
p3869
aVstrange
p3870
aVhousehold
p3871
aVinvitation
p3872
aVgarcia
p3873
aVcarry
p3874
aVattempt
p3875
aValready
p3876
aVplanned
p3877
aVwrote
p3878
aVnote
p3879
aVsomeone
p3880
aVwithin
p3881
aVcitadel
p3882
aVwoman
p3883
aVmiss
p3884
aVburnet
p3885
aVgoverness
p3886
aVreasoning
p3887
aVseems
p3888
aVpoint
p3889
aVway
p3890
aVrate
p3891
aVmay
p3892
aVtake
p3893
aVhypothesis
p3894
aVsee
p3895
aVconsequences
p3896
aVwould
p3897
aVentail
p3898
aVmay
p3899
aVadd
p3900
aVmiss
p3901
aVburnet
p3902
aVage
p3903
aVcharacter
p3904
aVmake
p3905
aVcertain
p3906
aVfirst
p3907
aVidea
p3908
aVmight
p3909
aVlove
p3910
aVinterest
p3911
aVstory
p3912
aVquestion
p3913
aVwrote
p3914
aVnote
p3915
aVpresumably
p3916
aVfriend
p3917
aVconfederate
p3918
aVgarcia
p3919
aVmight
p3920
aVexpected
p3921
aVheard
p3922
aVdeath
p3923
aVmet
p3924
aVnefarious
p3925
aVenterprise
p3926
aVlips
p3927
aVmight
p3928
aVsealed
p3929
aVstill
p3930
aVheart
p3931
aVmust
p3932
aVretain
p3933
aVbitterness
p3934
aVhatred
p3935
aVkilled
p3936
aVwould
p3937
aVpresumably
p3938
aVhelp
p3939
aVfar
p3940
aVcould
p3941
aVrevenge
p3942
aVupon
p3943
aVcould
p3944
aVsee
p3945
aVtry
p3946
aVuse
p3947
aVfirst
p3948
aVthought
p3949
aVcome
p3950
aVsinister
p3951
aVfact
p3952
aVmiss
p3953
aVburnet
p3954
aVseen
p3955
aVhuman
p3956
aVeye
p3957
aVsince
p3958
aVnight
p3959
aVmurder
p3960
aVevening
p3961
aVutterly
p3962
aVvanished
p3963
aValive
p3964
aVperhaps
p3965
aVmet
p3966
aVend
p3967
aVnight
p3968
aVfriend
p3969
aVsummoned
p3970
aVmerely
p3971
aVprisoner
p3972
aVpoint
p3973
aVstill
p3974
aVdecide
p3975
aVappreciate
p3976
aVdifficulty
p3977
aVsituation
p3978
aVwatson
p3979
aVnothing
p3980
aVupon
p3981
aVapply
p3982
aVwarrant
p3983
aVwhole
p3984
aVscheme
p3985
aVmight
p3986
aVseem
p3987
aVfantastic
p3988
aVlaid
p3989
aVmagistrate
p3990
aVwoman
p3991
aVdisappearance
p3992
aVcounts
p3993
aVnothing
p3994
aVsince
p3995
aVextraordinary
p3996
aVhousehold
p3997
aVmember
p3998
aVmight
p3999
aVinvisible
p4000
aVweek
p4001
aVyet
p4002
aVmay
p4003
aVpresent
p4004
aVmoment
p4005
aVdanger
p4006
aVlife
p4007
aVwatch
p4008
aVhouse
p4009
aVleave
p4010
aVagent
p4011
aVwarner
p4012
aVguard
p4013
aVgates
p4014
aVca
p4015
aVnt
p4016
aVlet
p4017
aVsituation
p4018
aVcontinue
p4019
aVlaw
p4020
aVnothing
p4021
aVmust
p4022
aVtake
p4023
aVrisk
p4024
aVsuggest
p4025
aVknow
p4026
aVroom
p4027
aVaccessible
p4028
aVtop
p4029
aVouthouse
p4030
aVsuggestion
p4031
aVgo
p4032
aVtonight
p4033
aVsee
p4034
aVstrike
p4035
aVheart
p4036
aVmystery
p4037
aVmust
p4038
aVconfess
p4039
aValluring
p4040
aVprospect
p4041
aVold
p4042
aVhouse
p4043
aVatmosphere
p4044
aVmurder
p4045
aVsingular
p4046
aVformidable
p4047
aVinhabitants
p4048
aVunknown
p4049
aVdangers
p4050
aVapproach
p4051
aVfact
p4052
aVputting
p4053
aVlegally
p4054
aVfalse
p4055
aVposition
p4056
aVcombined
p4057
aVdamp
p4058
aVardour
p4059
aVsomething
p4060
aVicecold
p4061
aVreasoning
p4062
aVholmes
p4063
aVmade
p4064
aVimpossible
p4065
aVshrink
p4066
aVadventure
p4067
aVmight
p4068
aVrecommend
p4069
aVone
p4070
aVknew
p4071
aVthus
p4072
aVthus
p4073
aVcould
p4074
aVsolution
p4075
aVfound
p4076
aVclasped
p4077
aVhand
p4078
aVsilence
p4079
aVdie
p4080
aVcast
p4081
aVdestined
p4082
aVinvestigation
p4083
aVadventurous
p4084
aVending
p4085
aVfive
p4086
aVoclock
p4087
aVshadows
p4088
aVmarch
p4089
aVevening
p4090
aVbeginning
p4091
aVfall
p4092
aVexcited
p4093
aVrustic
p4094
aVrushed
p4095
aVroom
p4096
aVve
p4097
aVgone
p4098
aVmr
p4099
aVholmes
p4100
aVwent
p4101
aVlast
p4102
aVtrain
p4103
aVlady
p4104
aVbroke
p4105
aVaway
p4106
aVve
p4107
aVgot
p4108
aVcab
p4109
aVdownstairs
p4110
aVexcellent
p4111
aVwarner
p4112
aVcried
p4113
aVholmes
p4114
aVspringing
p4115
aVfeet
p4116
aVwatson
p4117
aVgaps
p4118
aVclosing
p4119
aVrapidly
p4120
aVcab
p4121
aVwoman
p4122
aVhalfcollapsed
p4123
aVnervous
p4124
aVexhaustion
p4125
aVbore
p4126
aVupon
p4127
aVaquiline
p4128
aVemaciated
p4129
aVface
p4130
aVtraces
p4131
aVrecent
p4132
aVtragedy
p4133
aVhead
p4134
aVhung
p4135
aVlistlessly
p4136
aVupon
p4137
aVbreast
p4138
aVraised
p4139
aVturned
p4140
aVdull
p4141
aVeyes
p4142
aVupon
p4143
aVus
p4144
aVsaw
p4145
aVpupils
p4146
aVdark
p4147
aVdots
p4148
aVcentre
p4149
aVbroad
p4150
aVgray
p4151
aViris
p4152
aVdrugged
p4153
aVopium
p4154
aVwatched
p4155
aVgate
p4156
aVadvised
p4157
aVmr
p4158
aVholmes
p4159
aVsaid
p4160
aVemissary
p4161
aVdischarged
p4162
aVgardener
p4163
aVcarriage
p4164
aVcame
p4165
aVfollowed
p4166
aVstation
p4167
aVlike
p4168
aVone
p4169
aVwalking
p4170
aVsleep
p4171
aVtried
p4172
aVget
p4173
aVtrain
p4174
aVcame
p4175
aVlife
p4176
aVstruggled
p4177
aVpushed
p4178
aVcarriage
p4179
aVfought
p4180
aVway
p4181
aVtook
p4182
aVpart
p4183
aVgot
p4184
aVcab
p4185
aVsha
p4186
aVnt
p4187
aVforget
p4188
aVface
p4189
aVcarriage
p4190
aVwindow
p4191
aVled
p4192
aVaway
p4193
aVd
aVshort
p4194
aVlife
p4195
aVway
p4196
aVblackeyed
p4197
aVscowling
p4198
aVyellow
p4199
aVdevil
p4200
aVcarried
p4201
aVupstairs
p4202
aVlaid
p4203
aVsofa
p4204
aVcouple
p4205
aVcups
p4206
aVstrongest
p4207
aVcoffee
p4208
aVsoon
p4209
aVcleared
p4210
aVbrain
p4211
aVmists
p4212
aVdrug
p4213
aVbaynes
p4214
aVsummoned
p4215
aVholmes
p4216
aVsituation
p4217
aVrapidly
p4218
aVexplained
p4219
aVsir
p4220
aVve
p4221
aVgot
p4222
aVevidence
p4223
aVwant
p4224
aVsaid
p4225
aVinspector
p4226
aVwarmly
p4227
aVshaking
p4228
aVfriend
p4229
aVhand
p4230
aVscent
p4231
aVfirst
p4232
aVhenderson
p4233
aVmr
p4234
aVholmes
p4235
aVcrawling
p4236
aVshrubbery
p4237
aVhigh
p4238
aVgable
p4239
aVone
p4240
aVtrees
p4241
aVplantation
p4242
aVsaw
p4243
aVwould
p4244
aVget
p4245
aVevidence
p4246
aVfirst
p4247
aVarrest
p4248
aVmulatto
p4249
aVbaynes
p4250
aVchuckled
p4251
aVsure
p4252
aVhenderson
p4253
aVcalls
p4254
aVfelt
p4255
aVsuspected
p4256
aVwould
p4257
aVlie
p4258
aVlow
p4259
aVmake
p4260
aVmove
p4261
aVlong
p4262
aVthought
p4263
aVdanger
p4264
aVarrested
p4265
aVwrong
p4266
aVman
p4267
aVmake
p4268
aVbelieve
p4269
aVeyes
p4270
aVknew
p4271
aVwould
p4272
aVlikely
p4273
aVclear
p4274
aVgive
p4275
aVus
p4276
aVchance
p4277
aVgetting
p4278
aVmiss
p4279
aVburnet
p4280
aVholmes
p4281
aVlaid
p4282
aVhand
p4283
aVupon
p4284
aVinspector
p4285
aVshoulder
p4286
aVrise
p4287
aVhigh
p4288
aVprofession
p4289
aVinstinct
p4290
aVintuition
p4291
aVsaid
p4292
aVbaynes
p4293
aVflushed
p4294
aVpleasure
p4295
aVve
p4296
aVplainclothes
p4297
aVman
p4298
aVwaiting
p4299
aVstation
p4300
aVweek
p4301
aVwherever
p4302
aVhigh
p4303
aVgable
p4304
aVfolk
p4305
aVgo
p4306
aVkeep
p4307
aVsight
p4308
aVmust
p4309
aVhard
p4310
aVput
p4311
aVmiss
p4312
aVburnet
p4313
aVbroke
p4314
aVaway
p4315
aVhowever
p4316
aVman
p4317
aVpicked
p4318
aVends
p4319
aVwell
p4320
aVca
p4321
aVnt
p4322
aVarrest
p4323
aVwithout
p4324
aVevidence
p4325
aVclear
p4326
aVsooner
p4327
aVget
p4328
aVstatement
p4329
aVbetter
p4330
aVevery
p4331
aVminute
p4332
aVgets
p4333
aVstronger
p4334
aVsaid
p4335
aVholmes
p4336
aVglancing
p4337
aVgoverness
p4338
aVtell
p4339
aVbaynes
p4340
aVman
p4341
aVhenderson
p4342
aVhenderson
p4343
aVinspector
p4344
aVanswered
p4345
aVmurillo
p4346
aVcalled
p4347
aVtiger
p4348
aVsan
p4349
aVpedro
p4350
aVtiger
p4351
aVsan
p4352
aVpedro
p4353
aVwhole
p4354
aVhistory
p4355
aVman
p4356
aVcame
p4357
aVback
p4358
aVflash
p4359
aVmade
p4360
aVname
p4361
aVlewd
p4362
aVbloodthirsty
p4363
aVtyrant
p4364
aVever
p4365
aVgoverned
p4366
aVcountry
p4367
aVpretence
p4368
aVcivilization
p4369
aVstrong
p4370
aVfearless
p4371
aVenergetic
p4372
aVsufficient
p4373
aVvirtue
p4374
aVenable
p4375
aVimpose
p4376
aVodious
p4377
aVvices
p4378
aVupon
p4379
aVcowering
p4380
aVpeople
p4381
aVten
p4382
aVtwelve
p4383
aVyears
p4384
aVname
p4385
aVterror
p4386
aVcentral
p4387
aVamerica
p4388
aVend
p4389
aVtime
p4390
aVuniversal
p4391
aVrising
p4392
aVcunning
p4393
aVcruel
p4394
aVfirst
p4395
aVwhisper
p4396
aVcoming
p4397
aVtrouble
p4398
aVsecretly
p4399
aVconveyed
p4400
aVtreasures
p4401
aVaboard
p4402
aVship
p4403
aVmanned
p4404
aVdevoted
p4405
aVadherents
p4406
aVempty
p4407
aVpalace
p4408
aVstormed
p4409
aVinsurgents
p4410
aVnext
p4411
aVday
p4412
aVdictator
p4413
aVtwo
p4414
aVchildren
p4415
aVsecretary
p4416
aVwealth
p4417
aVescaped
p4418
aVmoment
p4419
aVvanished
p4420
aVworld
p4421
aVidentity
p4422
aVfrequent
p4423
aVsubject
p4424
aVcomment
p4425
aVeuropean
p4426
aVpress
p4427
aVyes
p4428
aVsir
p4429
aVmurillo
p4430
aVtiger
p4431
aVsan
p4432
aVpedro
p4433
aVsaid
p4434
aVbaynes
p4435
aVlook
p4436
aVfind
p4437
aVsan
p4438
aVpedro
p4439
aVcolours
p4440
aVgreen
p4441
aVwhite
p4442
aVnote
p4443
aVmr
p4444
aVholmes
p4445
aVhenderson
p4446
aVcalled
p4447
aVtraced
p4448
aVback
p4449
aVparis
p4450
aVrome
p4451
aVmadrid
p4452
aVbarcelona
p4453
aVship
p4454
aVcame
p4455
aVve
p4456
aVlooking
p4457
aVtime
p4458
aVrevenge
p4459
aVbegun
p4460
aVfind
p4461
aVdiscovered
p4462
aVyear
p4463
aVago
p4464
aVsaid
p4465
aVmiss
p4466
aVburnet
p4467
aVsat
p4468
aVintently
p4469
aVfollowing
p4470
aVconversation
p4471
aValready
p4472
aVlife
p4473
aVattempted
p4474
aVevil
p4475
aVspirit
p4476
aVshielded
p4477
aVnoble
p4478
aVchivalrous
p4479
aVgarcia
p4480
aVfallen
p4481
aVmonster
p4482
aVgoes
p4483
aVsafe
p4484
aVanother
p4485
aVcome
p4486
aVyet
p4487
aVanother
p4488
aVday
p4489
aVjustice
p4490
aVdone
p4491
aVcertain
p4492
aVrise
p4493
aVtomorrow
p4494
aVsun
p4495
aVthin
p4496
aVhands
p4497
aVclenched
p4498
aVworn
p4499
aVface
p4500
aVblanched
p4501
aVpassion
p4502
aVhatred
p4503
aVcome
p4504
aVmatter
p4505
aVmiss
p4506
aVburnet
p4507
aVasked
p4508
aVholmes
p4509
aVenglish
p4510
aVlady
p4511
aVjoin
p4512
aVmurderous
p4513
aVaffair
p4514
aVjoin
p4515
aVway
p4516
aVworld
p4517
aVjustice
p4518
aVgained
p4519
aVlaw
p4520
aVengland
p4521
aVcare
p4522
aVrivers
p4523
aVblood
p4524
aVshed
p4525
aVyears
p4526
aVago
p4527
aVsan
p4528
aVpedro
p4529
aVshipload
p4530
aVtreasure
p4531
aVman
p4532
aVstolen
p4533
aVlike
p4534
aVcrimes
p4535
aVcommitted
p4536
aVplanet
p4537
aVknow
p4538
aVlearned
p4539
aVtruth
p4540
aVsorrow
p4541
aVsuffering
p4542
aVus
p4543
aVfiend
p4544
aVhell
p4545
aVlike
p4546
aVjuan
p4547
aVmurillo
p4548
aVpeace
p4549
aVlife
p4550
aVvictims
p4551
aVstill
p4552
aVcry
p4553
aVvengeance
p4554
aVdoubt
p4555
aVsaid
p4556
aVholmes
p4557
aVsay
p4558
aVheard
p4559
aVatrocious
p4560
aVaffected
p4561
aVtell
p4562
aVvillain
p4563
aVpolicy
p4564
aVmurder
p4565
aVone
p4566
aVpretext
p4567
aVanother
p4568
aVevery
p4569
aVman
p4570
aVshowed
p4571
aVpromise
p4572
aVmight
p4573
aVtime
p4574
aVcome
p4575
aVdangerous
p4576
aVrival
p4577
aVhusband
p4578
aVyes
p4579
aVreal
p4580
aVname
p4581
aVsignora
p4582
aVvictor
p4583
aVdurando
p4584
aVsan
p4585
aVpedro
p4586
aVminister
p4587
aVlondon
p4588
aVmet
p4589
aVmarried
p4590
aVnobler
p4591
aVman
p4592
aVnever
p4593
aVlived
p4594
aVupon
p4595
aVearth
p4596
aVunhappily
p4597
aVmurillo
p4598
aVheard
p4599
aVexcellence
p4600
aVrecalled
p4601
aVpretext
p4602
aVshot
p4603
aVpremonition
p4604
aVfate
p4605
aVrefused
p4606
aVtake
p4607
aVestates
p4608
aVconfiscated
p4609
aVleft
p4610
aVpittance
p4611
aVbroken
p4612
aVheart
p4613
aVcame
p4614
aVdownfall
p4615
aVtyrant
p4616
aVescaped
p4617
aVdescribed
p4618
aVmany
p4619
aVwhose
p4620
aVlives
p4621
aVruined
p4622
aVwhose
p4623
aVnearest
p4624
aVdearest
p4625
aVsuffered
p4626
aVtorture
p4627
aVdeath
p4628
aVhands
p4629
aVwould
p4630
aVlet
p4631
aVmatter
p4632
aVrest
p4633
aVbanded
p4634
aVsociety
p4635
aVnever
p4636
aVdissolved
p4637
aVwork
p4638
aVdone
p4639
aVpart
p4640
aVdiscovered
p4641
aVtransformed
p4642
aVhenderson
p4643
aVfallen
p4644
aVdespot
p4645
aVattach
p4646
aVhousehold
p4647
aVkeep
p4648
aVothers
p4649
aVtouch
p4650
aVmovements
p4651
aVable
p4652
aVsecuring
p4653
aVposition
p4654
aVgoverness
p4655
aVfamily
p4656
aVlittle
p4657
aVknew
p4658
aVwoman
p4659
aVfaced
p4660
aVevery
p4661
aVmeal
p4662
aVwoman
p4663
aVwhose
p4664
aVhusband
p4665
aVhurried
p4666
aVhour
p4667
aVnotice
p4668
aVeternity
p4669
aVsmiled
p4670
aVduty
p4671
aVchildren
p4672
aVbided
p4673
aVtime
p4674
aVattempt
p4675
aVmade
p4676
aVparis
p4677
aVfailed
p4678
aVzigzagged
p4679
aVswiftly
p4680
aVeurope
p4681
aVthrow
p4682
aVpursuers
p4683
aVfinally
p4684
aVreturned
p4685
aVhouse
p4686
aVtaken
p4687
aVupon
p4688
aVfirst
p4689
aVarrival
p4690
aVengland
p4691
aValso
p4692
aVministers
p4693
aVjustice
p4694
aVwaiting
p4695
aVknowing
p4696
aVwould
p4697
aVreturn
p4698
aVgarcia
p4699
aVson
p4700
aVformer
p4701
aVhighest
p4702
aVdignitary
p4703
aVsan
p4704
aVpedro
p4705
aVwaiting
p4706
aVtwo
p4707
aVtrusty
p4708
aVcompanions
p4709
aVhumble
p4710
aVstation
p4711
aVthree
p4712
aVfired
p4713
aVreasons
p4714
aVrevenge
p4715
aVcould
p4716
aVlittle
p4717
aVday
p4718
aVmurillo
p4719
aVtook
p4720
aVevery
p4721
aVprecaution
p4722
aVnever
p4723
aVwent
p4724
aVsave
p4725
aVsatellite
p4726
aVlucas
p4727
aVlopez
p4728
aVknown
p4729
aVdays
p4730
aVgreatness
p4731
aVnight
p4732
aVhowever
p4733
aVslept
p4734
aValone
p4735
aVavenger
p4736
aVmight
p4737
aVfind
p4738
aVcertain
p4739
aVevening
p4740
aVprearranged
p4741
aVsent
p4742
aVfriend
p4743
aVfinal
p4744
aVinstructions
p4745
aVman
p4746
aVforever
p4747
aValert
p4748
aVcontinually
p4749
aVchanged
p4750
aVroom
p4751
aVsee
p4752
aVdoors
p4753
aVopen
p4754
aVsignal
p4755
aVgreen
p4756
aVwhite
p4757
aVlight
p4758
aVwindow
p4759
aVfaced
p4760
aVdrive
p4761
aVgive
p4762
aVnotice
p4763
aVsafe
p4764
aVattempt
p4765
aVbetter
p4766
aVpostponed
p4767
aVeverything
p4768
aVwent
p4769
aVwrong
p4770
aVus
p4771
aVway
p4772
aVexcited
p4773
aVsuspicion
p4774
aVlopez
p4775
aVsecretary
p4776
aVcrept
p4777
aVbehind
p4778
aVsprang
p4779
aVupon
p4780
aVfinished
p4781
aVnote
p4782
aVmaster
p4783
aVdragged
p4784
aVroom
p4785
aVheld
p4786
aVjudgment
p4787
aVupon
p4788
aVconvicted
p4789
aVtraitress
p4790
aVwould
p4791
aVplunged
p4792
aVknives
p4793
aVcould
p4794
aVseen
p4795
aVescape
p4796
aVconsequences
p4797
aVdeed
p4798
aVfinally
p4799
aVmuch
p4800
aVdebate
p4801
aVconcluded
p4802
aVmurder
p4803
aVdangerous
p4804
aVdetermined
p4805
aVget
p4806
aVrid
p4807
aVforever
p4808
aVgarcia
p4809
aVgagged
p4810
aVmurillo
p4811
aVtwisted
p4812
aVarm
p4813
aVround
p4814
aVgave
p4815
aVaddress
p4816
aVswear
p4817
aVmight
p4818
aVtwisted
p4819
aVunderstood
p4820
aVwould
p4821
aVmean
p4822
aVgarcia
p4823
aVlopez
p4824
aVaddressed
p4825
aVnote
p4826
aVwritten
p4827
aVsealed
p4828
aVsleevelink
p4829
aVsent
p4830
aVhand
p4831
aVservant
p4832
aVjose
p4833
aVmurdered
p4834
aVknow
p4835
aVsave
p4836
aVmurillo
p4837
aVhand
p4838
aVstruck
p4839
aVlopez
p4840
aVremained
p4841
aVguard
p4842
aVbelieve
p4843
aVmust
p4844
aVwaited
p4845
aVamong
p4846
aVgorse
p4847
aVbushes
p4848
aVpath
p4849
aVwinds
p4850
aVstruck
p4851
aVpassed
p4852
aVfirst
p4853
aVmind
p4854
aVlet
p4855
aVenter
p4856
aVhouse
p4857
aVkill
p4858
aVdetected
p4859
aVburglar
p4860
aVargued
p4861
aVmixed
p4862
aVinquiry
p4863
aVidentity
p4864
aVwould
p4865
aVpublicly
p4866
aVdisclosed
p4867
aVwould
p4868
aVopen
p4869
aVattacks
p4870
aVdeath
p4871
aVgarcia
p4872
aVpursuit
p4873
aVmight
p4874
aVcease
p4875
aVsince
p4876
aVdeath
p4877
aVmight
p4878
aVfrighten
p4879
aVothers
p4880
aVtask
p4881
aVwould
p4882
aVwell
p4883
aVknowledge
p4884
aVdone
p4885
aVdoubt
p4886
aVtimes
p4887
aVlife
p4888
aVhung
p4889
aVbalance
p4890
aVconfined
p4891
aVroom
p4892
aVterrorized
p4893
aVhorrible
p4894
aVthreats
p4895
aVcruelly
p4896
aVillused
p4897
aVbreak
p4898
aVspirit
p4899
aVsee
p4900
aVstab
p4901
aVshoulder
p4902
aVbruises
p4903
aVend
p4904
aVend
p4905
aVarms
p4906
aVgag
p4907
aVthrust
p4908
aVmouth
p4909
aVone
p4910
aVoccasion
p4911
aVtried
p4912
aVcall
p4913
aVwindow
p4914
aVfive
p4915
aVdays
p4916
aVcruel
p4917
aVimprisonment
p4918
aVcontinued
p4919
aVhardly
p4920
aVenough
p4921
aVfood
p4922
aVhold
p4923
aVbody
p4924
aVsoul
p4925
aVtogether
p4926
aVafternoon
p4927
aVgood
p4928
aVlunch
p4929
aVbrought
p4930
aVmoment
p4931
aVtook
p4932
aVknew
p4933
aVdrugged
p4934
aVsort
p4935
aVdream
p4936
aVremember
p4937
aVhalfled
p4938
aVhalfcarried
p4939
aVcarriage
p4940
aVstate
p4941
aVconveyed
p4942
aVtrain
p4943
aVwheels
p4944
aValmost
p4945
aVmoving
p4946
aVsuddenly
p4947
aVrealize
p4948
aVliberty
p4949
aVlay
p4950
aVhands
p4951
aVsprang
p4952
aVtried
p4953
aVdrag
p4954
aVback
p4955
aVhelp
p4956
aVgood
p4957
aVman
p4958
aVled
p4959
aVcab
p4960
aVnever
p4961
aVbroken
p4962
aVaway
p4963
aVthank
p4964
aVgod
p4965
aVbeyond
p4966
aVpower
p4967
aVforever
p4968
aVlistened
p4969
aVintently
p4970
aVremarkable
p4971
aVstatement
p4972
aVholmes
p4973
aVbroke
p4974
aVsilence
p4975
aVdifficulties
p4976
aVremarked
p4977
aVshaking
p4978
aVhead
p4979
aVpolice
p4980
aVwork
p4981
aVends
p4982
aVlegal
p4983
aVwork
p4984
aVbegins
p4985
aVexactly
p4986
aVsaid
p4987
aVplausible
p4988
aVlawyer
p4989
aVcould
p4990
aVmake
p4991
aVact
p4992
aVselfdefence
p4993
aVmay
p4994
aVhundred
p4995
aVcrimes
p4996
aVbackground
p4997
aVone
p4998
aVtried
p4999
aVcome
p5000
aVcome
p5001
aVsaid
p5002
aVbaynes
p5003
aVcheerily
p5004
aVthink
p5005
aVbetter
p5006
aVlaw
p5007
aVselfdefence
p5008
aVone
p5009
aVthing
p5010
aVentice
p5011
aVman
p5012
aVcold
p5013
aVblood
p5014
aVobject
p5015
aVmurdering
p5016
aVanother
p5017
aVwhatever
p5018
aVdanger
p5019
aVmay
p5020
aVfear
p5021
aVshall
p5022
aVjustified
p5023
aVsee
p5024
aVtenants
p5025
aVhigh
p5026
aVgable
p5027
aVnext
p5028
aVguildford
p5029
aVassizes
p5030
aVmatter
p5031
aVhistory
p5032
aVhowever
p5033
aVlittle
p5034
aVtime
p5035
aVstill
p5036
aVelapse
p5037
aVtiger
p5038
aVsan
p5039
aVpedro
p5040
aVmeet
p5041
aVdeserts
p5042
aVwily
p5043
aVbold
p5044
aVcompanion
p5045
aVthrew
p5046
aVpursuer
p5047
aVtrack
p5048
aVentering
p5049
aVlodginghouse
p5050
aVedmonton
p5051
aVstreet
p5052
aVleaving
p5053
aVbackgate
p5054
aVcurzon
p5055
aVsquare
p5056
aVday
p5057
aVseen
p5058
aVengland
p5059
aVsix
p5060
aVmonths
p5061
aVafterwards
p5062
aVmarquess
p5063
aVmontalva
p5064
aVsignor
p5065
aVrulli
p5066
aVsecretary
p5067
aVmurdered
p5068
aVrooms
p5069
aVhotel
p5070
aVescurial
p5071
aVmadrid
p5072
aVcrime
p5073
aVascribed
p5074
aVnihilism
p5075
aVmurderers
p5076
aVnever
p5077
aVarrested
p5078
aVinspector
p5079
aVbaynes
p5080
aVvisited
p5081
aVus
p5082
aVbaker
p5083
aVstreet
p5084
aVprinted
p5085
aVdescription
p5086
aVdark
p5087
aVface
p5088
aVsecretary
p5089
aVmasterful
p5090
aVfeatures
p5091
aVmagnetic
p5092
aVblack
p5093
aVeyes
p5094
aVtufted
p5095
aVbrows
p5096
aVmaster
p5097
aVcould
p5098
aVdoubt
p5099
aVjustice
p5100
aVbelated
p5101
aVcome
p5102
aVlast
p5103
aVchaotic
p5104
aVcase
p5105
aVdear
p5106
aVwatson
p5107
aVsaid
p5108
aVholmes
p5109
aVevening
p5110
aVpipe
p5111
aVpossible
p5112
aVpresent
p5113
aVcompact
p5114
aVform
p5115
aVdear
p5116
aVheart
p5117
aVcovers
p5118
aVtwo
p5119
aVcontinents
p5120
aVconcerns
p5121
aVtwo
p5122
aVgroups
p5123
aVmysterious
p5124
aVpersons
p5125
aVcomplicated
p5126
aVhighly
p5127
aVrespectable
p5128
aVpresence
p5129
aVfriend
p5130
aVscott
p5131
aVeccles
p5132
aVwhose
p5133
aVinclusion
p5134
aVshows
p5135
aVdeceased
p5136
aVgarcia
p5137
aVscheming
p5138
aVmind
p5139
aVwelldeveloped
p5140
aVinstinct
p5141
aVselfpreservation
p5142
aVremarkable
p5143
aVfact
p5144
aVamid
p5145
aVperfect
p5146
aVjungle
p5147
aVpossibilities
p5148
aVworthy
p5149
aVcollaborator
p5150
aVinspector
p5151
aVkept
p5152
aVclose
p5153
aVhold
p5154
aVessentials
p5155
aVguided
p5156
aValong
p5157
aVcrooked
p5158
aVwinding
p5159
aVpath
p5160
aVpoint
p5161
aVquite
p5162
aVclear
p5163
aVobject
p5164
aVmulatto
p5165
aVcook
p5166
aVreturn
p5167
aVthink
p5168
aVstrange
p5169
aVcreature
p5170
aVkitchen
p5171
aVmay
p5172
aVaccount
p5173
aVman
p5174
aVprimitive
p5175
aVsavage
p5176
aVbackwoods
p5177
aVsan
p5178
aVpedro
p5179
aVfetish
p5180
aVcompanion
p5181
aVfled
p5182
aVprearranged
p5183
aVretreat
p5184
aValready
p5185
aVoccupied
p5186
aVdoubt
p5187
aVconfederate
p5188
aVcompanion
p5189
aVpersuaded
p5190
aVleave
p5191
aVcompromising
p5192
aVarticle
p5193
aVfurniture
p5194
aVmulatto
p5195
aVheart
p5196
aVdriven
p5197
aVback
p5198
aVnext
p5199
aVday
p5200
aVreconnoitering
p5201
aVwindow
p5202
aVfound
p5203
aVpoliceman
p5204
aVwalters
p5205
aVpossession
p5206
aVwaited
p5207
aVthree
p5208
aVdays
p5209
aVlonger
p5210
aVpiety
p5211
aVsuperstition
p5212
aVdrove
p5213
aVtry
p5214
aVinspector
p5215
aVbaynes
p5216
aVusual
p5217
aVastuteness
p5218
aVminimized
p5219
aVincident
p5220
aVreally
p5221
aVrecognized
p5222
aVimportance
p5223
aVleft
p5224
aVtrap
p5225
aVcreature
p5226
aVwalked
p5227
aVpoint
p5228
aVwatson
p5229
aVtorn
p5230
aVbird
p5231
aVpail
p5232
aVblood
p5233
aVcharred
p5234
aVbones
p5235
aVmystery
p5236
aVweird
p5237
aVkitchen
p5238
aVholmes
p5239
aVsmiled
p5240
aVturned
p5241
aVentry
p5242
aVnotebook
p5243
aVspent
p5244
aVmorning
p5245
aVbritish
p5246
aVmuseum
p5247
aVreading
p5248
aVpoints
p5249
aVquotation
p5250
aVeckermann
p5251
aVvoodooism
p5252
aVnegroid
p5253
aVreligions
p5254
aVtrue
p5255
aVvoodooworshipper
p5256
aVattempts
p5257
aVnothing
p5258
aVimportance
p5259
aVwithout
p5260
aVcertain
p5261
aVsacrifices
p5262
aVintended
p5263
aVpropitiate
p5264
aVunclean
p5265
aVgods
p5266
aVextreme
p5267
aVcases
p5268
aVrites
p5269
aVtake
p5270
aVform
p5271
aVhuman
p5272
aVsacrifices
p5273
aVfollowed
p5274
aVcannibalism
p5275
aVusual
p5276
aVvictims
p5277
aVwhite
p5278
aVcock
p5279
aVplucked
p5280
aVpieces
p5281
aValive
p5282
aVblack
p5283
aVgoat
p5284
aVwhose
p5285
aVthroat
p5286
aVcut
p5287
aVbody
p5288
aVburned
p5289
aVsee
p5290
aVsavage
p5291
aVfriend
p5292
aVorthodox
p5293
aVritual
p5294
aVgrotesque
p5295
aVwatson
p5296
aVholmes
p5297
aVadded
p5298
aVslowly
p5299
aVfastened
p5300
aVnotebook
p5301
aVoccasion
p5302
aVremark
p5303
aVone
p5304
aVstep
p5305
aVgrotesque
p5306
aVhorrible
p5307
a.