(lp1
Vadventure
p2
aVbrucepartington
p3
aVplans
p4
aVsir
p5
aVarthur
p6
aVconan
p7
aVdoyle
p8
aVthird
p9
aVweek
p10
aVnovember
p11
aVyear
p12
aVdense
p13
aVyellow
p14
aVfog
p15
aVsettled
p16
aVupon
p17
aVlondon
p18
aVmonday
p19
aVthursday
p20
aVdoubt
p21
aVwhether
p22
aVever
p23
aVpossible
p24
aVwindows
p25
aVbaker
p26
aVstreet
p27
aVsee
p28
aVloom
p29
aVopposite
p30
aVhouses
p31
aVfirst
p32
aVday
p33
aVholmes
p34
aVspent
p35
aVcrossindexing
p36
aVhuge
p37
aVbook
p38
aVreferences
p39
aVsecond
p40
aVthird
p41
aVpatiently
p42
aVoccupied
p43
aVupon
p44
aVsubject
p45
aVrecently
p46
aVmade
p47
aVhobby
p48
aVmusic
p49
aVmiddle
p50
aVages
p51
aVfourth
p52
aVtime
p53
aVpushing
p54
aVback
p55
aVchairs
p56
aVbreakfast
p57
aVsaw
p58
aVgreasy
p59
aVheavy
p60
aVbrown
p61
aVswirl
p62
aVstill
p63
aVdrifting
p64
aVpast
p65
aVus
p66
aVcondensing
p67
aVoily
p68
aVdrops
p69
aVupon
p70
aVwindowpanes
p71
aVcomrade
p72
aVimpatient
p73
aVactive
p74
aVnature
p75
aVcould
p76
aVendure
p77
aVdrab
p78
aVexistence
p79
aVlonger
p80
aVpaced
p81
aVrestlessly
p82
aVsittingroom
p83
aVfever
p84
aVsuppressed
p85
aVenergy
p86
aVbiting
p87
aVnails
p88
aVtapping
p89
aVfurniture
p90
aVchafing
p91
aVinaction
p92
aVnothing
p93
aVinterest
p94
aVpaper
p95
aVwatson
p96
aVsaid
p97
aVaware
p98
aVanything
p99
aVinterest
p100
aVholmes
p101
aVmeant
p102
aVanything
p103
aVcriminal
p104
aVinterest
p105
aVnews
p106
aVrevolution
p107
aVpossible
p108
aVwar
p109
aVimpending
p110
aVchange
p111
aVgovernment
p112
aVcome
p113
aVwithin
p114
aVhorizon
p115
aVcompanion
p116
aVcould
p117
aVsee
p118
aVnothing
p119
aVrecorded
p120
aVshape
p121
aVcrime
p122
aVcommonplace
p123
aVfutile
p124
aVholmes
p125
aVgroaned
p126
aVresumed
p127
aVrestless
p128
aVmeanderings
p129
aVlondon
p130
aVcriminal
p131
aVcertainly
p132
aVdull
p133
aVfellow
p134
aVsaid
p135
aVquerulous
p136
aVvoice
p137
aVsportsman
p138
aVwhose
p139
aVgame
p140
aVfailed
p141
aVlook
p142
aVwindow
p143
aVwatson
p144
aVsee
p145
aVfigures
p146
aVloom
p147
aVdimly
p148
aVseen
p149
aVblend
p150
aVcloudbank
p151
aVthief
p152
aVmurderer
p153
aVcould
p154
aVroam
p155
aVlondon
p156
aVday
p157
aVtiger
p158
aVjungle
p159
aVunseen
p160
aVpounces
p161
aVevident
p162
aVvictim
p163
aVsaid
p164
aVnumerous
p165
aVpetty
p166
aVthefts
p167
aVholmes
p168
aVsnorted
p169
aVcontempt
p170
aVgreat
p171
aVsombre
p172
aVstage
p173
aVset
p174
aVsomething
p175
aVworthy
p176
aVsaid
p177
aVfortunate
p178
aVcommunity
p179
aVcriminal
p180
aVindeed
p181
aVsaid
p182
aVheartily
p183
aVsuppose
p184
aVbrooks
p185
aVwoodhouse
p186
aVfifty
p187
aVmen
p188
aVgood
p189
aVreason
p190
aVtaking
p191
aVlife
p192
aVlong
p193
aVcould
p194
aVsurvive
p195
aVpursuit
p196
aVsummons
p197
aVbogus
p198
aVappointment
p199
aVwould
p200
aVwell
p201
aVnt
p202
aVdays
p203
aVfog
p204
aVlatin
p205
aVcountries
p206
aVcountries
p207
aVassassination
p208
aVjove
p209
aVcomes
p210
aVsomething
p211
aVlast
p212
aVbreak
p213
aVdead
p214
aVmonotony
p215
aVmaid
p216
aVtelegram
p217
aVholmes
p218
aVtore
p219
aVopen
p220
aVburst
p221
aVlaughing
p222
aVwell
p223
aVwell
p224
aVnext
p225
aVsaid
p226
aVbrother
p227
aVmycroft
p228
aVcoming
p229
aVround
p230
aVasked
p231
aVmet
p232
aVtramcar
p233
aVcoming
p234
aVcountry
p235
aVlane
p236
aVmycroft
p237
aVrails
p238
aVruns
p239
aVpall
p240
aVmall
p241
aVlodgings
p242
aVdiogenes
p243
aVclub
p244
aVwhitehall
p245
aVcycle
p246
aVupheaval
p247
aVpossibly
p248
aVderailed
p249
aVexplain
p250
aVholmes
p251
aVhanded
p252
aVbrother
p253
aVtelegram
p254
aVmust
p255
aVsee
p256
aVcadogan
p257
aVwest
p258
aVcoming
p259
aVmycroft
p260
aVcadogan
p261
aVwest
p262
aVheard
p263
aVname
p264
aVrecalls
p265
aVnothing
p266
aVmind
p267
aVmycroft
p268
aVbreak
p269
aVerratic
p270
aVfashion
p271
aVplanet
p272
aVmight
p273
aVwell
p274
aVleave
p275
aVorbit
p276
aVway
p277
aVknow
p278
aVmycroft
p279
aVvague
p280
aVrecollection
p281
aVexplanation
p282
aVtime
p283
aVadventure
p284
aVgreek
p285
aVinterpreter
p286
aVtold
p287
aVsmall
p288
aVoffice
p289
aVbritish
p290
aVgovernment
p291
aVholmes
p292
aVchuckled
p293
aVknow
p294
aVquite
p295
aVwell
p296
aVdays
p297
aVone
p298
aVdiscreet
p299
aVone
p300
aVtalks
p301
aVhigh
p302
aVmatters
p303
aVstate
p304
aVright
p305
aVthinking
p306
aVbritish
p307
aVgovernment
p308
aVwould
p309
aValso
p310
aVright
p311
aVsense
p312
aVsaid
p313
aVoccasionally
p314
aVbritish
p315
aVgovernment
p316
aVdear
p317
aVholmes
p318
aVthought
p319
aVmight
p320
aVsurprise
p321
aVmycroft
p322
aVdraws
p323
aVfour
p324
aVhundred
p325
aVfifty
p326
aVpounds
p327
aVyear
p328
aVremains
p329
aVsubordinate
p330
aVambitions
p331
aVkind
p332
aVreceive
p333
aVneither
p334
aVhonour
p335
aVtitle
p336
aVremains
p337
aVindispensable
p338
aVman
p339
aVcountry
p340
aVwell
p341
aVposition
p342
aVunique
p343
aVmade
p344
aVnever
p345
aVanything
p346
aVlike
p347
aVtidiest
p348
aVorderly
p349
aVbrain
p350
aVgreatest
p351
aVcapacity
p352
aVstoring
p353
aVfacts
p354
aVman
p355
aVliving
p356
aVgreat
p357
aVpowers
p358
aVturned
p359
aVdetection
p360
aVcrime
p361
aVused
p362
aVparticular
p363
aVbusiness
p364
aVconclusions
p365
aVevery
p366
aVdepartment
p367
aVpassed
p368
aVcentral
p369
aVexchange
p370
aVclearinghouse
p371
aVmakes
p372
aVbalance
p373
aVmen
p374
aVspecialists
p375
aVspecialism
p376
aVomniscience
p377
aVsuppose
p378
aVminister
p379
aVneeds
p380
aVinformation
p381
aVpoint
p382
aVinvolves
p383
aVnavy
p384
aVindia
p385
aVcanada
p386
aVbimetallic
p387
aVquestion
p388
aVcould
p389
aVget
p390
aVseparate
p391
aVadvices
p392
aVvarious
p393
aVdepartments
p394
aVupon
p395
aVmycroft
p396
aVfocus
p397
aVsay
p398
aVoffhand
p399
aVfactor
p400
aVwould
p401
aVaffect
p402
aVbegan
p403
aVusing
p404
aVshortcut
p405
aVconvenience
p406
aVmade
p407
aVessential
p408
aVgreat
p409
aVbrain
p410
aVeverything
p411
aVpigeonholed
p412
aVhanded
p413
aVinstant
p414
aVword
p415
aVdecided
p416
aVnational
p417
aVpolicy
p418
aVlives
p419
aVthinks
p420
aVnothing
p421
aVelse
p422
aVsave
p423
aVintellectual
p424
aVexercise
p425
aVunbends
p426
aVcall
p427
aVupon
p428
aVask
p429
aVadvise
p430
aVone
p431
aVlittle
p432
aVproblems
p433
aVjupiter
p434
aVdescending
p435
aVtoday
p436
aVearth
p437
aVmean
p438
aVcadogan
p439
aVwest
p440
aVmycroft
p441
aVcried
p442
aVplunged
p443
aVamong
p444
aVlitter
p445
aVpapers
p446
aVupon
p447
aVsofa
p448
aVyes
p449
aVyes
p450
aVsure
p451
aVenough
p452
aVcadogan
p453
aVwest
p454
aVyoung
p455
aVman
p456
aVfound
p457
aVdead
p458
aVunderground
p459
aVtuesday
p460
aVmorning
p461
aVholmes
p462
aVsat
p463
aVattention
p464
aVpipe
p465
aVhalfway
p466
aVlips
p467
aVmust
p468
aVserious
p469
aVwatson
p470
aVdeath
p471
aVcaused
p472
aVbrother
p473
aValter
p474
aVhabits
p475
aVordinary
p476
aVone
p477
aVworld
p478
aVcase
p479
aVfeatureless
p480
aVremember
p481
aVyoung
p482
aVman
p483
aVapparently
p484
aVfallen
p485
aVtrain
p486
aVkilled
p487
aVrobbed
p488
aVparticular
p489
aVreason
p490
aVsuspect
p491
aVviolence
p492
aVinquest
p493
aVsaid
p494
aVgood
p495
aVmany
p496
aVfresh
p497
aVfacts
p498
aVcome
p499
aVlooked
p500
aVclosely
p501
aVcertainly
p502
aVsay
p503
aVcurious
p504
aVcase
p505
aVjudging
p506
aVeffect
p507
aVupon
p508
aVbrother
p509
aVthink
p510
aVmust
p511
aVextraordinary
p512
aVone
p513
aVsnuggled
p514
aVarmchair
p515
aVwatson
p516
aVlet
p517
aVus
p518
aVfacts
p519
aVman
p520
aVname
p521
aVarthur
p522
aVcadogan
p523
aVwest
p524
aVtwentyseven
p525
aVyears
p526
aVage
p527
aVunmarried
p528
aVclerk
p529
aVwoolwich
p530
aVarsenal
p531
aVgovernment
p532
aVemploy
p533
aVbehold
p534
aVlink
p535
aVbrother
p536
aVmycroft
p537
aVleft
p538
aVwoolwich
p539
aVsuddenly
p540
aVmonday
p541
aVnight
p542
aVlast
p543
aVseen
p544
aVfiancee
p545
aVmiss
p546
aVviolet
p547
aVwestbury
p548
aVleft
p549
aVabruptly
p550
aVfog
p551
aVevening
p552
aVquarrel
p553
aVgive
p554
aVmotive
p555
aVaction
p556
aVnext
p557
aVthing
p558
aVheard
p559
aVdead
p560
aVbody
p561
aVdiscovered
p562
aVplatelayer
p563
aVnamed
p564
aVmason
p565
aVoutside
p566
aValdgate
p567
aVstation
p568
aVunderground
p569
aVsystem
p570
aVlondon
p571
aVbody
p572
aVfound
p573
aVsix
p574
aVtuesday
p575
aVmorning
p576
aVlying
p577
aVwide
p578
aVmetals
p579
aVupon
p580
aVleft
p581
aVhand
p582
aVtrack
p583
aVone
p584
aVgoes
p585
aVeastward
p586
aVpoint
p587
aVclose
p588
aVstation
p589
aVline
p590
aVemerges
p591
aVtunnel
p592
aVruns
p593
aVhead
p594
aVbadly
p595
aVcrushed
p596
aVinjury
p597
aVmight
p598
aVwell
p599
aVcaused
p600
aVfall
p601
aVtrain
p602
aVbody
p603
aVcould
p604
aVcome
p605
aVline
p606
aVway
p607
aVcarried
p608
aVneighbouring
p609
aVstreet
p610
aVmust
p611
aVpassed
p612
aVstation
p613
aVbarriers
p614
aVcollector
p615
aValways
p616
aVstanding
p617
aVpoint
p618
aVseems
p619
aVabsolutely
p620
aVcertain
p621
aVgood
p622
aVcase
p623
aVdefinite
p624
aVenough
p625
aVman
p626
aVdead
p627
aValive
p628
aVeither
p629
aVfell
p630
aVprecipitated
p631
aVtrain
p632
aVmuch
p633
aVclear
p634
aVcontinue
p635
aVtrains
p636
aVtraverse
p637
aVlines
p638
aVrail
p639
aVbeside
p640
aVbody
p641
aVfound
p642
aVrun
p643
aVwest
p644
aVeast
p645
aVpurely
p646
aVmetropolitan
p647
aVwillesden
p648
aVoutlying
p649
aVjunctions
p650
aVstated
p651
aVcertain
p652
aVyoung
p653
aVman
p654
aVmet
p655
aVdeath
p656
aVtravelling
p657
aVdirection
p658
aVlate
p659
aVhour
p660
aVnight
p661
aVpoint
p662
aVentered
p663
aVtrain
p664
aVimpossible
p665
aVstate
p666
aVticket
p667
aVcourse
p668
aVwould
p669
aVshow
p670
aVticket
p671
aVpockets
p672
aVticket
p673
aVdear
p674
aVwatson
p675
aVreally
p676
aVsingular
p677
aVaccording
p678
aVexperience
p679
aVpossible
p680
aVreach
p681
aVplatform
p682
aVmetropolitan
p683
aVtrain
p684
aVwithout
p685
aVexhibiting
p686
aVone
p687
aVticket
p688
aVpresumably
p689
aVyoung
p690
aVman
p691
aVone
p692
aVtaken
p693
aVorder
p694
aVconceal
p695
aVstation
p696
aVcame
p697
aVpossible
p698
aVdrop
p699
aVcarriage
p700
aValso
p701
aVpossible
p702
aVpoint
p703
aVcurious
p704
aVinterest
p705
aVunderstand
p706
aVsign
p707
aVrobbery
p708
aVapparently
p709
aVlist
p710
aVpossessions
p711
aVpurse
p712
aVcontained
p713
aVtwo
p714
aVpounds
p715
aVfifteen
p716
aValso
p717
aVcheckbook
p718
aVwoolwich
p719
aVbranch
p720
aVcapital
p721
aVcounties
p722
aVbank
p723
aVidentity
p724
aVestablished
p725
aValso
p726
aVtwo
p727
aVdresscircle
p728
aVtickets
p729
aVwoolwich
p730
aVtheatre
p731
aVdated
p732
aVevening
p733
aValso
p734
aVsmall
p735
aVpacket
p736
aVtechnical
p737
aVpapers
p738
aVholmes
p739
aVgave
p740
aVexclamation
p741
aVsatisfaction
p742
aVlast
p743
aVwatson
p744
aVbritish
p745
aVgovernment
p746
aVwoolwich
p747
aVarsenal
p748
aVtechnical
p749
aVpapers
p750
aVbrother
p751
aVmycroft
p752
aVchain
p753
aVcomplete
p754
aVcomes
p755
aVmistaken
p756
aVspeak
p757
aVmoment
p758
aVlater
p759
aVtall
p760
aVportly
p761
aVform
p762
aVmycroft
p763
aVholmes
p764
aVushered
p765
aVroom
p766
aVheavily
p767
aVbuilt
p768
aVmassive
p769
aVsuggestion
p770
aVuncouth
p771
aVphysical
p772
aVinertia
p773
aVfigure
p774
aVunwieldy
p775
aVframe
p776
aVperched
p777
aVhead
p778
aVmasterful
p779
aVbrow
p780
aValert
p781
aVsteelgray
p782
aVdeepset
p783
aVeyes
p784
aVfirm
p785
aVlips
p786
aVsubtle
p787
aVplay
p788
aVexpression
p789
aVfirst
p790
aVglance
p791
aVone
p792
aVforgot
p793
aVgross
p794
aVbody
p795
aVremembered
p796
aVdominant
p797
aVmind
p798
aVheels
p799
aVcame
p800
aVold
p801
aVfriend
p802
aVlestrade
p803
aVscotland
p804
aVyard
p805
aVthin
p806
aVaustere
p807
aVgravity
p808
aVfaces
p809
aVforetold
p810
aVweighty
p811
aVquest
p812
aVdetective
p813
aVshook
p814
aVhands
p815
aVwithout
p816
aVword
p817
aVmycroft
p818
aVholmes
p819
aVstruggled
p820
aVovercoat
p821
aVsubsided
p822
aVarmchair
p823
aVannoying
p824
aVbusiness
p825
aVsherlock
p826
aVsaid
p827
aVextremely
p828
aVdislike
p829
aValtering
p830
aVhabits
p831
aVpowers
p832
aVwould
p833
aVtake
p834
aVdenial
p835
aVpresent
p836
aVstate
p837
aVsiam
p838
aVawkward
p839
aVaway
p840
aVoffice
p841
aVreal
p842
aVcrisis
p843
aVnever
p844
aVseen
p845
aVprime
p846
aVminister
p847
aVupset
p848
aVadmiralty
p849
aVbuzzing
p850
aVlike
p851
aVoverturned
p852
aVbeehive
p853
aVread
p854
aVcase
p855
aVdone
p856
aVtechnical
p857
aVpapers
p858
aVah
p859
aVpoint
p860
aVfortunately
p861
aVcome
p862
aVpress
p863
aVwould
p864
aVfurious
p865
aVpapers
p866
aVwretched
p867
aVyouth
p868
aVpocket
p869
aVplans
p870
aVbrucepartington
p871
aVsubmarine
p872
aVmycroft
p873
aVholmes
p874
aVspoke
p875
aVsolemnity
p876
aVshowed
p877
aVsense
p878
aVimportance
p879
aVsubject
p880
aVbrother
p881
aVsat
p882
aVexpectant
p883
aVsurely
p884
aVheard
p885
aVthought
p886
aVeveryone
p887
aVheard
p888
aVname
p889
aVimportance
p890
aVhardly
p891
aVexaggerated
p892
aVjealously
p893
aVguarded
p894
aVgovernment
p895
aVsecrets
p896
aVmay
p897
aVtake
p898
aVnaval
p899
aVwarfare
p900
aVbecomes
p901
aVimpossible
p902
aVwithin
p903
aVradius
p904
aVbrucepartington
p905
aVoperation
p906
aVtwo
p907
aVyears
p908
aVago
p909
aVlarge
p910
aVsum
p911
aVsmuggled
p912
aVestimates
p913
aVexpended
p914
aVacquiring
p915
aVmonopoly
p916
aVinvention
p917
aVevery
p918
aVeffort
p919
aVmade
p920
aVkeep
p921
aVsecret
p922
aVplans
p923
aVexceedingly
p924
aVintricate
p925
aVcomprising
p926
aVthirty
p927
aVseparate
p928
aVpatents
p929
aVessential
p930
aVworking
p931
aVwhole
p932
aVkept
p933
aVelaborate
p934
aVsafe
p935
aVconfidential
p936
aVoffice
p937
aVadjoining
p938
aVarsenal
p939
aVburglarproof
p940
aVdoors
p941
aVwindows
p942
aVconceivable
p943
aVcircumstances
p944
aVplans
p945
aVtaken
p946
aVoffice
p947
aVchief
p948
aVconstructor
p949
aVnavy
p950
aVdesired
p951
aVconsult
p952
aVeven
p953
aVforced
p954
aVgo
p955
aVwoolwich
p956
aVoffice
p957
aVpurpose
p958
aVyet
p959
aVfind
p960
aVpocket
p961
aVdead
p962
aVjunior
p963
aVclerk
p964
aVheart
p965
aVlondon
p966
aVofficial
p967
aVpoint
p968
aVview
p969
aVsimply
p970
aVawful
p971
aVrecovered
p972
aVsherlock
p973
aVpinch
p974
aVten
p975
aVpapers
p976
aVtaken
p977
aVwoolwich
p978
aVseven
p979
aVpocket
p980
aVcadogan
p981
aVwest
p982
aVthree
p983
aVessential
p984
aVgone
p985
aVstolen
p986
aVvanished
p987
aVmust
p988
aVdrop
p989
aVeverything
p990
aVsherlock
p991
aVnever
p992
aVmind
p993
aVusual
p994
aVpetty
p995
aVpuzzles
p996
aVpolicecourt
p997
aVvital
p998
aVinternational
p999
aVproblem
p1000
aVsolve
p1001
aVcadogan
p1002
aVwest
p1003
aVtake
p1004
aVpapers
p1005
aVmissing
p1006
aVones
p1007
aVdie
p1008
aVcame
p1009
aVbody
p1010
aVfound
p1011
aVevil
p1012
aVset
p1013
aVright
p1014
aVfind
p1015
aVanswer
p1016
aVquestions
p1017
aVdone
p1018
aVgood
p1019
aVservice
p1020
aVcountry
p1021
aVsolve
p1022
aVmycroft
p1023
aVsee
p1024
aVfar
p1025
aVpossibly
p1026
aVsherlock
p1027
aVquestion
p1028
aVgetting
p1029
aVdetails
p1030
aVgive
p1031
aVdetails
p1032
aVarmchair
p1033
aVreturn
p1034
aVexcellent
p1035
aVexpert
p1036
aVopinion
p1037
aVrun
p1038
aVrun
p1039
aVcrossquestion
p1040
aVrailway
p1041
aVguards
p1042
aVlie
p1043
aVface
p1044
aVlens
p1045
aVeye
p1046
aVmetier
p1047
aVone
p1048
aVman
p1049
aVclear
p1050
aVmatter
p1051
aVfancy
p1052
aVsee
p1053
aVname
p1054
aVnext
p1055
aVhonours
p1056
aVlist
p1057
aVfriend
p1058
aVsmiled
p1059
aVshook
p1060
aVhead
p1061
aVplay
p1062
aVgame
p1063
aVgame
p1064
aVsake
p1065
aVsaid
p1066
aVproblem
p1067
aVcertainly
p1068
aVpresents
p1069
aVpoints
p1070
aVinterest
p1071
aVshall
p1072
aVpleased
p1073
aVlook
p1074
aVfacts
p1075
aVplease
p1076
aVjotted
p1077
aVessential
p1078
aVones
p1079
aVupon
p1080
aVsheet
p1081
aVpaper
p1082
aVtogether
p1083
aVaddresses
p1084
aVfind
p1085
aVservice
p1086
aVactual
p1087
aVofficial
p1088
aVguardian
p1089
aVpapers
p1090
aVfamous
p1091
aVgovernment
p1092
aVexpert
p1093
aVsir
p1094
aVjames
p1095
aVwalter
p1096
aVwhose
p1097
aVdecorations
p1098
aVsubtitles
p1099
aVfill
p1100
aVtwo
p1101
aVlines
p1102
aVbook
p1103
aVreference
p1104
aVgrown
p1105
aVgray
p1106
aVservice
p1107
aVgentleman
p1108
aVfavoured
p1109
aVguest
p1110
aVexalted
p1111
aVhouses
p1112
aVman
p1113
aVwhose
p1114
aVpatriotism
p1115
aVbeyond
p1116
aVsuspicion
p1117
aVone
p1118
aVtwo
p1119
aVkey
p1120
aVsafe
p1121
aVmay
p1122
aVadd
p1123
aVpapers
p1124
aVundoubtedly
p1125
aVoffice
p1126
aVworking
p1127
aVhours
p1128
aVmonday
p1129
aVsir
p1130
aVjames
p1131
aVleft
p1132
aVlondon
p1133
aVthree
p1134
aVoclock
p1135
aVtaking
p1136
aVkey
p1137
aVhouse
p1138
aVadmiral
p1139
aVsinclair
p1140
aVbarclay
p1141
aVsquare
p1142
aVwhole
p1143
aVevening
p1144
aVincident
p1145
aVoccurred
p1146
aVfact
p1147
aVverified
p1148
aVyes
p1149
aVbrother
p1150
aVcolonel
p1151
aVvalentine
p1152
aVwalter
p1153
aVtestified
p1154
aVdeparture
p1155
aVwoolwich
p1156
aVadmiral
p1157
aVsinclair
p1158
aVarrival
p1159
aVlondon
p1160
aVsir
p1161
aVjames
p1162
aVlonger
p1163
aVdirect
p1164
aVfactor
p1165
aVproblem
p1166
aVman
p1167
aVkey
p1168
aVsenior
p1169
aVclerk
p1170
aVdraughtsman
p1171
aVmr
p1172
aVsidney
p1173
aVjohnson
p1174
aVman
p1175
aVforty
p1176
aVmarried
p1177
aVfive
p1178
aVchildren
p1179
aVsilent
p1180
aVmorose
p1181
aVman
p1182
aVwhole
p1183
aVexcellent
p1184
aVrecord
p1185
aVpublic
p1186
aVservice
p1187
aVunpopular
p1188
aVcolleagues
p1189
aVhard
p1190
aVworker
p1191
aVaccording
p1192
aVaccount
p1193
aVcorroborated
p1194
aVword
p1195
aVwife
p1196
aVhome
p1197
aVwhole
p1198
aVmonday
p1199
aVevening
p1200
aVoffice
p1201
aVhours
p1202
aVkey
p1203
aVnever
p1204
aVleft
p1205
aVwatchchain
p1206
aVupon
p1207
aVhangs
p1208
aVtell
p1209
aVus
p1210
aVcadogan
p1211
aVwest
p1212
aVten
p1213
aVyears
p1214
aVservice
p1215
aVdone
p1216
aVgood
p1217
aVwork
p1218
aVreputation
p1219
aVhotheaded
p1220
aVimperious
p1221
aVstraight
p1222
aVhonest
p1223
aVman
p1224
aVnothing
p1225
aVnext
p1226
aVsidney
p1227
aVjohnson
p1228
aVoffice
p1229
aVduties
p1230
aVbrought
p1231
aVdaily
p1232
aVpersonal
p1233
aVcontact
p1234
aVplans
p1235
aVone
p1236
aVelse
p1237
aVhandling
p1238
aVlocked
p1239
aVplans
p1240
aVnight
p1241
aVmr
p1242
aVsidney
p1243
aVjohnson
p1244
aVsenior
p1245
aVclerk
p1246
aVwell
p1247
aVsurely
p1248
aVperfectly
p1249
aVclear
p1250
aVtook
p1251
aVaway
p1252
aVactually
p1253
aVfound
p1254
aVupon
p1255
aVperson
p1256
aVjunior
p1257
aVclerk
p1258
aVcadogan
p1259
aVwest
p1260
aVseems
p1261
aVfinal
p1262
aVsherlock
p1263
aVyet
p1264
aVleaves
p1265
aVmuch
p1266
aVunexplained
p1267
aVfirst
p1268
aVplace
p1269
aVtake
p1270
aVpresume
p1271
aVvalue
p1272
aVcould
p1273
aVgot
p1274
aVseveral
p1275
aVthousands
p1276
aVeasily
p1277
aVsuggest
p1278
aVpossible
p1279
aVmotive
p1280
aVtaking
p1281
aVpapers
p1282
aVlondon
p1283
aVexcept
p1284
aVsell
p1285
aVmust
p1286
aVtake
p1287
aVworking
p1288
aVhypothesis
p1289
aVyoung
p1290
aVwest
p1291
aVtook
p1292
aVpapers
p1293
aVcould
p1294
aVdone
p1295
aVfalse
p1296
aVkey
p1297
aVseveral
p1298
aVfalse
p1299
aVkeys
p1300
aVopen
p1301
aVbuilding
p1302
aVroom
p1303
aVseveral
p1304
aVfalse
p1305
aVkeys
p1306
aVtook
p1307
aVpapers
p1308
aVlondon
p1309
aVsell
p1310
aVsecret
p1311
aVintending
p1312
aVdoubt
p1313
aVplans
p1314
aVback
p1315
aVsafe
p1316
aVnext
p1317
aVmorning
p1318
aVmissed
p1319
aVlondon
p1320
aVtreasonable
p1321
aVmission
p1322
aVmet
p1323
aVend
p1324
aVsuppose
p1325
aVtravelling
p1326
aVback
p1327
aVwoolwich
p1328
aVkilled
p1329
aVthrown
p1330
aVcompartment
p1331
aValdgate
p1332
aVbody
p1333
aVfound
p1334
aVconsiderably
p1335
aVpast
p1336
aVstation
p1337
aVlondon
p1338
aVbridge
p1339
aVwould
p1340
aVroute
p1341
aVwoolwich
p1342
aVmany
p1343
aVcircumstances
p1344
aVcould
p1345
aVimagined
p1346
aVwould
p1347
aVpass
p1348
aVlondon
p1349
aVbridge
p1350
aVsomeone
p1351
aVcarriage
p1352
aVexample
p1353
aVabsorbing
p1354
aVinterview
p1355
aVinterview
p1356
aVled
p1357
aVviolent
p1358
aVscene
p1359
aVlost
p1360
aVlife
p1361
aVpossibly
p1362
aVtried
p1363
aVleave
p1364
aVcarriage
p1365
aVfell
p1366
aVline
p1367
aVmet
p1368
aVend
p1369
aVclosed
p1370
aVdoor
p1371
aVthick
p1372
aVfog
p1373
aVnothing
p1374
aVcould
p1375
aVseen
p1376
aVbetter
p1377
aVexplanation
p1378
aVgiven
p1379
aVpresent
p1380
aVknowledge
p1381
aVyet
p1382
aVconsider
p1383
aVsherlock
p1384
aVmuch
p1385
aVleave
p1386
aVuntouched
p1387
aVsuppose
p1388
aVargument
p1389
aVsake
p1390
aVyoung
p1391
aVcadogan
p1392
aVwest
p1393
aVdetermined
p1394
aVconvey
p1395
aVpapers
p1396
aVlondon
p1397
aVwould
p1398
aVnaturally
p1399
aVmade
p1400
aVappointment
p1401
aVforeign
p1402
aVagent
p1403
aVkept
p1404
aVevening
p1405
aVclear
p1406
aVinstead
p1407
aVtook
p1408
aVtwo
p1409
aVtickets
p1410
aVtheatre
p1411
aVescorted
p1412
aVfiancee
p1413
aVhalfway
p1414
aVsuddenly
p1415
aVdisappeared
p1416
aVblind
p1417
aVsaid
p1418
aVlestrade
p1419
aVsat
p1420
aVlistening
p1421
aVimpatience
p1422
aVconversation
p1423
aVsingular
p1424
aVone
p1425
aVobjection
p1426
aVobjection
p1427
aVsuppose
p1428
aVreaches
p1429
aVlondon
p1430
aVsees
p1431
aVforeign
p1432
aVagent
p1433
aVmust
p1434
aVbring
p1435
aVback
p1436
aVpapers
p1437
aVmorning
p1438
aVloss
p1439
aVdiscovered
p1440
aVtook
p1441
aVaway
p1442
aVten
p1443
aVseven
p1444
aVpocket
p1445
aVbecome
p1446
aVthree
p1447
aVcertainly
p1448
aVwould
p1449
aVleave
p1450
aVfree
p1451
aVprice
p1452
aVtreason
p1453
aVwould
p1454
aVexpected
p1455
aVfind
p1456
aVlarge
p1457
aVsum
p1458
aVmoney
p1459
aVpocket
p1460
aVseems
p1461
aVperfectly
p1462
aVclear
p1463
aVsaid
p1464
aVlestrade
p1465
aVdoubt
p1466
aVoccurred
p1467
aVtook
p1468
aVpapers
p1469
aVsell
p1470
aVsaw
p1471
aVagent
p1472
aVcould
p1473
aVagree
p1474
aVprice
p1475
aVstarted
p1476
aVhome
p1477
aVagent
p1478
aVwent
p1479
aVtrain
p1480
aVagent
p1481
aVmurdered
p1482
aVtook
p1483
aVessential
p1484
aVpapers
p1485
aVthrew
p1486
aVbody
p1487
aVcarriage
p1488
aVwould
p1489
aVaccount
p1490
aVeverything
p1491
aVwould
p1492
aVticket
p1493
aVticket
p1494
aVwould
p1495
aVshown
p1496
aVstation
p1497
aVnearest
p1498
aVagent
p1499
aVhouse
p1500
aVtherefore
p1501
aVtook
p1502
aVmurdered
p1503
aVman
p1504
aVpocket
p1505
aVgood
p1506
aVlestrade
p1507
aVgood
p1508
aVsaid
p1509
aVholmes
p1510
aVtheory
p1511
aVholds
p1512
aVtogether
p1513
aVtrue
p1514
aVcase
p1515
aVend
p1516
aVone
p1517
aVhand
p1518
aVtraitor
p1519
aVdead
p1520
aVplans
p1521
aVbrucepartington
p1522
aVsubmarine
p1523
aVpresumably
p1524
aValready
p1525
aVcontinent
p1526
aVus
p1527
aVact
p1528
aVsherlock
p1529
aVact
p1530
aVcried
p1531
aVmycroft
p1532
aVspringing
p1533
aVfeet
p1534
aVinstincts
p1535
aVexplanation
p1536
aVuse
p1537
aVpowers
p1538
aVgo
p1539
aVscene
p1540
aVcrime
p1541
aVsee
p1542
aVpeople
p1543
aVconcerned
p1544
aVleave
p1545
aVstone
p1546
aVunturned
p1547
aVcareer
p1548
aVnever
p1549
aVgreat
p1550
aVchance
p1551
aVserving
p1552
aVcountry
p1553
aVwell
p1554
aVwell
p1555
aVsaid
p1556
aVholmes
p1557
aVshrugging
p1558
aVshoulders
p1559
aVcome
p1560
aVwatson
p1561
aVlestrade
p1562
aVcould
p1563
aVfavour
p1564
aVus
p1565
aVcompany
p1566
aVhour
p1567
aVtwo
p1568
aVbegin
p1569
aVinvestigation
p1570
aVvisit
p1571
aValdgate
p1572
aVstation
p1573
aVgoodbye
p1574
aVmycroft
p1575
aVshall
p1576
aVlet
p1577
aVreport
p1578
aVevening
p1579
aVwarn
p1580
aVadvance
p1581
aVlittle
p1582
aVexpect
p1583
aVhour
p1584
aVlater
p1585
aVholmes
p1586
aVlestrade
p1587
aVstood
p1588
aVupon
p1589
aVunderground
p1590
aVrailroad
p1591
aVpoint
p1592
aVemerges
p1593
aVtunnel
p1594
aVimmediately
p1595
aValdgate
p1596
aVstation
p1597
aVcourteous
p1598
aVredfaced
p1599
aVold
p1600
aVgentleman
p1601
aVrepresented
p1602
aVrailway
p1603
aVcompany
p1604
aVyoung
p1605
aVman
p1606
aVbody
p1607
aVlay
p1608
aVsaid
p1609
aVindicating
p1610
aVspot
p1611
aVthree
p1612
aVfeet
p1613
aVmetals
p1614
aVcould
p1615
aVfallen
p1616
aVsee
p1617
aVblank
p1618
aVwalls
p1619
aVtherefore
p1620
aVcould
p1621
aVcome
p1622
aVtrain
p1623
aVtrain
p1624
aVfar
p1625
aVtrace
p1626
aVmust
p1627
aVpassed
p1628
aVmidnight
p1629
aVmonday
p1630
aVcarriages
p1631
aVexamined
p1632
aVsign
p1633
aVviolence
p1634
aVsigns
p1635
aVticket
p1636
aVfound
p1637
aVrecord
p1638
aVdoor
p1639
aVfound
p1640
aVopen
p1641
aVnone
p1642
aVfresh
p1643
aVevidence
p1644
aVmorning
p1645
aVsaid
p1646
aVlestrade
p1647
aVpassenger
p1648
aVpassed
p1649
aValdgate
p1650
aVordinary
p1651
aVmetropolitan
p1652
aVtrain
p1653
aVmonday
p1654
aVnight
p1655
aVdeclares
p1656
aVheard
p1657
aVheavy
p1658
aVthud
p1659
aVbody
p1660
aVstriking
p1661
aVline
p1662
aVtrain
p1663
aVreached
p1664
aVstation
p1665
aVdense
p1666
aVfog
p1667
aVhowever
p1668
aVnothing
p1669
aVcould
p1670
aVseen
p1671
aVmade
p1672
aVreport
p1673
aVtime
p1674
aVwhatever
p1675
aVmatter
p1676
aVmr
p1677
aVholmes
p1678
aVfriend
p1679
aVstanding
p1680
aVexpression
p1681
aVstrained
p1682
aVintensity
p1683
aVupon
p1684
aVface
p1685
aVstaring
p1686
aVrailway
p1687
aVmetals
p1688
aVcurved
p1689
aVtunnel
p1690
aValdgate
p1691
aVjunction
p1692
aVnetwork
p1693
aVpoints
p1694
aVeager
p1695
aVquestioning
p1696
aVeyes
p1697
aVfixed
p1698
aVsaw
p1699
aVkeen
p1700
aValert
p1701
aVface
p1702
aVtightening
p1703
aVlips
p1704
aVquiver
p1705
aVnostrils
p1706
aVconcentration
p1707
aVheavy
p1708
aVtufted
p1709
aVbrows
p1710
aVknew
p1711
aVwell
p1712
aVpoints
p1713
aVmuttered
p1714
aVpoints
p1715
aVmean
p1716
aVsuppose
p1717
aVgreat
p1718
aVnumber
p1719
aVpoints
p1720
aVsystem
p1721
aVcurve
p1722
aVpoints
p1723
aVcurve
p1724
aVjove
p1725
aVmr
p1726
aVholmes
p1727
aVclue
p1728
aVidea
p1729
aVindication
p1730
aVcase
p1731
aVcertainly
p1732
aVgrows
p1733
aVinterest
p1734
aVunique
p1735
aVperfectly
p1736
aVunique
p1737
aVyet
p1738
aVsee
p1739
aVindications
p1740
aVbleeding
p1741
aVline
p1742
aVhardly
p1743
aVunderstand
p1744
aVconsiderable
p1745
aVwound
p1746
aVbone
p1747
aVcrushed
p1748
aVgreat
p1749
aVexternal
p1750
aVinjury
p1751
aVyet
p1752
aVone
p1753
aVwould
p1754
aVexpected
p1755
aVbleeding
p1756
aVwould
p1757
aVpossible
p1758
aVinspect
p1759
aVtrain
p1760
aVcontained
p1761
aVpassenger
p1762
aVheard
p1763
aVthud
p1764
aVfall
p1765
aVfog
p1766
aVfear
p1767
aVmr
p1768
aVholmes
p1769
aVtrain
p1770
aVbroken
p1771
aVcarriages
p1772
aVredistributed
p1773
aVassure
p1774
aVmr
p1775
aVholmes
p1776
aVsaid
p1777
aVlestrade
p1778
aVevery
p1779
aVcarriage
p1780
aVcarefully
p1781
aVexamined
p1782
aVsaw
p1783
aVone
p1784
aVfriend
p1785
aVobvious
p1786
aVweaknesses
p1787
aVimpatient
p1788
aVless
p1789
aValert
p1790
aVintelligences
p1791
aVlikely
p1792
aVsaid
p1793
aVturning
p1794
aVaway
p1795
aVhappens
p1796
aVcarriages
p1797
aVdesired
p1798
aVexamine
p1799
aVwatson
p1800
aVdone
p1801
aVneed
p1802
aVtrouble
p1803
aVmr
p1804
aVlestrade
p1805
aVthink
p1806
aVinvestigations
p1807
aVmust
p1808
aVcarry
p1809
aVus
p1810
aVwoolwich
p1811
aVlondon
p1812
aVbridge
p1813
aVholmes
p1814
aVwrote
p1815
aVtelegram
p1816
aVbrother
p1817
aVhanded
p1818
aVdispatching
p1819
aVran
p1820
aVthus
p1821
aVsee
p1822
aVlight
p1823
aVdarkness
p1824
aVmay
p1825
aVpossibly
p1826
aVflicker
p1827
aVmeanwhile
p1828
aVplease
p1829
aVsend
p1830
aVmessenger
p1831
aVawait
p1832
aVreturn
p1833
aVbaker
p1834
aVstreet
p1835
aVcomplete
p1836
aVlist
p1837
aVforeign
p1838
aVspies
p1839
aVinternational
p1840
aVagents
p1841
aVknown
p1842
aVengland
p1843
aVfull
p1844
aVaddress
p1845
aVsherlock
p1846
aVhelpful
p1847
aVwatson
p1848
aVremarked
p1849
aVtook
p1850
aVseats
p1851
aVwoolwich
p1852
aVtrain
p1853
aVcertainly
p1854
aVowe
p1855
aVbrother
p1856
aVmycroft
p1857
aVdebt
p1858
aVintroduced
p1859
aVus
p1860
aVpromises
p1861
aVreally
p1862
aVremarkable
p1863
aVcase
p1864
aVeager
p1865
aVface
p1866
aVstill
p1867
aVwore
p1868
aVexpression
p1869
aVintense
p1870
aVhighstrung
p1871
aVenergy
p1872
aVshowed
p1873
aVnovel
p1874
aVsuggestive
p1875
aVcircumstance
p1876
aVopened
p1877
aVstimulating
p1878
aVline
p1879
aVthought
p1880
aVsee
p1881
aVfoxhound
p1882
aVhanging
p1883
aVears
p1884
aVdrooping
p1885
aVtail
p1886
aVlolls
p1887
aVkennels
p1888
aVcompare
p1889
aVhound
p1890
aVgleaming
p1891
aVeyes
p1892
aVstraining
p1893
aVmuscles
p1894
aVruns
p1895
aVupon
p1896
aVbreasthigh
p1897
aVscent
p1898
aVchange
p1899
aVholmes
p1900
aVsince
p1901
aVmorning
p1902
aVdifferent
p1903
aVman
p1904
aVlimp
p1905
aVlounging
p1906
aVfigure
p1907
aVmousecoloured
p1908
aVdressinggown
p1909
aVprowled
p1910
aVrestlessly
p1911
aVhours
p1912
aVround
p1913
aVfoggirt
p1914
aVroom
p1915
aVmaterial
p1916
aVscope
p1917
aVsaid
p1918
aVdull
p1919
aVindeed
p1920
aVunderstood
p1921
aVpossibilities
p1922
aVeven
p1923
aVdark
p1924
aVend
p1925
aVdark
p1926
aValso
p1927
aVhold
p1928
aVone
p1929
aVidea
p1930
aVmay
p1931
aVlead
p1932
aVus
p1933
aVfar
p1934
aVman
p1935
aVmet
p1936
aVdeath
p1937
aVelsewhere
p1938
aVbody
p1939
aVroof
p1940
aVcarriage
p1941
aVroof
p1942
aVremarkable
p1943
aVconsider
p1944
aVfacts
p1945
aVcoincidence
p1946
aVfound
p1947
aVpoint
p1948
aVtrain
p1949
aVpitches
p1950
aVsways
p1951
aVcomes
p1952
aVround
p1953
aVpoints
p1954
aVplace
p1955
aVobject
p1956
aVupon
p1957
aVroof
p1958
aVmight
p1959
aVexpected
p1960
aVfall
p1961
aVpoints
p1962
aVwould
p1963
aVaffect
p1964
aVobject
p1965
aVinside
p1966
aVtrain
p1967
aVeither
p1968
aVbody
p1969
aVfell
p1970
aVroof
p1971
aVcurious
p1972
aVcoincidence
p1973
aVoccurred
p1974
aVconsider
p1975
aVquestion
p1976
aVblood
p1977
aVcourse
p1978
aVbleeding
p1979
aVline
p1980
aVbody
p1981
aVbled
p1982
aVelsewhere
p1983
aVfact
p1984
aVsuggestive
p1985
aVtogether
p1986
aVcumulative
p1987
aVforce
p1988
aVticket
p1989
aVcried
p1990
aVexactly
p1991
aVcould
p1992
aVexplain
p1993
aVabsence
p1994
aVticket
p1995
aVwould
p1996
aVexplain
p1997
aVeverything
p1998
aVfits
p1999
aVtogether
p2000
aVsuppose
p2001
aVstill
p2002
aVfar
p2003
aVever
p2004
aVunravelling
p2005
aVmystery
p2006
aVdeath
p2007
aVindeed
p2008
aVbecomes
p2009
aVsimpler
p2010
aVstranger
p2011
aVperhaps
p2012
aVsaid
p2013
aVholmes
p2014
aVthoughtfully
p2015
aVperhaps
p2016
aVrelapsed
p2017
aVsilent
p2018
aVreverie
p2019
aVlasted
p2020
aVslow
p2021
aVtrain
p2022
aVdrew
p2023
aVlast
p2024
aVwoolwich
p2025
aVstation
p2026
aVcalled
p2027
aVcab
p2028
aVdrew
p2029
aVmycroft
p2030
aVpaper
p2031
aVpocket
p2032
aVquite
p2033
aVlittle
p2034
aVround
p2035
aVafternoon
p2036
aVcalls
p2037
aVmake
p2038
aVsaid
p2039
aVthink
p2040
aVsir
p2041
aVjames
p2042
aVwalter
p2043
aVclaims
p2044
aVfirst
p2045
aVattention
p2046
aVhouse
p2047
aVfamous
p2048
aVofficial
p2049
aVfine
p2050
aVvilla
p2051
aVgreen
p2052
aVlawns
p2053
aVstretching
p2054
aVthames
p2055
aVreached
p2056
aVfog
p2057
aVlifting
p2058
aVthin
p2059
aVwatery
p2060
aVsunshine
p2061
aVbreaking
p2062
aVbutler
p2063
aVanswered
p2064
aVring
p2065
aVsir
p2066
aVjames
p2067
aVsir
p2068
aVsaid
p2069
aVsolemn
p2070
aVface
p2071
aVsir
p2072
aVjames
p2073
aVdied
p2074
aVmorning
p2075
aVgood
p2076
aVheavens
p2077
aVcried
p2078
aVholmes
p2079
aVamazement
p2080
aVdie
p2081
aVperhaps
p2082
aVwould
p2083
aVcare
p2084
aVstep
p2085
aVsir
p2086
aVsee
p2087
aVbrother
p2088
aVcolonel
p2089
aVvalentine
p2090
aVyes
p2091
aVbest
p2092
aVushered
p2093
aVdimlit
p2094
aVdrawingroom
p2095
aVinstant
p2096
aVlater
p2097
aVjoined
p2098
aVtall
p2099
aVhandsome
p2100
aVlightbeared
p2101
aVman
p2102
aVfifty
p2103
aVyounger
p2104
aVbrother
p2105
aVdead
p2106
aVscientist
p2107
aVwild
p2108
aVeyes
p2109
aVstained
p2110
aVcheeks
p2111
aVunkempt
p2112
aVhair
p2113
aVspoke
p2114
aVsudden
p2115
aVblow
p2116
aVfallen
p2117
aVupon
p2118
aVhousehold
p2119
aVhardly
p2120
aVarticulate
p2121
aVspoke
p2122
aVhorrible
p2123
aVscandal
p2124
aVsaid
p2125
aVbrother
p2126
aVsir
p2127
aVjames
p2128
aVman
p2129
aVsensitive
p2130
aVhonour
p2131
aVcould
p2132
aVsurvive
p2133
aVaffair
p2134
aVbroke
p2135
aVheart
p2136
aValways
p2137
aVproud
p2138
aVefficiency
p2139
aVdepartment
p2140
aVcrushing
p2141
aVblow
p2142
aVhoped
p2143
aVmight
p2144
aVgiven
p2145
aVus
p2146
aVindications
p2147
aVwould
p2148
aVhelped
p2149
aVus
p2150
aVclear
p2151
aVmatter
p2152
aVassure
p2153
aVmystery
p2154
aVus
p2155
aValready
p2156
aVput
p2157
aVknowledge
p2158
aVdisposal
p2159
aVpolice
p2160
aVnaturally
p2161
aVdoubt
p2162
aVcadogan
p2163
aVwest
p2164
aVguilty
p2165
aVrest
p2166
aVinconceivable
p2167
aVthrow
p2168
aVnew
p2169
aVlight
p2170
aVupon
p2171
aVaffair
p2172
aVknow
p2173
aVnothing
p2174
aVsave
p2175
aVread
p2176
aVheard
p2177
aVdesire
p2178
aVdiscourteous
p2179
aVunderstand
p2180
aVmr
p2181
aVholmes
p2182
aVmuch
p2183
aVdisturbed
p2184
aVpresent
p2185
aVmust
p2186
aVask
p2187
aVhasten
p2188
aVinterview
p2189
aVend
p2190
aVindeed
p2191
aVunexpected
p2192
aVdevelopment
p2193
aVsaid
p2194
aVfriend
p2195
aVregained
p2196
aVcab
p2197
aVwonder
p2198
aVdeath
p2199
aVnatural
p2200
aVwhether
p2201
aVpoor
p2202
aVold
p2203
aVfellow
p2204
aVkilled
p2205
aVlatter
p2206
aVmay
p2207
aVtaken
p2208
aVsign
p2209
aVselfreproach
p2210
aVduty
p2211
aVneglected
p2212
aVmust
p2213
aVleave
p2214
aVquestion
p2215
aVfuture
p2216
aVshall
p2217
aVturn
p2218
aVcadogan
p2219
aVwests
p2220
aVsmall
p2221
aVwellkept
p2222
aVhouse
p2223
aVoutskirts
p2224
aVtown
p2225
aVsheltered
p2226
aVbereaved
p2227
aVmother
p2228
aVold
p2229
aVlady
p2230
aVdazed
p2231
aVgrief
p2232
aVuse
p2233
aVus
p2234
aVside
p2235
aVwhitefaced
p2236
aVyoung
p2237
aVlady
p2238
aVintroduced
p2239
aVmiss
p2240
aVviolet
p2241
aVwestbury
p2242
aVfiancee
p2243
aVdead
p2244
aVman
p2245
aVlast
p2246
aVsee
p2247
aVupon
p2248
aVfatal
p2249
aVnight
p2250
aVexplain
p2251
aVmr
p2252
aVholmes
p2253
aVsaid
p2254
aVshut
p2255
aVeye
p2256
aVsince
p2257
aVtragedy
p2258
aVthinking
p2259
aVthinking
p2260
aVthinking
p2261
aVnight
p2262
aVday
p2263
aVtrue
p2264
aVmeaning
p2265
aVarthur
p2266
aVsingleminded
p2267
aVchivalrous
p2268
aVpatriotic
p2269
aVman
p2270
aVupon
p2271
aVearth
p2272
aVwould
p2273
aVcut
p2274
aVright
p2275
aVhand
p2276
aVwould
p2277
aVsell
p2278
aVstate
p2279
aVsecret
p2280
aVconfided
p2281
aVkeeping
p2282
aVabsurd
p2283
aVimpossible
p2284
aVpreposterous
p2285
aVanyone
p2286
aVknew
p2287
aVfacts
p2288
aVmiss
p2289
aVwestbury
p2290
aVyes
p2291
aVyes
p2292
aVadmit
p2293
aVexplain
p2294
aVwant
p2295
aVmoney
p2296
aVneeds
p2297
aVsimple
p2298
aVsalary
p2299
aVample
p2300
aVsaved
p2301
aVhundreds
p2302
aVmarry
p2303
aVnew
p2304
aVyear
p2305
aVsigns
p2306
aVmental
p2307
aVexcitement
p2308
aVcome
p2309
aVmiss
p2310
aVwestbury
p2311
aVabsolutely
p2312
aVfrank
p2313
aVus
p2314
aVquick
p2315
aVeye
p2316
aVcompanion
p2317
aVnoted
p2318
aVchange
p2319
aVmanner
p2320
aVcoloured
p2321
aVhesitated
p2322
aVyes
p2323
aVsaid
p2324
aVlast
p2325
aVfeeling
p2326
aVsomething
p2327
aVmind
p2328
aVlong
p2329
aVlast
p2330
aVweek
p2331
aVthoughtful
p2332
aVworried
p2333
aVpressed
p2334
aVadmitted
p2335
aVsomething
p2336
aVconcerned
p2337
aVofficial
p2338
aVlife
p2339
aVserious
p2340
aVspeak
p2341
aVeven
p2342
aVsaid
p2343
aVcould
p2344
aVget
p2345
aVnothing
p2346
aVholmes
p2347
aVlooked
p2348
aVgrave
p2349
aVgo
p2350
aVmiss
p2351
aVwestbury
p2352
aVeven
p2353
aVseems
p2354
aVtell
p2355
aVgo
p2356
aVsay
p2357
aVmay
p2358
aVlead
p2359
aVindeed
p2360
aVnothing
p2361
aVtell
p2362
aVtwice
p2363
aVseemed
p2364
aVpoint
p2365
aVtelling
p2366
aVsomething
p2367
aVspoke
p2368
aVone
p2369
aVevening
p2370
aVimportance
p2371
aVsecret
p2372
aVrecollection
p2373
aVsaid
p2374
aVdoubt
p2375
aVforeign
p2376
aVspies
p2377
aVwould
p2378
aVpay
p2379
aVgreat
p2380
aVdeal
p2381
aVfriend
p2382
aVface
p2383
aVgrew
p2384
aVgraver
p2385
aVstill
p2386
aVanything
p2387
aVelse
p2388
aVsaid
p2389
aVslack
p2390
aVmatters
p2391
aVwould
p2392
aVeasy
p2393
aVtraitor
p2394
aVget
p2395
aVplans
p2396
aVrecently
p2397
aVmade
p2398
aVremarks
p2399
aVyes
p2400
aVquite
p2401
aVrecently
p2402
aVtell
p2403
aVus
p2404
aVlast
p2405
aVevening
p2406
aVgo
p2407
aVtheatre
p2408
aVfog
p2409
aVthick
p2410
aVcab
p2411
aVuseless
p2412
aVwalked
p2413
aVway
p2414
aVtook
p2415
aVus
p2416
aVclose
p2417
aVoffice
p2418
aVsuddenly
p2419
aVdarted
p2420
aVaway
p2421
aVfog
p2422
aVwithout
p2423
aVword
p2424
aVgave
p2425
aVexclamation
p2426
aVwaited
p2427
aVnever
p2428
aVreturned
p2429
aVwalked
p2430
aVhome
p2431
aVnext
p2432
aVmorning
p2433
aVoffice
p2434
aVopened
p2435
aVcame
p2436
aVinquire
p2437
aVtwelve
p2438
aVoclock
p2439
aVheard
p2440
aVterrible
p2441
aVnews
p2442
aVoh
p2443
aVmr
p2444
aVholmes
p2445
aVcould
p2446
aVsave
p2447
aVhonour
p2448
aVmuch
p2449
aVholmes
p2450
aVshook
p2451
aVhead
p2452
aVsadly
p2453
aVcome
p2454
aVwatson
p2455
aVsaid
p2456
aVways
p2457
aVlie
p2458
aVelsewhere
p2459
aVnext
p2460
aVstation
p2461
aVmust
p2462
aVoffice
p2463
aVpapers
p2464
aVtaken
p2465
aVblack
p2466
aVenough
p2467
aVyoung
p2468
aVman
p2469
aVinquiries
p2470
aVmake
p2471
aVblacker
p2472
aVremarked
p2473
aVcab
p2474
aVlumbered
p2475
aVcoming
p2476
aVmarriage
p2477
aVgives
p2478
aVmotive
p2479
aVcrime
p2480
aVnaturally
p2481
aVwanted
p2482
aVmoney
p2483
aVidea
p2484
aVhead
p2485
aVsince
p2486
aVspoke
p2487
aVnearly
p2488
aVmade
p2489
aVgirl
p2490
aVaccomplice
p2491
aVtreason
p2492
aVtelling
p2493
aVplans
p2494
aVbad
p2495
aVsurely
p2496
aVholmes
p2497
aVcharacter
p2498
aVgoes
p2499
aVsomething
p2500
aVleave
p2501
aVgirl
p2502
aVstreet
p2503
aVdart
p2504
aVaway
p2505
aVcommit
p2506
aVfelony
p2507
aVexactly
p2508
aVcertainly
p2509
aVobjections
p2510
aVformidable
p2511
aVcase
p2512
aVmeet
p2513
aVmr
p2514
aVsidney
p2515
aVjohnson
p2516
aVsenior
p2517
aVclerk
p2518
aVmet
p2519
aVus
p2520
aVoffice
p2521
aVreceived
p2522
aVus
p2523
aVrespect
p2524
aVcompanion
p2525
aVcard
p2526
aValways
p2527
aVcommanded
p2528
aVthin
p2529
aVgruff
p2530
aVbespectacled
p2531
aVman
p2532
aVmiddle
p2533
aVage
p2534
aVcheeks
p2535
aVhaggard
p2536
aVhands
p2537
aVtwitching
p2538
aVnervous
p2539
aVstrain
p2540
aVsubjected
p2541
aVbad
p2542
aVmr
p2543
aVholmes
p2544
aVbad
p2545
aVheard
p2546
aVdeath
p2547
aVchief
p2548
aVcome
p2549
aVhouse
p2550
aVplace
p2551
aVdisorganized
p2552
aVchief
p2553
aVdead
p2554
aVcadogan
p2555
aVwest
p2556
aVdead
p2557
aVpapers
p2558
aVstolen
p2559
aVyet
p2560
aVclosed
p2561
aVdoor
p2562
aVmonday
p2563
aVevening
p2564
aVefficient
p2565
aVoffice
p2566
aVgovernment
p2567
aVservice
p2568
aVgood
p2569
aVgod
p2570
aVdreadful
p2571
aVthink
p2572
aVwest
p2573
aVmen
p2574
aVdone
p2575
aVthing
p2576
aVsure
p2577
aVguilt
p2578
aVsee
p2579
aVway
p2580
aVyet
p2581
aVwould
p2582
aVtrusted
p2583
aVtrust
p2584
aVhour
p2585
aVoffice
p2586
aVclosed
p2587
aVmonday
p2588
aVfive
p2589
aVclose
p2590
aValways
p2591
aVlast
p2592
aVman
p2593
aVplans
p2594
aVsafe
p2595
aVput
p2596
aVwatchman
p2597
aVbuilding
p2598
aVdepartments
p2599
aVlook
p2600
aVwell
p2601
aVold
p2602
aVsoldier
p2603
aVtrustworthy
p2604
aVman
p2605
aVsaw
p2606
aVnothing
p2607
aVevening
p2608
aVcourse
p2609
aVfog
p2610
aVthick
p2611
aVsuppose
p2612
aVcadogan
p2613
aVwest
p2614
aVwished
p2615
aVmake
p2616
aVway
p2617
aVbuilding
p2618
aVhours
p2619
aVwould
p2620
aVneed
p2621
aVthree
p2622
aVkeys
p2623
aVwould
p2624
aVcould
p2625
aVreach
p2626
aVpapers
p2627
aVyes
p2628
aVwould
p2629
aVkey
p2630
aVouter
p2631
aVdoor
p2632
aVkey
p2633
aVoffice
p2634
aVkey
p2635
aVsafe
p2636
aVsir
p2637
aVjames
p2638
aVwalter
p2639
aVkeys
p2640
aVkeys
p2641
aVdoors
p2642
aVsafe
p2643
aVsir
p2644
aVjames
p2645
aVman
p2646
aVorderly
p2647
aVhabits
p2648
aVyes
p2649
aVthink
p2650
aVknow
p2651
aVfar
p2652
aVthree
p2653
aVkeys
p2654
aVconcerned
p2655
aVkept
p2656
aVring
p2657
aVoften
p2658
aVseen
p2659
aVring
p2660
aVwent
p2661
aVlondon
p2662
aVsaid
p2663
aVkey
p2664
aVnever
p2665
aVleft
p2666
aVpossession
p2667
aVnever
p2668
aVwest
p2669
aVculprit
p2670
aVmust
p2671
aVduplicate
p2672
aVyet
p2673
aVnone
p2674
aVfound
p2675
aVupon
p2676
aVbody
p2677
aVone
p2678
aVpoint
p2679
aVclerk
p2680
aVoffice
p2681
aVdesired
p2682
aVsell
p2683
aVplans
p2684
aVwould
p2685
aVsimpler
p2686
aVcopy
p2687
aVplans
p2688
aVtake
p2689
aVoriginals
p2690
aVactually
p2691
aVdone
p2692
aVwould
p2693
aVtake
p2694
aVconsiderable
p2695
aVtechnical
p2696
aVknowledge
p2697
aVcopy
p2698
aVplans
p2699
aVeffective
p2700
aVway
p2701
aVsuppose
p2702
aVeither
p2703
aVsir
p2704
aVjames
p2705
aVwest
p2706
aVtechnical
p2707
aVknowledge
p2708
aVdoubt
p2709
aVbeg
p2710
aVwo
p2711
aVnt
p2712
aVtry
p2713
aVdrag
p2714
aVmatter
p2715
aVmr
p2716
aVholmes
p2717
aVuse
p2718
aVspeculating
p2719
aVway
p2720
aVoriginal
p2721
aVplans
p2722
aVactually
p2723
aVfound
p2724
aVwest
p2725
aVwell
p2726
aVcertainly
p2727
aVsingular
p2728
aVrun
p2729
aVrisk
p2730
aVtaking
p2731
aVoriginals
p2732
aVcould
p2733
aVsafely
p2734
aVtaken
p2735
aVcopies
p2736
aVwould
p2737
aVequally
p2738
aVserved
p2739
aVturn
p2740
aVsingular
p2741
aVdoubt
p2742
aVyet
p2743
aVevery
p2744
aVinquiry
p2745
aVcase
p2746
aVreveals
p2747
aVsomething
p2748
aVinexplicable
p2749
aVthree
p2750
aVpapers
p2751
aVstill
p2752
aVmissing
p2753
aVunderstand
p2754
aVvital
p2755
aVones
p2756
aVyes
p2757
aVmean
p2758
aVsay
p2759
aVanyone
p2760
aVholding
p2761
aVthree
p2762
aVpapers
p2763
aVwithout
p2764
aVseven
p2765
aVothers
p2766
aVcould
p2767
aVconstruct
p2768
aVbrucepartington
p2769
aVsubmarine
p2770
aVreported
p2771
aVeffect
p2772
aVadmiralty
p2773
aVtoday
p2774
aVdrawings
p2775
aVsure
p2776
aVdouble
p2777
aVvalves
p2778
aVautomatic
p2779
aVselfadjusting
p2780
aVslots
p2781
aVdrawn
p2782
aVone
p2783
aVpapers
p2784
aVreturned
p2785
aVforeigners
p2786
aVinvented
p2787
aVcould
p2788
aVmake
p2789
aVboat
p2790
aVcourse
p2791
aVmight
p2792
aVsoon
p2793
aVget
p2794
aVdifficulty
p2795
aVthree
p2796
aVmissing
p2797
aVdrawings
p2798
aVimportant
p2799
aVundoubtedly
p2800
aVthink
p2801
aVpermission
p2802
aVtake
p2803
aVstroll
p2804
aVround
p2805
aVpremises
p2806
aVrecall
p2807
aVquestion
p2808
aVdesired
p2809
aVask
p2810
aVexamined
p2811
aVlock
p2812
aVsafe
p2813
aVdoor
p2814
aVroom
p2815
aVfinally
p2816
aViron
p2817
aVshutters
p2818
aVwindow
p2819
aVlawn
p2820
aVoutside
p2821
aVinterest
p2822
aVstrongly
p2823
aVexcited
p2824
aVlaurel
p2825
aVbush
p2826
aVoutside
p2827
aVwindow
p2828
aVseveral
p2829
aVbranches
p2830
aVbore
p2831
aVsigns
p2832
aVtwisted
p2833
aVsnapped
p2834
aVexamined
p2835
aVcarefully
p2836
aVlens
p2837
aVdim
p2838
aVvague
p2839
aVmarks
p2840
aVupon
p2841
aVearth
p2842
aVbeneath
p2843
aVfinally
p2844
aVasked
p2845
aVchief
p2846
aVclerk
p2847
aVclose
p2848
aViron
p2849
aVshutters
p2850
aVpointed
p2851
aVhardly
p2852
aVmet
p2853
aVcentre
p2854
aVwould
p2855
aVpossible
p2856
aVanyone
p2857
aVoutside
p2858
aVsee
p2859
aVgoing
p2860
aVwithin
p2861
aVroom
p2862
aVindications
p2863
aVruined
p2864
aVthree
p2865
aVdays
p2866
aVdelay
p2867
aVmay
p2868
aVmean
p2869
aVsomething
p2870
aVnothing
p2871
aVwell
p2872
aVwatson
p2873
aVthink
p2874
aVwoolwich
p2875
aVhelp
p2876
aVus
p2877
aVsmall
p2878
aVcrop
p2879
aVgathered
p2880
aVlet
p2881
aVus
p2882
aVsee
p2883
aVbetter
p2884
aVlondon
p2885
aVyet
p2886
aVadded
p2887
aVone
p2888
aVsheaf
p2889
aVharvest
p2890
aVleft
p2891
aVwoolwich
p2892
aVstation
p2893
aVclerk
p2894
aVticket
p2895
aVoffice
p2896
aVable
p2897
aVsay
p2898
aVconfidence
p2899
aVsaw
p2900
aVcadogan
p2901
aVwest
p2902
aVknew
p2903
aVwell
p2904
aVsight
p2905
aVupon
p2906
aVmonday
p2907
aVnight
p2908
aVwent
p2909
aVlondon
p2910
aVlondon
p2911
aVbridge
p2912
aValone
p2913
aVtook
p2914
aVsingle
p2915
aVthirdclass
p2916
aVticket
p2917
aVclerk
p2918
aVstruck
p2919
aVtime
p2920
aVexcited
p2921
aVnervous
p2922
aVmanner
p2923
aVshaky
p2924
aVcould
p2925
aVhardly
p2926
aVpick
p2927
aVchange
p2928
aVclerk
p2929
aVhelped
p2930
aVreference
p2931
aVtimetable
p2932
aVshowed
p2933
aVfirst
p2934
aVtrain
p2935
aVpossible
p2936
aVwest
p2937
aVtake
p2938
aVleft
p2939
aVlady
p2940
aVlet
p2941
aVus
p2942
aVreconstruct
p2943
aVwatson
p2944
aVsaid
p2945
aVholmes
p2946
aVhalf
p2947
aVhour
p2948
aVsilence
p2949
aVaware
p2950
aVjoint
p2951
aVresearches
p2952
aVever
p2953
aVcase
p2954
aVdifficult
p2955
aVget
p2956
aVevery
p2957
aVfresh
p2958
aVadvance
p2959
aVmake
p2960
aVreveals
p2961
aVfresh
p2962
aVridge
p2963
aVbeyond
p2964
aVyet
p2965
aVsurely
p2966
aVmade
p2967
aVappreciable
p2968
aVprogress
p2969
aVeffect
p2970
aVinquiries
p2971
aVwoolwich
p2972
aVmain
p2973
aVyoung
p2974
aVcadogan
p2975
aVwest
p2976
aVindications
p2977
aVwindow
p2978
aVwould
p2979
aVlend
p2980
aVfavourable
p2981
aVhypothesis
p2982
aVlet
p2983
aVus
p2984
aVsuppose
p2985
aVexample
p2986
aVapproached
p2987
aVforeign
p2988
aVagent
p2989
aVmight
p2990
aVdone
p2991
aVpledges
p2992
aVwould
p2993
aVprevented
p2994
aVspeaking
p2995
aVyet
p2996
aVwould
p2997
aVaffected
p2998
aVthoughts
p2999
aVdirection
p3000
aVindicated
p3001
aVremarks
p3002
aVfiancee
p3003
aVgood
p3004
aVsuppose
p3005
aVwent
p3006
aVtheatre
p3007
aVyoung
p3008
aVlady
p3009
aVsuddenly
p3010
aVfog
p3011
aVcaught
p3012
aVglimpse
p3013
aVagent
p3014
aVgoing
p3015
aVdirection
p3016
aVoffice
p3017
aVimpetuous
p3018
aVman
p3019
aVquick
p3020
aVdecisions
p3021
aVeverything
p3022
aVgave
p3023
aVway
p3024
aVduty
p3025
aVfollowed
p3026
aVman
p3027
aVreached
p3028
aVwindow
p3029
aVsaw
p3030
aVabstraction
p3031
aVdocuments
p3032
aVpursued
p3033
aVthief
p3034
aVway
p3035
aVget
p3036
aVobjection
p3037
aVone
p3038
aVwould
p3039
aVtake
p3040
aVoriginals
p3041
aVcould
p3042
aVmake
p3043
aVcopies
p3044
aVoutsider
p3045
aVtake
p3046
aVoriginals
p3047
aVfar
p3048
aVholds
p3049
aVtogether
p3050
aVnext
p3051
aVstep
p3052
aVcome
p3053
aVdifficulties
p3054
aVone
p3055
aVwould
p3056
aVimagine
p3057
aVcircumstances
p3058
aVfirst
p3059
aVact
p3060
aVyoung
p3061
aVcadogan
p3062
aVwest
p3063
aVwould
p3064
aVseize
p3065
aVvillain
p3066
aVraise
p3067
aValarm
p3068
aVcould
p3069
aVofficial
p3070
aVsuperior
p3071
aVtook
p3072
aVpapers
p3073
aVwould
p3074
aVexplain
p3075
aVwest
p3076
aVconduct
p3077
aVcould
p3078
aVchief
p3079
aVgiven
p3080
aVwest
p3081
aVslip
p3082
aVfog
p3083
aVwest
p3084
aVstarted
p3085
aVlondon
p3086
aVhead
p3087
aVrooms
p3088
aVpresuming
p3089
aVknew
p3090
aVrooms
p3091
aVcall
p3092
aVmust
p3093
aVpressing
p3094
aVsince
p3095
aVleft
p3096
aVgirl
p3097
aVstanding
p3098
aVfog
p3099
aVmade
p3100
aVeffort
p3101
aVcommunicate
p3102
aVscent
p3103
aVruns
p3104
aVcold
p3105
aVvast
p3106
aVgap
p3107
aVeither
p3108
aVhypothesis
p3109
aVlaying
p3110
aVwest
p3111
aVbody
p3112
aVseven
p3113
aVpapers
p3114
aVpocket
p3115
aVroof
p3116
aVmetropolitan
p3117
aVtrain
p3118
aVinstinct
p3119
aVwork
p3120
aVend
p3121
aVmycroft
p3122
aVgiven
p3123
aVus
p3124
aVlist
p3125
aVaddresses
p3126
aVmay
p3127
aVable
p3128
aVpick
p3129
aVman
p3130
aVfollow
p3131
aVtwo
p3132
aVtracks
p3133
aVinstead
p3134
aVone
p3135
aVsurely
p3136
aVenough
p3137
aVnote
p3138
aVawaited
p3139
aVus
p3140
aVbaker
p3141
aVstreet
p3142
aVgovernment
p3143
aVmessenger
p3144
aVbrought
p3145
aVposthaste
p3146
aVholmes
p3147
aVglanced
p3148
aVthrew
p3149
aVnumerous
p3150
aVsmall
p3151
aVfry
p3152
aVwould
p3153
aVhandle
p3154
aVbig
p3155
aVaffair
p3156
aVmen
p3157
aVworth
p3158
aVconsidering
p3159
aVadolph
p3160
aVmayer
p3161
aVgreat
p3162
aVgeorge
p3163
aVstreet
p3164
aVwestminster
p3165
aVlouis
p3166
aVla
p3167
aVrothiere
p3168
aVcampden
p3169
aVmansions
p3170
aVnotting
p3171
aVhill
p3172
aVhugo
p3173
aVoberstein
p3174
aVcaulfield
p3175
aVgardens
p3176
aVkensington
p3177
aVlatter
p3178
aVknown
p3179
aVtown
p3180
aVmonday
p3181
aVreported
p3182
aVleft
p3183
aVglad
p3184
aVhear
p3185
aVseen
p3186
aVlight
p3187
aVcabinet
p3188
aVawaits
p3189
aVfinal
p3190
aVreport
p3191
aVutmost
p3192
aVanxiety
p3193
aVurgent
p3194
aVrepresentations
p3195
aVarrived
p3196
aVhighest
p3197
aVquarter
p3198
aVwhole
p3199
aVforce
p3200
aVstate
p3201
aVback
p3202
aVneed
p3203
aVmycroft
p3204
aVm
aVafraid
p3205
aVsaid
p3206
aVholmes
p3207
aVsmiling
p3208
aVqueen
p3209
aVhorses
p3210
aVqueen
p3211
aVmen
p3212
aVavail
p3213
aVmatter
p3214
aVspread
p3215
aVbig
p3216
aVmap
p3217
aVlondon
p3218
aVleaned
p3219
aVeagerly
p3220
aVwell
p3221
aVwell
p3222
aVsaid
p3223
aVpresently
p3224
aVexclamation
p3225
aVsatisfaction
p3226
aVthings
p3227
aVturning
p3228
aVlittle
p3229
aVdirection
p3230
aVlast
p3231
aVwatson
p3232
aVhonestly
p3233
aVbelieve
p3234
aVgoing
p3235
aVpull
p3236
aVslapped
p3237
aVshoulder
p3238
aVsudden
p3239
aVburst
p3240
aVhilarity
p3241
aVgoing
p3242
aVreconnaissance
p3243
aVnothing
p3244
aVserious
p3245
aVwithout
p3246
aVtrusted
p3247
aVcomrade
p3248
aVbiographer
p3249
aVelbow
p3250
aVstay
p3251
aVodds
p3252
aVsee
p3253
aVhour
p3254
aVtwo
p3255
aVtime
p3256
aVhangs
p3257
aVheavy
p3258
aVget
p3259
aVfoolscap
p3260
aVpen
p3261
aVbegin
p3262
aVnarrative
p3263
aVsaved
p3264
aVstate
p3265
aVfelt
p3266
aVreflection
p3267
aVelation
p3268
aVmind
p3269
aVknew
p3270
aVwell
p3271
aVwould
p3272
aVdepart
p3273
aVfar
p3274
aVusual
p3275
aVausterity
p3276
aVdemeanour
p3277
aVunless
p3278
aVgood
p3279
aVcause
p3280
aVexultation
p3281
aVlong
p3282
aVnovember
p3283
aVevening
p3284
aVwaited
p3285
aVfilled
p3286
aVimpatience
p3287
aVreturn
p3288
aVlast
p3289
aVshortly
p3290
aVnine
p3291
aVoclock
p3292
aVarrived
p3293
aVmessenger
p3294
aVnote
p3295
aVdining
p3296
aVgoldini
p3297
aVrestaurant
p3298
aVgloucester
p3299
aVroad
p3300
aVkensington
p3301
aVplease
p3302
aVcome
p3303
aVjoin
p3304
aVbring
p3305
aVjemmy
p3306
aVdark
p3307
aVlantern
p3308
aVchisel
p3309
aVrevolver
p3310
aVsh
p3311
aVnice
p3312
aVequipment
p3313
aVrespectable
p3314
aVcitizen
p3315
aVcarry
p3316
aVdim
p3317
aVfogdraped
p3318
aVstreets
p3319
aVstowed
p3320
aVdiscreetly
p3321
aVaway
p3322
aVovercoat
p3323
aVdrove
p3324
aVstraight
p3325
aVaddress
p3326
aVgiven
p3327
aVsat
p3328
aVfriend
p3329
aVlittle
p3330
aVround
p3331
aVtable
p3332
aVnear
p3333
aVdoor
p3334
aVgarish
p3335
aVitalian
p3336
aVrestaurant
p3337
aVsomething
p3338
aVeat
p3339
aVjoin
p3340
aVcoffee
p3341
aVcuracao
p3342
aVtry
p3343
aVone
p3344
aVproprietor
p3345
aVcigars
p3346
aVless
p3347
aVpoisonous
p3348
aVone
p3349
aVwould
p3350
aVexpect
p3351
aVtools
p3352
aVovercoat
p3353
aVexcellent
p3354
aVlet
p3355
aVgive
p3356
aVshort
p3357
aVsketch
p3358
aVdone
p3359
aVindication
p3360
aVmust
p3361
aVevident
p3362
aVwatson
p3363
aVyoung
p3364
aVman
p3365
aVbody
p3366
aVplaced
p3367
aVroof
p3368
aVtrain
p3369
aVclear
p3370
aVinstant
p3371
aVdetermined
p3372
aVfact
p3373
aVroof
p3374
aVcarriage
p3375
aVfallen
p3376
aVcould
p3377
aVdropped
p3378
aVbridge
p3379
aVsay
p3380
aVimpossible
p3381
aVexamine
p3382
aVroofs
p3383
aVfind
p3384
aVslightly
p3385
aVrounded
p3386
aVrailing
p3387
aVround
p3388
aVtherefore
p3389
aVsay
p3390
aVcertain
p3391
aVyoung
p3392
aVcadogan
p3393
aVwest
p3394
aVplaced
p3395
aVcould
p3396
aVplaced
p3397
aVquestion
p3398
aVanswer
p3399
aVone
p3400
aVpossible
p3401
aVway
p3402
aVaware
p3403
aVunderground
p3404
aVruns
p3405
aVclear
p3406
aVtunnels
p3407
aVpoints
p3408
aVwest
p3409
aVend
p3410
aVvague
p3411
aVmemory
p3412
aVtravelled
p3413
aVoccasionally
p3414
aVseen
p3415
aVwindows
p3416
aVhead
p3417
aVsuppose
p3418
aVtrain
p3419
aVhalted
p3420
aVwindow
p3421
aVwould
p3422
aVdifficulty
p3423
aVlaying
p3424
aVbody
p3425
aVupon
p3426
aVroof
p3427
aVseems
p3428
aVimprobable
p3429
aVmust
p3430
aVfall
p3431
aVback
p3432
aVupon
p3433
aVold
p3434
aVaxiom
p3435
aVcontingencies
p3436
aVfail
p3437
aVwhatever
p3438
aVremains
p3439
aVhowever
p3440
aVimprobable
p3441
aVmust
p3442
aVtruth
p3443
aVcontingencies
p3444
aVfailed
p3445
aVfound
p3446
aVleading
p3447
aVinternational
p3448
aVagent
p3449
aVleft
p3450
aVlondon
p3451
aVlived
p3452
aVrow
p3453
aVhouses
p3454
aVabutted
p3455
aVupon
p3456
aVunderground
p3457
aVpleased
p3458
aVlittle
p3459
aVastonished
p3460
aVsudden
p3461
aVfrivolity
p3462
aVoh
p3463
aVyes
p3464
aVmr
p3465
aVhugo
p3466
aVoberstein
p3467
aVcaulfield
p3468
aVgardens
p3469
aVbecome
p3470
aVobjective
p3471
aVbegan
p3472
aVoperations
p3473
aVgloucester
p3474
aVroad
p3475
aVstation
p3476
aVhelpful
p3477
aVofficial
p3478
aVwalked
p3479
aValong
p3480
aVtrack
p3481
aVallowed
p3482
aVsatisfy
p3483
aVbackstair
p3484
aVwindows
p3485
aVcaulfield
p3486
aVgardens
p3487
aVopen
p3488
aVline
p3489
aVeven
p3490
aVessential
p3491
aVfact
p3492
aVowing
p3493
aVintersection
p3494
aVone
p3495
aVlarger
p3496
aVrailways
p3497
aVunderground
p3498
aVtrains
p3499
aVfrequently
p3500
aVheld
p3501
aVmotionless
p3502
aVminutes
p3503
aVspot
p3504
aVsplendid
p3505
aVholmes
p3506
aVgot
p3507
aVfar
p3508
aVfar
p3509
aVwatson
p3510
aVadvance
p3511
aVgoal
p3512
aVafar
p3513
aVwell
p3514
aVseen
p3515
aVback
p3516
aVcaulfield
p3517
aVgardens
p3518
aVvisited
p3519
aVfront
p3520
aVsatisfied
p3521
aVbird
p3522
aVindeed
p3523
aVflown
p3524
aVconsiderable
p3525
aVhouse
p3526
aVunfurnished
p3527
aVfar
p3528
aVcould
p3529
aVjudge
p3530
aVupper
p3531
aVrooms
p3532
aVoberstein
p3533
aVlived
p3534
aVsingle
p3535
aVvalet
p3536
aVprobably
p3537
aVconfederate
p3538
aVentirely
p3539
aVconfidence
p3540
aVmust
p3541
aVbear
p3542
aVmind
p3543
aVoberstein
p3544
aVgone
p3545
aVcontinent
p3546
aVdispose
p3547
aVbooty
p3548
aVidea
p3549
aVflight
p3550
aVreason
p3551
aVfear
p3552
aVwarrant
p3553
aVidea
p3554
aVamateur
p3555
aVdomiciliary
p3556
aVvisit
p3557
aVwould
p3558
aVcertainly
p3559
aVnever
p3560
aVoccur
p3561
aVyet
p3562
aVprecisely
p3563
aVmake
p3564
aVcould
p3565
aVget
p3566
aVwarrant
p3567
aVlegalize
p3568
aVhardly
p3569
aVevidence
p3570
aVhope
p3571
aVtell
p3572
aVcorrespondence
p3573
aVmay
p3574
aVnt
p3575
aVlike
p3576
aVholmes
p3577
aVdear
p3578
aVfellow
p3579
aVshall
p3580
aVkeep
p3581
aVwatch
p3582
aVstreet
p3583
aVll
p3584
aVcriminal
p3585
aVpart
p3586
aVtime
p3587
aVstick
p3588
aVtrifles
p3589
aVthink
p3590
aVmycroft
p3591
aVnote
p3592
aVadmiralty
p3593
aVcabinet
p3594
aVexalted
p3595
aVperson
p3596
aVwaits
p3597
aVnews
p3598
aVbound
p3599
aVgo
p3600
aVanswer
p3601
aVrise
p3602
aVtable
p3603
aVright
p3604
aVholmes
p3605
aVbound
p3606
aVgo
p3607
aVsprang
p3608
aVshook
p3609
aVhand
p3610
aVknew
p3611
aVwould
p3612
aVshrink
p3613
aVlast
p3614
aVsaid
p3615
aVmoment
p3616
aVsaw
p3617
aVsomething
p3618
aVeyes
p3619
aVnearer
p3620
aVtenderness
p3621
aVever
p3622
aVseen
p3623
aVnext
p3624
aVinstant
p3625
aVmasterful
p3626
aVpractical
p3627
aVself
p3628
aVnearly
p3629
aVhalf
p3630
aVmile
p3631
aVhurry
p3632
aVlet
p3633
aVus
p3634
aVwalk
p3635
aVsaid
p3636
aVnt
p3637
aVdrop
p3638
aVinstruments
p3639
aVbeg
p3640
aVarrest
p3641
aVsuspicious
p3642
aVcharacter
p3643
aVwould
p3644
aVunfortunate
p3645
aVcomplication
p3646
aVcaulfield
p3647
aVgardens
p3648
aVone
p3649
aVlines
p3650
aVflatfaced
p3651
aVpillared
p3652
aVporticoed
p3653
aVhouses
p3654
aVprominent
p3655
aVproduct
p3656
aVmiddle
p3657
aVvictorian
p3658
aVepoch
p3659
aVwest
p3660
aVend
p3661
aVlondon
p3662
aVnext
p3663
aVdoor
p3664
aVappeared
p3665
aVchildren
p3666
aVparty
p3667
aVmerry
p3668
aVbuzz
p3669
aVyoung
p3670
aVvoices
p3671
aVclatter
p3672
aVpiano
p3673
aVresounded
p3674
aVnight
p3675
aVfog
p3676
aVstill
p3677
aVhung
p3678
aVscreened
p3679
aVus
p3680
aVfriendly
p3681
aVshade
p3682
aVholmes
p3683
aVlit
p3684
aVlantern
p3685
aVflashed
p3686
aVupon
p3687
aVmassive
p3688
aVdoor
p3689
aVserious
p3690
aVproposition
p3691
aVsaid
p3692
aVcertainly
p3693
aVbolted
p3694
aVwell
p3695
aVlocked
p3696
aVwould
p3697
aVbetter
p3698
aVarea
p3699
aVexcellent
p3700
aVarchway
p3701
aVyonder
p3702
aVcase
p3703
aVzealous
p3704
aVpoliceman
p3705
aVintrude
p3706
aVgive
p3707
aVhand
p3708
aVwatson
p3709
aVll
p3710
aVminute
p3711
aVlater
p3712
aVarea
p3713
aVhardly
p3714
aVreached
p3715
aVdark
p3716
aVshadows
p3717
aVstep
p3718
aVpoliceman
p3719
aVheard
p3720
aVfog
p3721
aVsoft
p3722
aVrhythm
p3723
aVdied
p3724
aVaway
p3725
aVholmes
p3726
aVset
p3727
aVwork
p3728
aVupon
p3729
aVlower
p3730
aVdoor
p3731
aVsaw
p3732
aVstoop
p3733
aVstrain
p3734
aVsharp
p3735
aVcrash
p3736
aVflew
p3737
aVopen
p3738
aVsprang
p3739
aVdark
p3740
aVpassage
p3741
aVclosing
p3742
aVarea
p3743
aVdoor
p3744
aVbehind
p3745
aVus
p3746
aVholmes
p3747
aVled
p3748
aVway
p3749
aVcurving
p3750
aVuncarpeted
p3751
aVstair
p3752
aVlittle
p3753
aVfan
p3754
aVyellow
p3755
aVlight
p3756
aVshone
p3757
aVupon
p3758
aVlow
p3759
aVwindow
p3760
aVwatson
p3761
aVmust
p3762
aVone
p3763
aVthrew
p3764
aVopen
p3765
aVlow
p3766
aVharsh
p3767
aVmurmur
p3768
aVgrowing
p3769
aVsteadily
p3770
aVloud
p3771
aVroar
p3772
aVtrain
p3773
aVdashed
p3774
aVpast
p3775
aVus
p3776
aVdarkness
p3777
aVholmes
p3778
aVswept
p3779
aVlight
p3780
aValong
p3781
aVwindowsill
p3782
aVthickly
p3783
aVcoated
p3784
aVsoot
p3785
aVpassing
p3786
aVengines
p3787
aVblack
p3788
aVsurface
p3789
aVblurred
p3790
aVrubbed
p3791
aVplaces
p3792
aVsee
p3793
aVrested
p3794
aVbody
p3795
aVhalloa
p3796
aVwatson
p3797
aVdoubt
p3798
aVblood
p3799
aVmark
p3800
aVpointing
p3801
aVfaint
p3802
aVdiscolourations
p3803
aValong
p3804
aVwoodwork
p3805
aVwindow
p3806
aVstone
p3807
aVstair
p3808
aValso
p3809
aVdemonstration
p3810
aVcomplete
p3811
aVlet
p3812
aVus
p3813
aVstay
p3814
aVtrain
p3815
aVstops
p3816
aVlong
p3817
aVwait
p3818
aVnext
p3819
aVtrain
p3820
aVroared
p3821
aVtunnel
p3822
aVslowed
p3823
aVopen
p3824
aVcreaking
p3825
aVbrakes
p3826
aVpulled
p3827
aVimmediately
p3828
aVbeneath
p3829
aVus
p3830
aVfour
p3831
aVfeet
p3832
aVwindowledge
p3833
aVroof
p3834
aVcarriages
p3835
aVholmes
p3836
aVsoftly
p3837
aVclosed
p3838
aVwindow
p3839
aVfar
p3840
aVjustified
p3841
aVsaid
p3842
aVthink
p3843
aVwatson
p3844
aVmasterpiece
p3845
aVnever
p3846
aVrisen
p3847
aVgreater
p3848
aVheight
p3849
aVagree
p3850
aVmoment
p3851
aVconceived
p3852
aVidea
p3853
aVbody
p3854
aVupon
p3855
aVroof
p3856
aVsurely
p3857
aVabstruse
p3858
aVone
p3859
aVrest
p3860
aVinevitable
p3861
aVgrave
p3862
aVinterests
p3863
aVinvolved
p3864
aVaffair
p3865
aVpoint
p3866
aVwould
p3867
aVinsignificant
p3868
aVdifficulties
p3869
aVstill
p3870
aVus
p3871
aVperhaps
p3872
aVmay
p3873
aVfind
p3874
aVsomething
p3875
aVmay
p3876
aVhelp
p3877
aVus
p3878
aVascended
p3879
aVkitchen
p3880
aVstair
p3881
aVentered
p3882
aVsuite
p3883
aVrooms
p3884
aVupon
p3885
aVfirst
p3886
aVfloor
p3887
aVone
p3888
aVdiningroom
p3889
aVseverely
p3890
aVfurnished
p3891
aVcontaining
p3892
aVnothing
p3893
aVinterest
p3894
aVsecond
p3895
aVbedroom
p3896
aValso
p3897
aVdrew
p3898
aVblank
p3899
aVremaining
p3900
aVroom
p3901
aVappeared
p3902
aVpromising
p3903
aVcompanion
p3904
aVsettled
p3905
aVsystematic
p3906
aVexamination
p3907
aVlittered
p3908
aVbooks
p3909
aVpapers
p3910
aVevidently
p3911
aVused
p3912
aVstudy
p3913
aVswiftly
p3914
aVmethodically
p3915
aVholmes
p3916
aVturned
p3917
aVcontents
p3918
aVdrawer
p3919
aVdrawer
p3920
aVcupboard
p3921
aVcupboard
p3922
aVgleam
p3923
aVsuccess
p3924
aVcame
p3925
aVbrighten
p3926
aVaustere
p3927
aVface
p3928
aVend
p3929
aVhour
p3930
aVstarted
p3931
aVcunning
p3932
aVdog
p3933
aVcovered
p3934
aVtracks
p3935
aVsaid
p3936
aVleft
p3937
aVnothing
p3938
aVincriminate
p3939
aVdangerous
p3940
aVcorrespondence
p3941
aVdestroyed
p3942
aVremoved
p3943
aVlast
p3944
aVchance
p3945
aVsmall
p3946
aVtin
p3947
aVcashbox
p3948
aVstood
p3949
aVupon
p3950
aVwritingdesk
p3951
aVholmes
p3952
aVpried
p3953
aVopen
p3954
aVchisel
p3955
aVseveral
p3956
aVrolls
p3957
aVpaper
p3958
aVwithin
p3959
aVcovered
p3960
aVfigures
p3961
aVcalculations
p3962
aVwithout
p3963
aVnote
p3964
aVshow
p3965
aVreferred
p3966
aVrecurring
p3967
aVwords
p3968
aVwater
p3969
aVpressure
p3970
aVpressure
p3971
aVsquare
p3972
aVinch
p3973
aVsuggested
p3974
aVpossible
p3975
aVrelation
p3976
aVsubmarine
p3977
aVholmes
p3978
aVtossed
p3979
aVimpatiently
p3980
aVaside
p3981
aVremained
p3982
aVenvelope
p3983
aVsmall
p3984
aVnewspaper
p3985
aVslips
p3986
aVinside
p3987
aVshook
p3988
aVtable
p3989
aVsaw
p3990
aVeager
p3991
aVface
p3992
aVhopes
p3993
aVraised
p3994
aVwatson
p3995
aVeh
p3996
aVrecord
p3997
aVseries
p3998
aVmessages
p3999
aVadvertisements
p4000
aVpaper
p4001
aVdaily
p4002
aVtelegraph
p4003
aVagony
p4004
aVcolumn
p4005
aVprint
p4006
aVpaper
p4007
aVrighthand
p4008
aVtop
p4009
aVcorner
p4010
aVpage
p4011
aVdates
p4012
aVmessages
p4013
aVarrange
p4014
aVmust
p4015
aVfirst
p4016
aVhoped
p4017
aVhear
p4018
aVsooner
p4019
aVterms
p4020
aVagreed
p4021
aVwrite
p4022
aVfully
p4023
aVaddress
p4024
aVgiven
p4025
aVcard
p4026
aVpierrot
p4027
aVnext
p4028
aVcomes
p4029
aVcomplex
p4030
aVdescription
p4031
aVmust
p4032
aVfull
p4033
aVreport
p4034
aVstuff
p4035
aVawaits
p4036
aVgoods
p4037
aVdelivered
p4038
aVpierrot
p4039
aVcomes
p4040
aVmatter
p4041
aVpresses
p4042
aVmust
p4043
aVwithdraw
p4044
aVoffer
p4045
aVunless
p4046
aVcontract
p4047
aVcompleted
p4048
aVmake
p4049
aVappointment
p4050
aVletter
p4051
aVconfirm
p4052
aVadvertisement
p4053
aVpierrot
p4054
aVfinally
p4055
aVmonday
p4056
aVnight
p4057
aVnine
p4058
aVtwo
p4059
aVtaps
p4060
aVsuspicious
p4061
aVpayment
p4062
aVhard
p4063
aVcash
p4064
aVgoods
p4065
aVdelivered
p4066
aVpierrot
p4067
aVfairly
p4068
aVcomplete
p4069
aVrecord
p4070
aVwatson
p4071
aVcould
p4072
aVget
p4073
aVman
p4074
aVend
p4075
aVsat
p4076
aVlost
p4077
aVthought
p4078
aVtapping
p4079
aVfingers
p4080
aVtable
p4081
aVfinally
p4082
aVsprang
p4083
aVfeet
p4084
aVwell
p4085
aVperhaps
p4086
aVwo
p4087
aVnt
p4088
aVdifficult
p4089
aVnothing
p4090
aVdone
p4091
aVwatson
p4092
aVthink
p4093
aVmight
p4094
aVdrive
p4095
aVround
p4096
aVoffices
p4097
aVdaily
p4098
aVtelegraph
p4099
aVbring
p4100
aVgood
p4101
aVday
p4102
aVwork
p4103
aVconclusion
p4104
aVmycroft
p4105
aVholmes
p4106
aVlestrade
p4107
aVcome
p4108
aVround
p4109
aVappointment
p4110
aVbreakfast
p4111
aVnext
p4112
aVday
p4113
aVsherlock
p4114
aVholmes
p4115
aVrecounted
p4116
aVproceedings
p4117
aVday
p4118
aVprofessional
p4119
aVshook
p4120
aVhead
p4121
aVconfessed
p4122
aVburglary
p4123
aVca
p4124
aVnt
p4125
aVthings
p4126
aVforce
p4127
aVmr
p4128
aVholmes
p4129
aVsaid
p4130
aVwonder
p4131
aVget
p4132
aVresults
p4133
aVbeyond
p4134
aVus
p4135
aVdays
p4136
aVll
p4137
aVgo
p4138
aVfar
p4139
aVll
p4140
aVfind
p4141
aVfriend
p4142
aVtrouble
p4143
aVengland
p4144
aVhome
p4145
aVbeauty
p4146
aVeh
p4147
aVwatson
p4148
aVmartyrs
p4149
aValtar
p4150
aVcountry
p4151
aVthink
p4152
aVmycroft
p4153
aVexcellent
p4154
aVsherlock
p4155
aVadmirable
p4156
aVuse
p4157
aVmake
p4158
aVholmes
p4159
aVpicked
p4160
aVdaily
p4161
aVtelegraph
p4162
aVlay
p4163
aVupon
p4164
aVtable
p4165
aVseen
p4166
aVpierrot
p4167
aVadvertisement
p4168
aVtoday
p4169
aVanother
p4170
aVone
p4171
aVyes
p4172
aVtonight
p4173
aVhour
p4174
aVplace
p4175
aVtwo
p4176
aVtaps
p4177
aVvitally
p4178
aVimportant
p4179
aVsafety
p4180
aVstake
p4181
aVpierrot
p4182
aVgeorge
p4183
aVcried
p4184
aVlestrade
p4185
aVanswers
p4186
aVve
p4187
aVgot
p4188
aVidea
p4189
aVput
p4190
aVthink
p4191
aVcould
p4192
aVmake
p4193
aVconvenient
p4194
aVcome
p4195
aVus
p4196
aVeight
p4197
aVoclock
p4198
aVcaulfield
p4199
aVgardens
p4200
aVmight
p4201
aVpossibly
p4202
aVget
p4203
aVlittle
p4204
aVnearer
p4205
aVsolution
p4206
aVone
p4207
aVremarkable
p4208
aVcharacteristics
p4209
aVsherlock
p4210
aVholmes
p4211
aVpower
p4212
aVthrowing
p4213
aVbrain
p4214
aVaction
p4215
aVswitching
p4216
aVthoughts
p4217
aVlighter
p4218
aVthings
p4219
aVwhenever
p4220
aVconvinced
p4221
aVcould
p4222
aVlonger
p4223
aVwork
p4224
aVadvantage
p4225
aVremember
p4226
aVwhole
p4227
aVmemorable
p4228
aVday
p4229
aVlost
p4230
aVmonograph
p4231
aVundertaken
p4232
aVupon
p4233
aVpolyphonic
p4234
aVmotets
p4235
aVlassus
p4236
aVpart
p4237
aVnone
p4238
aVpower
p4239
aVdetachment
p4240
aVday
p4241
aVconsequence
p4242
aVappeared
p4243
aVinterminable
p4244
aVgreat
p4245
aVnational
p4246
aVimportance
p4247
aVissue
p4248
aVsuspense
p4249
aVhigh
p4250
aVquarters
p4251
aVdirect
p4252
aVnature
p4253
aVexperiment
p4254
aVtrying
p4255
aVcombined
p4256
aVwork
p4257
aVupon
p4258
aVnerve
p4259
aVrelief
p4260
aVlast
p4261
aVlight
p4262
aVdinner
p4263
aVset
p4264
aVupon
p4265
aVexpedition
p4266
aVlestrade
p4267
aVmycroft
p4268
aVmet
p4269
aVus
p4270
aVappointment
p4271
aVoutside
p4272
aVgloucester
p4273
aVroad
p4274
aVstation
p4275
aVarea
p4276
aVdoor
p4277
aVoberstein
p4278
aVhouse
p4279
aVleft
p4280
aVopen
p4281
aVnight
p4282
aVnecessary
p4283
aVmycroft
p4284
aVholmes
p4285
aVabsolutely
p4286
aVindignantly
p4287
aVdeclined
p4288
aVclimb
p4289
aVrailings
p4290
aVpass
p4291
aVopen
p4292
aVhall
p4293
aVdoor
p4294
aVnine
p4295
aVoclock
p4296
aVseated
p4297
aVstudy
p4298
aVwaiting
p4299
aVpatiently
p4300
aVman
p4301
aVhour
p4302
aVpassed
p4303
aVyet
p4304
aVanother
p4305
aVeleven
p4306
aVstruck
p4307
aVmeasured
p4308
aVbeat
p4309
aVgreat
p4310
aVchurch
p4311
aVclock
p4312
aVseemed
p4313
aVsound
p4314
aVdirge
p4315
aVhopes
p4316
aVlestrade
p4317
aVmycroft
p4318
aVfidgeting
p4319
aVseats
p4320
aVlooking
p4321
aVtwice
p4322
aVminute
p4323
aVwatches
p4324
aVholmes
p4325
aVsat
p4326
aVsilent
p4327
aVcomposed
p4328
aVeyelids
p4329
aVhalf
p4330
aVshut
p4331
aVevery
p4332
aVsense
p4333
aValert
p4334
aVraised
p4335
aVhead
p4336
aVsudden
p4337
aVjerk
p4338
aVcoming
p4339
aVsaid
p4340
aVfurtive
p4341
aVstep
p4342
aVpast
p4343
aVdoor
p4344
aVreturned
p4345
aVheard
p4346
aVshuffling
p4347
aVsound
p4348
aVoutside
p4349
aVtwo
p4350
aVsharp
p4351
aVtaps
p4352
aVknocker
p4353
aVholmes
p4354
aVrose
p4355
aVmotioning
p4356
aVus
p4357
aVremain
p4358
aVseated
p4359
aVgas
p4360
aVhall
p4361
aVmere
p4362
aVpoint
p4363
aVlight
p4364
aVopened
p4365
aVouter
p4366
aVdoor
p4367
aVdark
p4368
aVfigure
p4369
aVslipped
p4370
aVpast
p4371
aVclosed
p4372
aVfastened
p4373
aVway
p4374
aVheard
p4375
aVsay
p4376
aVmoment
p4377
aVlater
p4378
aVman
p4379
aVstood
p4380
aVus
p4381
aVholmes
p4382
aVfollowed
p4383
aVclosely
p4384
aVman
p4385
aVturned
p4386
aVcry
p4387
aVsurprise
p4388
aValarm
p4389
aVcaught
p4390
aVcollar
p4391
aVthrew
p4392
aVback
p4393
aVroom
p4394
aVprisoner
p4395
aVrecovered
p4396
aVbalance
p4397
aVdoor
p4398
aVshut
p4399
aVholmes
p4400
aVstanding
p4401
aVback
p4402
aVman
p4403
aVglared
p4404
aVround
p4405
aVstaggered
p4406
aVfell
p4407
aVsenseless
p4408
aVupon
p4409
aVfloor
p4410
aVshock
p4411
aVbroadbrimmed
p4412
aVhat
p4413
aVflew
p4414
aVhead
p4415
aVcravat
p4416
aVslipped
p4417
aVlips
p4418
aVlong
p4419
aVlight
p4420
aVbeard
p4421
aVsoft
p4422
aVhandsome
p4423
aVdelicate
p4424
aVfeatures
p4425
aVcolonel
p4426
aVvalentine
p4427
aVwalter
p4428
aVholmes
p4429
aVgave
p4430
aVwhistle
p4431
aVsurprise
p4432
aVwrite
p4433
aVass
p4434
aVtime
p4435
aVwatson
p4436
aVsaid
p4437
aVbird
p4438
aVlooking
p4439
aVasked
p4440
aVmycroft
p4441
aVeagerly
p4442
aVyounger
p4443
aVbrother
p4444
aVlate
p4445
aVsir
p4446
aVjames
p4447
aVwalter
p4448
aVhead
p4449
aVsubmarine
p4450
aVdepartment
p4451
aVyes
p4452
aVyes
p4453
aVsee
p4454
aVfall
p4455
aVcards
p4456
aVcoming
p4457
aVthink
p4458
aVbest
p4459
aVleave
p4460
aVexamination
p4461
aVcarried
p4462
aVprostrate
p4463
aVbody
p4464
aVsofa
p4465
aVprisoner
p4466
aVsat
p4467
aVlooked
p4468
aVround
p4469
aVhorrorstricken
p4470
aVface
p4471
aVpassed
p4472
aVhand
p4473
aVforehead
p4474
aVlike
p4475
aVone
p4476
aVbelieve
p4477
aVsenses
p4478
aVasked
p4479
aVcame
p4480
aVvisit
p4481
aVmr
p4482
aVoberstein
p4483
aVeverything
p4484
aVknown
p4485
aVcolonel
p4486
aVwalter
p4487
aVsaid
p4488
aVholmes
p4489
aVenglish
p4490
aVgentleman
p4491
aVcould
p4492
aVbehave
p4493
aVmanner
p4494
aVbeyond
p4495
aVcomprehension
p4496
aVwhole
p4497
aVcorrespondence
p4498
aVrelations
p4499
aVoberstein
p4500
aVwithin
p4501
aVknowledge
p4502
aValso
p4503
aVcircumstances
p4504
aVconnected
p4505
aVdeath
p4506
aVyoung
p4507
aVcadogan
p4508
aVwest
p4509
aVlet
p4510
aVadvise
p4511
aVgain
p4512
aVleast
p4513
aVsmall
p4514
aVcredit
p4515
aVrepentance
p4516
aVconfession
p4517
aVsince
p4518
aVstill
p4519
aVdetails
p4520
aVlearn
p4521
aVlips
p4522
aVman
p4523
aVgroaned
p4524
aVsank
p4525
aVface
p4526
aVhands
p4527
aVwaited
p4528
aVsilent
p4529
aVassure
p4530
aVsaid
p4531
aVholmes
p4532
aVevery
p4533
aVessential
p4534
aValready
p4535
aVknown
p4536
aVknow
p4537
aVpressed
p4538
aVmoney
p4539
aVtook
p4540
aVimpress
p4541
aVkeys
p4542
aVbrother
p4543
aVheld
p4544
aVentered
p4545
aVcorrespondence
p4546
aVoberstein
p4547
aVanswered
p4548
aVletters
p4549
aVadvertisement
p4550
aVcolumns
p4551
aVdaily
p4552
aVtelegraph
p4553
aVaware
p4554
aVwent
p4555
aVoffice
p4556
aVfog
p4557
aVmonday
p4558
aVnight
p4559
aVseen
p4560
aVfollowed
p4561
aVyoung
p4562
aVcadogan
p4563
aVwest
p4564
aVprobably
p4565
aVprevious
p4566
aVreason
p4567
aVsuspect
p4568
aVsaw
p4569
aVtheft
p4570
aVcould
p4571
aVgive
p4572
aValarm
p4573
aVpossible
p4574
aVtaking
p4575
aVpapers
p4576
aVbrother
p4577
aVlondon
p4578
aVleaving
p4579
aVprivate
p4580
aVconcerns
p4581
aVlike
p4582
aVgood
p4583
aVcitizen
p4584
aVfollowed
p4585
aVclosely
p4586
aVfog
p4587
aVkept
p4588
aVheels
p4589
aVreached
p4590
aVhouse
p4591
aVintervened
p4592
aVcolonel
p4593
aVwalter
p4594
aVtreason
p4595
aVadded
p4596
aVterrible
p4597
aVcrime
p4598
aVmurder
p4599
aVgod
p4600
aVswear
p4601
aVcried
p4602
aVwretched
p4603
aVprisoner
p4604
aVtell
p4605
aVus
p4606
aVcadogan
p4607
aVwest
p4608
aVmet
p4609
aVend
p4610
aVlaid
p4611
aVupon
p4612
aVroof
p4613
aVrailway
p4614
aVcarriage
p4615
aVswear
p4616
aVrest
p4617
aVconfess
p4618
aVsay
p4619
aVstock
p4620
aVexchange
p4621
aVdebt
p4622
aVpaid
p4623
aVneeded
p4624
aVmoney
p4625
aVbadly
p4626
aVoberstein
p4627
aVoffered
p4628
aVfive
p4629
aVthousand
p4630
aVsave
p4631
aVruin
p4632
aVmurder
p4633
aVinnocent
p4634
aVhappened
p4635
aVsuspicions
p4636
aVfollowed
p4637
aVdescribe
p4638
aVnever
p4639
aVknew
p4640
aVdoor
p4641
aVthick
p4642
aVfog
p4643
aVone
p4644
aVcould
p4645
aVsee
p4646
aVthree
p4647
aVyards
p4648
aVgiven
p4649
aVtwo
p4650
aVtaps
p4651
aVoberstein
p4652
aVcome
p4653
aVdoor
p4654
aVyoung
p4655
aVman
p4656
aVrushed
p4657
aVdemanded
p4658
aVknow
p4659
aVpapers
p4660
aVoberstein
p4661
aVshort
p4662
aVlifepreserver
p4663
aValways
p4664
aVcarried
p4665
aVwest
p4666
aVforced
p4667
aVway
p4668
aVus
p4669
aVhouse
p4670
aVoberstein
p4671
aVstruck
p4672
aVhead
p4673
aVblow
p4674
aVfatal
p4675
aVone
p4676
aVdead
p4677
aVwithin
p4678
aVfive
p4679
aVminutes
p4680
aVlay
p4681
aVhall
p4682
aVwit
p4683
aVend
p4684
aVoberstein
p4685
aVidea
p4686
aVtrains
p4687
aVhalted
p4688
aVback
p4689
aVwindow
p4690
aVfirst
p4691
aVexamined
p4692
aVpapers
p4693
aVbrought
p4694
aVsaid
p4695
aVthree
p4696
aVessential
p4697
aVmust
p4698
aVkeep
p4699
aVkeep
p4700
aVsaid
p4701
aVdreadful
p4702
aVrow
p4703
aVwoolwich
p4704
aVreturned
p4705
aVmust
p4706
aVkeep
p4707
aVsaid
p4708
aVtechnical
p4709
aVimpossible
p4710
aVtime
p4711
aVmake
p4712
aVcopies
p4713
aVmust
p4714
aVgo
p4715
aVback
p4716
aVtogether
p4717
aVtonight
p4718
aVsaid
p4719
aVthought
p4720
aVlittle
p4721
aVcried
p4722
aVthree
p4723
aVkeep
p4724
aVsaid
p4725
aVothers
p4726
aVstuff
p4727
aVpocket
p4728
aVyoung
p4729
aVman
p4730
aVfound
p4731
aVwhole
p4732
aVbusiness
p4733
aVassuredly
p4734
aVput
p4735
aVaccount
p4736
aVcould
p4737
aVsee
p4738
aVway
p4739
aVsuggested
p4740
aVwaited
p4741
aVhalf
p4742
aVhour
p4743
aVwindow
p4744
aVtrain
p4745
aVstopped
p4746
aVthick
p4747
aVnothing
p4748
aVcould
p4749
aVseen
p4750
aVdifficulty
p4751
aVlowering
p4752
aVwest
p4753
aVbody
p4754
aVtrain
p4755
aVend
p4756
aVmatter
p4757
aVfar
p4758
aVconcerned
p4759
aVbrother
p4760
aVsaid
p4761
aVnothing
p4762
aVcaught
p4763
aVkeys
p4764
aVthink
p4765
aVsuspected
p4766
aVread
p4767
aVeyes
p4768
aVsuspected
p4769
aVknow
p4770
aVnever
p4771
aVheld
p4772
aVhead
p4773
aVsilence
p4774
aVroom
p4775
aVbroken
p4776
aVmycroft
p4777
aVholmes
p4778
aVmake
p4779
aVreparation
p4780
aVwould
p4781
aVease
p4782
aVconscience
p4783
aVpossibly
p4784
aVpunishment
p4785
aVreparation
p4786
aVmake
p4787
aVoberstein
p4788
aVpapers
p4789
aVknow
p4790
aVgive
p4791
aVaddress
p4792
aVsaid
p4793
aVletters
p4794
aVhotel
p4795
aVdu
p4796
aVlouvre
p4797
aVparis
p4798
aVwould
p4799
aVeventually
p4800
aVreach
p4801
aVreparation
p4802
aVstill
p4803
aVwithin
p4804
aVpower
p4805
aVsaid
p4806
aVsherlock
p4807
aVholmes
p4808
aVanything
p4809
aVowe
p4810
aVfellow
p4811
aVparticular
p4812
aVgoodwill
p4813
aVruin
p4814
aVdownfall
p4815
aVpaper
p4816
aVpen
p4817
aVsit
p4818
aVdesk
p4819
aVwrite
p4820
aVdictation
p4821
aVdirect
p4822
aVenvelope
p4823
aVaddress
p4824
aVgiven
p4825
aVright
p4826
aVletter
p4827
aVdear
p4828
aVsir
p4829
aVregard
p4830
aVtransaction
p4831
aVdoubt
p4832
aVobserved
p4833
aVone
p4834
aVessential
p4835
aVdetail
p4836
aVmissing
p4837
aVtracing
p4838
aVmake
p4839
aVcomplete
p4840
aVinvolved
p4841
aVextra
p4842
aVtrouble
p4843
aVhowever
p4844
aVmust
p4845
aVask
p4846
aVadvance
p4847
aVfive
p4848
aVhundred
p4849
aVpounds
p4850
aVtrust
p4851
aVpost
p4852
aVtake
p4853
aVanything
p4854
aVgold
p4855
aVnotes
p4856
aVwould
p4857
aVcome
p4858
aVabroad
p4859
aVwould
p4860
aVexcite
p4861
aVremark
p4862
aVleft
p4863
aVcountry
p4864
aVpresent
p4865
aVtherefore
p4866
aVshall
p4867
aVexpect
p4868
aVmeet
p4869
aVsmokingroom
p4870
aVcharing
p4871
aVcross
p4872
aVhotel
p4873
aVnoon
p4874
aVsaturday
p4875
aVremember
p4876
aVenglish
p4877
aVnotes
p4878
aVgold
p4879
aVtaken
p4880
aVwell
p4881
aVshall
p4882
aVmuch
p4883
aVsurprised
p4884
aVfetch
p4885
aVman
p4886
aVmatter
p4887
aVhistory
p4888
aVsecret
p4889
aVhistory
p4890
aVnation
p4891
aVoften
p4892
aVmuch
p4893
aVintimate
p4894
aVinteresting
p4895
aVpublic
p4896
aVchronicles
p4897
aVoberstein
p4898
aVeager
p4899
aVcomplete
p4900
aVcoup
p4901
aVlifetime
p4902
aVcame
p4903
aVlure
p4904
aVsafely
p4905
aVengulfed
p4906
aVfifteen
p4907
aVyears
p4908
aVbritish
p4909
aVprison
p4910
aVtrunk
p4911
aVfound
p4912
aVinvaluable
p4913
aVbrucepartington
p4914
aVplans
p4915
aVput
p4916
aVauction
p4917
aVnaval
p4918
aVcentres
p4919
aVeurope
p4920
aVcolonel
p4921
aVwalter
p4922
aVdied
p4923
aVprison
p4924
aVtowards
p4925
aVend
p4926
aVsecond
p4927
aVyear
p4928
aVsentence
p4929
aVholmes
p4930
aVreturned
p4931
aVrefreshed
p4932
aVmonograph
p4933
aVupon
p4934
aVpolyphonic
p4935
aVmotets
p4936
aVlassus
p4937
aVsince
p4938
aVprinted
p4939
aVprivate
p4940
aVcirculation
p4941
aVsaid
p4942
aVexperts
p4943
aVlast
p4944
aVword
p4945
aVupon
p4946
aVsubject
p4947
aVweeks
p4948
aVafterwards
p4949
aVlearned
p4950
aVincidentally
p4951
aVfriend
p4952
aVspent
p4953
aVday
p4954
aVwindsor
p4955
aVwhence
p4956
aVreturned
p4957
aVremarkably
p4958
aVfine
p4959
aVemerald
p4960
aVtiepin
p4961
aVasked
p4962
aVbought
p4963
aVanswered
p4964
aVpresent
p4965
aVcertain
p4966
aVgracious
p4967
aVlady
p4968
aVwhose
p4969
aVinterests
p4970
aVfortunate
p4971
aVenough
p4972
aVcarry
p4973
aVsmall
p4974
aVcommission
p4975
aVsaid
p4976
aVfancy
p4977
aVcould
p4978
aVguess
p4979
aVlady
p4980
aVaugust
p4981
aVname
p4982
aVlittle
p4983
aVdoubt
p4984
aVemerald
p4985
aVpin
p4986
aVforever
p4987
aVrecall
p4988
aVfriend
p4989
aVmemory
p4990
aVadventure
p4991
aVbrucepartington
p4992
aVplans
p4993
a.