(lp1
Vlast
p2
aVbow
p3
aVepilogue
p4
aVsherlock
p5
aVholmes
p6
aVsir
p7
aVarthur
p8
aVconan
p9
aVdoyle
p10
aVpart
p11
aVcollection
p12
aVstories
p13
aVsir
p14
aVarthur
p15
aVconan
p16
aVdoyle
p17
aVpublished
p18
aVbook
p19
aVentitled
p20
aVlast
p21
aVbow
p22
aVnine
p23
aVoclock
p24
aVnight
p25
aVupon
p26
aVsecond
p27
aVaugust
p28
aVterrible
p29
aVaugust
p30
aVhistory
p31
aVworld
p32
aVone
p33
aVmight
p34
aVthought
p35
aValready
p36
aVgod
p37
aVcurse
p38
aVhung
p39
aVheavy
p40
aVdegenerate
p41
aVworld
p42
aVawesome
p43
aVhush
p44
aVfeeling
p45
aVvague
p46
aVexpectancy
p47
aVsultry
p48
aVstagnant
p49
aVair
p50
aVsun
p51
aVlong
p52
aVset
p53
aVone
p54
aVbloodred
p55
aVgash
p56
aVlike
p57
aVopen
p58
aVwound
p59
aVlay
p60
aVlow
p61
aVdistant
p62
aVwest
p63
aVstars
p64
aVshining
p65
aVbrightly
p66
aVlights
p67
aVshipping
p68
aVglimmered
p69
aVbay
p70
aVtwo
p71
aVfamous
p72
aVgermans
p73
aVstood
p74
aVbeside
p75
aVstone
p76
aVparapet
p77
aVgarden
p78
aVwalk
p79
aVlong
p80
aVlow
p81
aVheavily
p82
aVgabled
p83
aVhouse
p84
aVbehind
p85
aVlooked
p86
aVupon
p87
aVbroad
p88
aVsweep
p89
aVbeach
p90
aVfoot
p91
aVgreat
p92
aVchalk
p93
aVcliff
p94
aVvon
p95
aVbork
p96
aVlike
p97
aVwandering
p98
aVeagle
p99
aVperched
p100
aVfour
p101
aVyears
p102
aVstood
p103
aVheads
p104
aVclose
p105
aVtogether
p106
aVtalking
p107
aVlow
p108
aVconfidential
p109
aVtones
p110
aVtwo
p111
aVglowing
p112
aVends
p113
aVcigars
p114
aVmight
p115
aVsmouldering
p116
aVeyes
p117
aVmalignant
p118
aVfiend
p119
aVlooking
p120
aVdarkness
p121
aVremarkable
p122
aVman
p123
aVvon
p124
aVbork
p125
aVman
p126
aVcould
p127
aVhardly
p128
aVmatched
p129
aVamong
p130
aVdevoted
p131
aVagents
p132
aVkaiser
p133
aVtalents
p134
aVfirst
p135
aVrecommended
p136
aVenglish
p137
aVmission
p138
aVimportant
p139
aVmission
p140
aVsince
p141
aVtaken
p142
aVtalents
p143
aVbecome
p144
aVmanifest
p145
aVhalfdozen
p146
aVpeople
p147
aVworld
p148
aVreally
p149
aVtouch
p150
aVtruth
p151
aVone
p152
aVpresent
p153
aVcompanion
p154
aVbaron
p155
aVvon
p156
aVherling
p157
aVchief
p158
aVsecretary
p159
aVlegation
p160
aVwhose
p161
aVhuge
p162
aVhorsepower
p163
aVbenz
p164
aVcar
p165
aVblocking
p166
aVcountry
p167
aVlane
p168
aVwaited
p169
aVwaft
p170
aVowner
p171
aVback
p172
aVlondon
p173
aVfar
p174
aVjudge
p175
aVtrend
p176
aVevents
p177
aVprobably
p178
aVback
p179
aVberlin
p180
aVwithin
p181
aVweek
p182
aVsecretary
p183
aVsaying
p184
aVget
p185
aVdear
p186
aVvon
p187
aVbork
p188
aVthink
p189
aVsurprised
p190
aVwelcome
p191
aVreceive
p192
aVhappen
p193
aVknow
p194
aVthought
p195
aVhighest
p196
aVquarters
p197
aVwork
p198
aVcountry
p199
aVhuge
p200
aVman
p201
aVsecretary
p202
aVdeep
p203
aVbroad
p204
aVtall
p205
aVslow
p206
aVheavy
p207
aVfashion
p208
aVspeech
p209
aVmain
p210
aVasset
p211
aVpolitical
p212
aVcareer
p213
aVvon
p214
aVbork
p215
aVlaughed
p216
aVhard
p217
aVdeceive
p218
aVremarked
p219
aVdocile
p220
aVsimple
p221
aVfolk
p222
aVcould
p223
aVimagined
p224
aVnt
p225
aVknow
p226
aVsaid
p227
aVthoughtfully
p228
aVstrange
p229
aVlimits
p230
aVone
p231
aVmust
p232
aVlearn
p233
aVobserve
p234
aVsurface
p235
aVsimplicity
p236
aVmakes
p237
aVtrap
p238
aVstranger
p239
aVone
p240
aVfirst
p241
aVimpression
p242
aVentirely
p243
aVsoft
p244
aVone
p245
aVcomes
p246
aVsuddenly
p247
aVupon
p248
aVsomething
p249
aVhard
p250
aVknow
p251
aVreached
p252
aVlimit
p253
aVmust
p254
aVadapt
p255
aVfact
p256
aVexample
p257
aVinsular
p258
aVconventions
p259
aVsimply
p260
aVmust
p261
aVobserved
p262
aVmeaning
p263
aVgood
p264
aVform
p265
aVsort
p266
aVthing
p267
aVvon
p268
aVbork
p269
aVsighed
p270
aVone
p271
aVsuffered
p272
aVmuch
p273
aVmeaning
p274
aVbritish
p275
aVprejudice
p276
aVqueer
p277
aVmanifestations
p278
aVexample
p279
aVmay
p280
aVquote
p281
aVone
p282
aVworst
p283
aVblunders
p284
aVafford
p285
aVtalk
p286
aVblunders
p287
aVknow
p288
aVwork
p289
aVwell
p290
aVenough
p291
aVaware
p292
aVsuccesses
p293
aVfirst
p294
aVarrival
p295
aVinvited
p296
aVweekend
p297
aVgathering
p298
aVcountry
p299
aVhouse
p300
aVcabinet
p301
aVminister
p302
aVconversation
p303
aVamazingly
p304
aVindiscreet
p305
aVvon
p306
aVbork
p307
aVnodded
p308
aVve
p309
aVsaid
p310
aVdryly
p311
aVexactly
p312
aVwell
p313
aVnaturally
p314
aVsent
p315
aVresume
p316
aVinformation
p317
aVberlin
p318
aVunfortunately
p319
aVgood
p320
aVchancellor
p321
aVlittle
p322
aVheavyhanded
p323
aVmatters
p324
aVtransmitted
p325
aVremark
p326
aVshowed
p327
aVaware
p328
aVsaid
p329
aVcourse
p330
aVtook
p331
aVtrail
p332
aVstraight
p333
aVve
p334
aVidea
p335
aVharm
p336
aVnothing
p337
aVsoft
p338
aVbritish
p339
aVhosts
p340
aVoccasion
p341
aVassure
p342
aVtwo
p343
aVyears
p344
aVliving
p345
aVsporting
p346
aVpose
p347
aVnt
p348
aVcall
p349
aVpose
p350
aVpose
p351
aVartificial
p352
aVthing
p353
aVquite
p354
aVnatural
p355
aVborn
p356
aVsportsman
p357
aVenjoy
p358
aVwell
p359
aVmakes
p360
aVeffective
p361
aVyacht
p362
aVhunt
p363
aVplay
p364
aVpolo
p365
aVmatch
p366
aVevery
p367
aVgame
p368
aVfourinhand
p369
aVtakes
p370
aVprize
p371
aVolympia
p372
aVeven
p373
aVheard
p374
aVgo
p375
aVlength
p376
aVboxing
p377
aVyoung
p378
aVofficers
p379
aVresult
p380
aVnobody
p381
aVtakes
p382
aVseriously
p383
aVgood
p384
aVold
p385
aVsport
p386
aVquite
p387
aVdecent
p388
aVfellow
p389
aVgerman
p390
aVharddrinking
p391
aVnightclub
p392
aVknockabouttown
p393
aVdevilmaycare
p394
aVyoung
p395
aVfellow
p396
aVtime
p397
aVquiet
p398
aVcountry
p399
aVhouse
p400
aVcentre
p401
aVhalf
p402
aVmischief
p403
aVengland
p404
aVsporting
p405
aVsquire
p406
aVastute
p407
aVsecretservice
p408
aVman
p409
aVeurope
p410
aVgenius
p411
aVdear
p412
aVvon
p413
aVbork
p414
aVgenius
p415
aVflatter
p416
aVbaron
p417
aVcertainly
p418
aVmay
p419
aVclaim
p420
aVfour
p421
aVyears
p422
aVcountry
p423
aVunproductive
p424
aVve
p425
aVnever
p426
aVshown
p427
aVlittle
p428
aVstore
p429
aVwould
p430
aVmind
p431
aVstepping
p432
aVmoment
p433
aVdoor
p434
aVstudy
p435
aVopened
p436
aVstraight
p437
aVterrace
p438
aVvon
p439
aVbork
p440
aVpushed
p441
aVback
p442
aVleading
p443
aVway
p444
aVclicked
p445
aVswitch
p446
aVelectric
p447
aVlight
p448
aVclosed
p449
aVdoor
p450
aVbehind
p451
aVbulky
p452
aVform
p453
aVfollowed
p454
aVcarefully
p455
aVadjusted
p456
aVheavy
p457
aVcurtain
p458
aVlatticed
p459
aVwindow
p460
aVprecautions
p461
aVtaken
p462
aVtested
p463
aVturn
p464
aVsunburned
p465
aVaquiline
p466
aVface
p467
aVguest
p468
aVpapers
p469
aVgone
p470
aVsaid
p471
aVwife
p472
aVhousehold
p473
aVleft
p474
aVyesterday
p475
aVflushing
p476
aVtook
p477
aVless
p478
aVimportant
p479
aVmust
p480
aVcourse
p481
aVclaim
p482
aVprotection
p483
aVembassy
p484
aVothers
p485
aVname
p486
aValready
p487
aVfiled
p488
aVone
p489
aVpersonal
p490
aVsuite
p491
aVdifficulties
p492
aVbaggage
p493
aVcourse
p494
aVpossible
p495
aVmay
p496
aVgo
p497
aVengland
p498
aVmay
p499
aVleave
p500
aVfrance
p501
aVfate
p502
aVsure
p503
aVbinding
p504
aVtreaty
p505
aVbelgium
p506
aVyes
p507
aVbelgium
p508
aVvon
p509
aVbork
p510
aVshook
p511
aVhead
p512
aVnt
p513
aVsee
p514
aVcould
p515
aVdefinite
p516
aVtreaty
p517
aVcould
p518
aVnever
p519
aVrecover
p520
aVhumiliation
p521
aVwould
p522
aVleast
p523
aVpeace
p524
aVmoment
p525
aVhonor
p526
aVtut
p527
aVdear
p528
aVsir
p529
aVlive
p530
aVutilitarian
p531
aVage
p532
aVhonour
p533
aVmediaeval
p534
aVconception
p535
aVbesides
p536
aVengland
p537
aVready
p538
aVinconceivable
p539
aVthing
p540
aVeven
p541
aVspecial
p542
aVwar
p543
aVtax
p544
aVfifty
p545
aVmillion
p546
aVone
p547
aVwould
p548
aVthink
p549
aVmade
p550
aVpurpose
p551
aVclear
p552
aVadvertised
p553
aVfront
p554
aVpage
p555
aVtimes
p556
aVroused
p557
aVpeople
p558
aVslumbers
p559
aVone
p560
aVhears
p561
aVquestion
p562
aVbusiness
p563
aVfind
p564
aVanswer
p565
aValso
p566
aVirritation
p567
aVbusiness
p568
aVsoothe
p569
aVassure
p570
aVfar
p571
aVessentials
p572
aVgo
p573
aVstorage
p574
aVmunitions
p575
aVpreparation
p576
aVsubmarine
p577
aVattack
p578
aVarrangements
p579
aVmaking
p580
aVhigh
p581
aVexplosives
p582
aVnothing
p583
aVprepared
p584
aVengland
p585
aVcome
p586
aVespecially
p587
aVstirred
p588
aVdevil
p589
aVbrew
p590
aVirish
p591
aVcivil
p592
aVwar
p593
aVwindowbreaking
p594
aVfuries
p595
aVgod
p596
aVknows
p597
aVkeep
p598
aVthoughts
p599
aVhome
p600
aVmust
p601
aVthink
p602
aVfuture
p603
aVah
p604
aVanother
p605
aVmatter
p606
aVfancy
p607
aVfuture
p608
aVdefinite
p609
aVplans
p610
aVengland
p611
aVinformation
p612
aVvital
p613
aVus
p614
aVtoday
p615
aVtomorrow
p616
aVmr
p617
aVjohn
p618
aVbull
p619
aVprefers
p620
aVtoday
p621
aVperfectly
p622
aVready
p623
aVtomorrow
p624
aVshall
p625
aVready
p626
aVstill
p627
aVthink
p628
aVwould
p629
aVwiser
p630
aVfight
p631
aVallies
p632
aVwithout
p633
aVaffair
p634
aVweek
p635
aVweek
p636
aVdestiny
p637
aVspeaking
p638
aVpapers
p639
aVsat
p640
aVarmchair
p641
aVlight
p642
aVshining
p643
aVupon
p644
aVbroad
p645
aVbald
p646
aVhead
p647
aVpuffed
p648
aVsedately
p649
aVcigar
p650
aVlarge
p651
aVoakpanelled
p652
aVbooklined
p653
aVroom
p654
aVcurtain
p655
aVhung
p656
aVcorner
p657
aVdrawn
p658
aVdisclosed
p659
aVlarge
p660
aVbrassbound
p661
aVsafe
p662
aVvon
p663
aVbork
p664
aVdetached
p665
aVsmall
p666
aVkey
p667
aVwatch
p668
aVchain
p669
aVconsiderable
p670
aVmanipulation
p671
aVlock
p672
aVswung
p673
aVopen
p674
aVheavy
p675
aVdoor
p676
aVlook
p677
aVsaid
p678
aVstanding
p679
aVclear
p680
aVwave
p681
aVhand
p682
aVlight
p683
aVshone
p684
aVvividly
p685
aVopened
p686
aVsafe
p687
aVsecretary
p688
aVembassy
p689
aVgazed
p690
aVabsorbed
p691
aVinterest
p692
aVrows
p693
aVstuffed
p694
aVpigeonholes
p695
aVfurnished
p696
aVpigeonhole
p697
aVlabel
p698
aVeyes
p699
aVglanced
p700
aValong
p701
aVread
p702
aVlong
p703
aVseries
p704
aVtitles
p705
aVfords
p706
aVharbourdefences
p707
aVaeroplanes
p708
aVireland
p709
aVegypt
p710
aVportsmouth
p711
aVforts
p712
aVchannel
p713
aVrosythe
p714
aVscore
p715
aVothers
p716
aVcompartment
p717
aVbristling
p718
aVpapers
p719
aVplans
p720
aVcolossal
p721
aVsaid
p722
aVsecretary
p723
aVputting
p724
aVcigar
p725
aVsoftly
p726
aVclapped
p727
aVfat
p728
aVhands
p729
aVfour
p730
aVyears
p731
aVbaron
p732
aVbad
p733
aVshow
p734
aVharddrinking
p735
aVhardriding
p736
aVcountry
p737
aVsquire
p738
aVgem
p739
aVcollection
p740
aVcoming
p741
aVsetting
p742
aVready
p743
aVpointed
p744
aVspace
p745
aVnaval
p746
aVsignals
p747
aVprinted
p748
aVgood
p749
aVdossier
p750
aValready
p751
aVdate
p752
aVwaste
p753
aVpaper
p754
aVadmiralty
p755
aVway
p756
aVgot
p757
aValarm
p758
aVevery
p759
aVcode
p760
aVchanged
p761
aVblow
p762
aVbaron
p763
aVworst
p764
aVsetback
p765
aVwhole
p766
aVcampaign
p767
aVthanks
p768
aVcheckbook
p769
aVgood
p770
aValtamont
p771
aVwell
p772
aVtonight
p773
aVbaron
p774
aVlooked
p775
aVwatch
p776
aVgave
p777
aVguttural
p778
aVexclamation
p779
aVdisappointment
p780
aVwell
p781
aVreally
p782
aVwait
p783
aVlonger
p784
aVimagine
p785
aVthings
p786
aVmoving
p787
aVpresent
p788
aVcarlton
p789
aVterrace
p790
aVposts
p791
aVhoped
p792
aVable
p793
aVbring
p794
aVnews
p795
aVgreat
p796
aVcoup
p797
aValtamont
p798
aVname
p799
aVhour
p800
aVvon
p801
aVbork
p802
aVpushed
p803
aVtelegram
p804
aVcome
p805
aVwithout
p806
aVfail
p807
aVtonight
p808
aVbring
p809
aVnew
p810
aVsparking
p811
aVplugs
p812
aValtamont
p813
aVsparking
p814
aVplugs
p815
aVeh
p816
aVsee
p817
aVposes
p818
aVmotor
p819
aVexpert
p820
aVkeep
p821
aVfull
p822
aVgarage
p823
aVcode
p824
aVeverything
p825
aVlikely
p826
aVcome
p827
aVnamed
p828
aVspare
p829
aVpart
p830
aVtalks
p831
aVradiator
p832
aVbattleship
p833
aVoil
p834
aVpump
p835
aVcruiser
p836
aVsparking
p837
aVplugs
p838
aVnaval
p839
aVsignals
p840
aVportsmouth
p841
aVmidday
p842
aVsaid
p843
aVsecretary
p844
aVexamining
p845
aVsuperscription
p846
aVway
p847
aVgive
p848
aVfive
p849
aVhundred
p850
aVpounds
p851
aVparticular
p852
aVjob
p853
aVcourse
p854
aVsalary
p855
aVwell
p856
aVgreedy
p857
aVrogue
p858
aVuseful
p859
aVtraitors
p860
aVgrudge
p861
aVblood
p862
aVmoney
p863
aVgrudge
p864
aValtamont
p865
aVnothing
p866
aVwonderful
p867
aVworker
p868
aVpay
p869
aVwell
p870
aVleast
p871
aVdelivers
p872
aVgoods
p873
aVuse
p874
aVphrase
p875
aVbesides
p876
aVtraitor
p877
aVassure
p878
aVpangermanic
p879
aVjunker
p880
aVsucking
p881
aVdove
p882
aVfeelings
p883
aVtowards
p884
aVengland
p885
aVcompared
p886
aVreal
p887
aVbitter
p888
aVirishamerican
p889
aVoh
p890
aVirishamerican
p891
aVheard
p892
aVtalk
p893
aVwould
p894
aVdoubt
p895
aVsometimes
p896
aVassure
p897
aVhardly
p898
aVunderstand
p899
aVseems
p900
aVdeclared
p901
aVwar
p902
aVking
p903
aVenglish
p904
aVwell
p905
aVenglish
p906
aVking
p907
aVmust
p908
aVreally
p909
aVgo
p910
aVmay
p911
aVmoment
p912
aVm
aVsorry
p913
aValready
p914
aVoverstayed
p915
aVtime
p916
aVshall
p917
aVexpect
p918
aVearly
p919
aVtomorrow
p920
aVget
p921
aVsignal
p922
aVbook
p923
aVlittle
p924
aVdoor
p925
aVduke
p926
aVyork
p927
aVsteps
p928
aVput
p929
aVtriumphant
p930
aVfinis
p931
aVrecord
p932
aVengland
p933
aVtokay
p934
aVindicated
p935
aVheavily
p936
aVsealed
p937
aVdustcovered
p938
aVbottle
p939
aVstood
p940
aVtwo
p941
aVhigh
p942
aVglasses
p943
aVupon
p944
aVsalver
p945
aVmay
p946
aVoffer
p947
aVglass
p948
aVjourney
p949
aVthanks
p950
aVlooks
p951
aVlike
p952
aVrevelry
p953
aValtamont
p954
aVnice
p955
aVtaste
p956
aVwines
p957
aVtook
p958
aVfancy
p959
aVtokay
p960
aVtouchy
p961
aVfellow
p962
aVneeds
p963
aVhumouring
p964
aVsmall
p965
aVthings
p966
aVstudy
p967
aVassure
p968
aVstrolled
p969
aVterrace
p970
aValong
p971
aVend
p972
aVtouch
p973
aVbaron
p974
aVchauffeur
p975
aVgreat
p976
aVcar
p977
aVshivered
p978
aVchuckled
p979
aVlights
p980
aVharwich
p981
aVsuppose
p982
aVsaid
p983
aVsecretary
p984
aVpulling
p985
aVdust
p986
aVcoat
p987
aVstill
p988
aVpeaceful
p989
aVseems
p990
aVmay
p991
aVlights
p992
aVwithin
p993
aVweek
p994
aVenglish
p995
aVcoast
p996
aVless
p997
aVtranquil
p998
aVplace
p999
aVheavens
p1000
aVmay
p1001
aVquite
p1002
aVpeaceful
p1003
aVgood
p1004
aVzepplin
p1005
aVpromises
p1006
aVus
p1007
aVcomes
p1008
aVtrue
p1009
aVway
p1010
aVone
p1011
aVwindow
p1012
aVshowed
p1013
aVlight
p1014
aVbehind
p1015
aVstood
p1016
aVlamp
p1017
aVbeside
p1018
aVseated
p1019
aVtable
p1020
aVdear
p1021
aVold
p1022
aVruddyfaced
p1023
aVwoman
p1024
aVcountry
p1025
aVcap
p1026
aVbending
p1027
aVknitting
p1028
aVstopping
p1029
aVoccasionally
p1030
aVstroke
p1031
aVlarge
p1032
aVblack
p1033
aVcat
p1034
aVupon
p1035
aVstool
p1036
aVbeside
p1037
aVmartha
p1038
aVservant
p1039
aVleft
p1040
aVsecretary
p1041
aVchuckled
p1042
aVmight
p1043
aValmost
p1044
aVpersonify
p1045
aVbritannia
p1046
aVsaid
p1047
aVcomplete
p1048
aVselfabsorption
p1049
aVgeneral
p1050
aVair
p1051
aVcomfortable
p1052
aVsomnolence
p1053
aVwell
p1054
aVau
p1055
aVrevoir
p1056
aVvon
p1057
aVbork
p1058
aVfinal
p1059
aVwave
p1060
aVhand
p1061
aVsprang
p1062
aVcar
p1063
aVmoment
p1064
aVlater
p1065
aVtwo
p1066
aVgolden
p1067
aVcones
p1068
aVheadlights
p1069
aVshot
p1070
aVdarkness
p1071
aVsecretary
p1072
aVlay
p1073
aVback
p1074
aVcushions
p1075
aVluxurious
p1076
aVlimousine
p1077
aVthoughts
p1078
aVfull
p1079
aVimpending
p1080
aVeuropean
p1081
aVtragedy
p1082
aVhardly
p1083
aVobserved
p1084
aVcar
p1085
aVswung
p1086
aVround
p1087
aVvillage
p1088
aVstreet
p1089
aVnearly
p1090
aVpassed
p1091
aVlittle
p1092
aVford
p1093
aVcoming
p1094
aVopposite
p1095
aVdirection
p1096
aVvon
p1097
aVbork
p1098
aVwalked
p1099
aVslowly
p1100
aVback
p1101
aVstudy
p1102
aVlast
p1103
aVgleams
p1104
aVmotor
p1105
aVlamps
p1106
aVfaded
p1107
aVdistance
p1108
aVpassed
p1109
aVobserved
p1110
aVold
p1111
aVhousekeeper
p1112
aVput
p1113
aVlamp
p1114
aVretired
p1115
aVnew
p1116
aVexperience
p1117
aVsilence
p1118
aVdarkness
p1119
aVwidespread
p1120
aVhouse
p1121
aVfamily
p1122
aVhousehold
p1123
aVlarge
p1124
aVone
p1125
aVrelief
p1126
aVhowever
p1127
aVthink
p1128
aVsafety
p1129
aVone
p1130
aVold
p1131
aVwoman
p1132
aVlingered
p1133
aVkitchen
p1134
aVwhole
p1135
aVplace
p1136
aVgood
p1137
aVdeal
p1138
aVtidying
p1139
aVinside
p1140
aVstudy
p1141
aVset
p1142
aVkeen
p1143
aVhandsome
p1144
aVface
p1145
aVflushed
p1146
aVheat
p1147
aVburning
p1148
aVpapers
p1149
aVleather
p1150
aVvalise
p1151
aVstood
p1152
aVbeside
p1153
aVtable
p1154
aVbegan
p1155
aVpack
p1156
aVneatly
p1157
aVsystematically
p1158
aVprecious
p1159
aVcontents
p1160
aVsafe
p1161
aVhardly
p1162
aVgot
p1163
aVstarted
p1164
aVwork
p1165
aVhowever
p1166
aVquick
p1167
aVears
p1168
aVcaught
p1169
aVsounds
p1170
aVdistant
p1171
aVcar
p1172
aVinstantly
p1173
aVgave
p1174
aVexclamation
p1175
aVsatisfaction
p1176
aVstrapped
p1177
aVvalise
p1178
aVshut
p1179
aVsafe
p1180
aVlocked
p1181
aVhurried
p1182
aVterrace
p1183
aVtime
p1184
aVsee
p1185
aVlights
p1186
aVsmall
p1187
aVcar
p1188
aVcome
p1189
aVhalt
p1190
aVgate
p1191
aVpassenger
p1192
aVsprang
p1193
aVadvanced
p1194
aVswiftly
p1195
aVtowards
p1196
aVchauffeur
p1197
aVheavily
p1198
aVbuilt
p1199
aVelderly
p1200
aVman
p1201
aVgray
p1202
aVmoustache
p1203
aVsettled
p1204
aVlike
p1205
aVone
p1206
aVresigns
p1207
aVlong
p1208
aVvigil
p1209
aVwell
p1210
aVasked
p1211
aVvon
p1212
aVbork
p1213
aVeagerly
p1214
aVrunning
p1215
aVforward
p1216
aVmeet
p1217
aVvisitor
p1218
aVanswer
p1219
aVman
p1220
aVwaved
p1221
aVsmall
p1222
aVbrownpaper
p1223
aVparcel
p1224
aVtriumphantly
p1225
aVhead
p1226
aVgive
p1227
aVglad
p1228
aVhand
p1229
aVtonight
p1230
aVmister
p1231
aVcried
p1232
aVm
aVbringing
p1233
aVhome
p1234
aVbacon
p1235
aVlast
p1236
aVsignals
p1237
aVsaid
p1238
aVcable
p1239
aVevery
p1240
aVlast
p1241
aVone
p1242
aVsemaphore
p1243
aVlamp
p1244
aVcode
p1245
aVmarconi
p1246
aVcopy
p1247
aVmind
p1248
aVoriginal
p1249
aVdangerous
p1250
aVreal
p1251
aVgoods
p1252
aVlay
p1253
aVslapped
p1254
aVgerman
p1255
aVupon
p1256
aVshoulder
p1257
aVrough
p1258
aVfamiliarity
p1259
aVwinced
p1260
aVcome
p1261
aVsaid
p1262
aVm
aValone
p1263
aVhouse
p1264
aVwaiting
p1265
aVcourse
p1266
aVcopy
p1267
aVbetter
p1268
aVoriginal
p1269
aVoriginal
p1270
aVmissing
p1271
aVwould
p1272
aVchange
p1273
aVwhole
p1274
aVthing
p1275
aVthink
p1276
aVsafe
p1277
aVcopy
p1278
aVirishamerican
p1279
aVentered
p1280
aVstudy
p1281
aVstretched
p1282
aVlong
p1283
aVlimbs
p1284
aVarmchair
p1285
aVtall
p1286
aVgaunt
p1287
aVman
p1288
aVsixty
p1289
aVclearcut
p1290
aVfeatures
p1291
aVsmall
p1292
aVgoatee
p1293
aVbeard
p1294
aVgave
p1295
aVgeneral
p1296
aVresemblance
p1297
aVcaricatures
p1298
aVuncle
p1299
aVsam
p1300
aVhalfsmoked
p1301
aVsodden
p1302
aVcigar
p1303
aVhung
p1304
aVcorner
p1305
aVmouth
p1306
aVsat
p1307
aVstruck
p1308
aVmatch
p1309
aVrelit
p1310
aVmaking
p1311
aVready
p1312
aVmove
p1313
aVremarked
p1314
aVlooked
p1315
aVround
p1316
aVsay
p1317
aVmister
p1318
aVadded
p1319
aVeyes
p1320
aVfell
p1321
aVupon
p1322
aVsafe
p1323
aVcurtain
p1324
aVremoved
p1325
aVnt
p1326
aVtell
p1327
aVkeep
p1328
aVpapers
p1329
aVgosh
p1330
aVwideopen
p1331
aVcontraption
p1332
aVlike
p1333
aVreckon
p1334
aVspy
p1335
aVyankee
p1336
aVcrook
p1337
aVwould
p1338
aVcanopener
p1339
aVd
aVknown
p1340
aVletter
p1341
aVmine
p1342
aVgoin
p1343
aVlie
p1344
aVloose
p1345
aVthing
p1346
aVlike
p1347
aVd
aVmug
p1348
aVwrite
p1349
aVwould
p1350
aVpuzzle
p1351
aVcrook
p1352
aVforce
p1353
aVsafe
p1354
aVvon
p1355
aVbork
p1356
aVanswered
p1357
aVwo
p1358
aVnt
p1359
aVcut
p1360
aVmetal
p1361
aVtool
p1362
aVlock
p1363
aVdouble
p1364
aVcombination
p1365
aVlock
p1366
aVknow
p1367
aVsearch
p1368
aVsaid
p1369
aVamerican
p1370
aVwell
p1371
aVneed
p1372
aVword
p1373
aVwell
p1374
aVset
p1375
aVfigures
p1376
aVget
p1377
aVlock
p1378
aVwork
p1379
aVrose
p1380
aVshowed
p1381
aVdoubleradiating
p1382
aVdisc
p1383
aVround
p1384
aVkeyhole
p1385
aVouter
p1386
aVone
p1387
aVletters
p1388
aVinner
p1389
aVone
p1390
aVfigures
p1391
aVwell
p1392
aVwell
p1393
aVfine
p1394
aVquite
p1395
aVsimple
p1396
aVthought
p1397
aVfour
p1398
aVyears
p1399
aVago
p1400
aVmade
p1401
aVthink
p1402
aVchose
p1403
aVword
p1404
aVfigures
p1405
aVbeyond
p1406
aVwell
p1407
aVchose
p1408
aVaugust
p1409
aVword
p1410
aVfigures
p1411
aVamerican
p1412
aVface
p1413
aVshowed
p1414
aVsurprise
p1415
aVadmiration
p1416
aVsmart
p1417
aVfine
p1418
aVthing
p1419
aVyes
p1420
aVus
p1421
aVeven
p1422
aVcould
p1423
aVguessed
p1424
aVdate
p1425
aVm
aVshutting
p1426
aVtomorrow
p1427
aVmorning
p1428
aVwell
p1429
aVguess
p1430
aVll
p1431
aVfix
p1432
aValso
p1433
aVm
aVstaying
p1434
aVgoldarned
p1435
aVcountry
p1436
aVlonesome
p1437
aVweek
p1438
aVless
p1439
aVsee
p1440
aVjohn
p1441
aVbull
p1442
aVhind
p1443
aVlegs
p1444
aVfair
p1445
aVramping
p1446
aVd
aVrather
p1447
aVwatch
p1448
aVwater
p1449
aVre
p1450
aVamerican
p1451
aVcitizen
p1452
aVwell
p1453
aVjack
p1454
aVjames
p1455
aVamerican
p1456
aVcitizen
p1457
aVtime
p1458
aVportland
p1459
aVcuts
p1460
aVice
p1461
aVbritish
p1462
aVcopper
p1463
aVtell
p1464
aVre
p1465
aVamerican
p1466
aVcitizen
p1467
aVbritish
p1468
aVlaw
p1469
aVorder
p1470
aVsays
p1471
aVway
p1472
aVmister
p1473
aVtalking
p1474
aVjack
p1475
aVjames
p1476
aVseems
p1477
aVnt
p1478
aVmuch
p1479
aVcover
p1480
aVmen
p1481
aVmean
p1482
aVvon
p1483
aVbork
p1484
aVasked
p1485
aVsharply
p1486
aVwell
p1487
aVemployer
p1488
aVai
p1489
aVnt
p1490
aVsee
p1491
aVnt
p1492
aVfall
p1493
aVfall
p1494
aVever
p1495
aVpick
p1496
aVjames
p1497
aVjames
p1498
aVfault
p1499
aVknow
p1500
aVselfwilled
p1501
aVjob
p1502
aVjames
p1503
aVbonehead
p1504
aVgive
p1505
aVhollis
p1506
aVman
p1507
aVmad
p1508
aVwell
p1509
aVwent
p1510
aVbit
p1511
aVwoozy
p1512
aVtowards
p1513
aVend
p1514
aVenough
p1515
aVmake
p1516
aVman
p1517
aVbughouse
p1518
aVplay
p1519
aVpart
p1520
aVmorning
p1521
aVnight
p1522
aVhundred
p1523
aVguys
p1524
aVready
p1525
aVset
p1526
aVcoppers
p1527
aVwise
p1528
aVsteiner
p1529
aVvon
p1530
aVbork
p1531
aVstarted
p1532
aVviolently
p1533
aVruddy
p1534
aVface
p1535
aVturned
p1536
aVshade
p1537
aVpaler
p1538
aVsteiner
p1539
aVwell
p1540
aVve
p1541
aVgot
p1542
aVraided
p1543
aVstore
p1544
aVlast
p1545
aVnight
p1546
aVpapers
p1547
aVportsmouth
p1548
aVjail
p1549
aVll
p1550
aVgo
p1551
aVpoor
p1552
aVdevil
p1553
aVstand
p1554
aVracket
p1555
aVlucky
p1556
aVgets
p1557
aVlife
p1558
aVwant
p1559
aVget
p1560
aVwater
p1561
aVsoon
p1562
aVvon
p1563
aVbork
p1564
aVstrong
p1565
aVselfcontained
p1566
aVman
p1567
aVeasy
p1568
aVsee
p1569
aVnews
p1570
aVshaken
p1571
aVcould
p1572
aVgot
p1573
aVsteiner
p1574
aVmuttered
p1575
aVworst
p1576
aVblow
p1577
aVyet
p1578
aVwell
p1579
aVnearly
p1580
aVworse
p1581
aVone
p1582
aVbelieve
p1583
aVfar
p1584
aVnt
p1585
aVmean
p1586
aVsure
p1587
aVthing
p1588
aVlandlady
p1589
aVfratton
p1590
aVway
p1591
aVinquiries
p1592
aVheard
p1593
aVguessed
p1594
aVtime
p1595
aVhustle
p1596
aVwant
p1597
aVknow
p1598
aVmister
p1599
aVcoppers
p1600
aVknow
p1601
aVthings
p1602
aVsteiner
p1603
aVfifth
p1604
aVman
p1605
aVve
p1606
aVlost
p1607
aVsince
p1608
aVsigned
p1609
aVknow
p1610
aVname
p1611
aVsixth
p1612
aVnt
p1613
aVget
p1614
aVmove
p1615
aVexplain
p1616
aVai
p1617
aVnt
p1618
aVashamed
p1619
aVsee
p1620
aVmen
p1621
aVgo
p1622
aVlike
p1623
aVvon
p1624
aVbork
p1625
aVflushed
p1626
aVcrimson
p1627
aVdare
p1628
aVspeak
p1629
aVway
p1630
aVnt
p1631
aVdare
p1632
aVthings
p1633
aVmister
p1634
aVwould
p1635
aVnt
p1636
aVservice
p1637
aVll
p1638
aVtell
p1639
aVstraight
p1640
aVmind
p1641
aVve
p1642
aVheard
p1643
aVgerman
p1644
aVpoliticians
p1645
aVagent
p1646
aVdone
p1647
aVwork
p1648
aVsorry
p1649
aVsee
p1650
aVput
p1651
aVaway
p1652
aVvon
p1653
aVbork
p1654
aVsprang
p1655
aVfeet
p1656
aVdare
p1657
aVsuggest
p1658
aVgiven
p1659
aVaway
p1660
aVagents
p1661
aVnt
p1662
aVstand
p1663
aVmister
p1664
aVstool
p1665
aVpigeon
p1666
aVcross
p1667
aVsomewhere
p1668
aVfind
p1669
aVanyhow
p1670
aVtaking
p1671
aVchances
p1672
aVlittle
p1673
aVholland
p1674
aVsooner
p1675
aVbetter
p1676
aVvon
p1677
aVbork
p1678
aVmastered
p1679
aVanger
p1680
aVallies
p1681
aVlong
p1682
aVquarrel
p1683
aVhour
p1684
aVvictory
p1685
aVsaid
p1686
aVve
p1687
aVdone
p1688
aVsplendid
p1689
aVwork
p1690
aVtaken
p1691
aVrisks
p1692
aVca
p1693
aVnt
p1694
aVforget
p1695
aVmeans
p1696
aVgo
p1697
aVholland
p1698
aVget
p1699
aVboat
p1700
aVrotterdam
p1701
aVnew
p1702
aVyork
p1703
aVline
p1704
aVsafe
p1705
aVweek
p1706
aVll
p1707
aVtake
p1708
aVbook
p1709
aVpack
p1710
aVrest
p1711
aVamerican
p1712
aVheld
p1713
aVsmall
p1714
aVparcel
p1715
aVhand
p1716
aVmade
p1717
aVmotion
p1718
aVgive
p1719
aVdough
p1720
aVasked
p1721
aVboodle
p1722
aVreward
p1723
aVpounds
p1724
aVgunner
p1725
aVturned
p1726
aVdamned
p1727
aVnasty
p1728
aVlast
p1729
aVsquare
p1730
aVextra
p1731
aVhundred
p1732
aVdollars
p1733
aVwould
p1734
aVnitsky
p1735
aVnothin
p1736
aVdoin
p1737
aVsays
p1738
aVmeant
p1739
aVlast
p1740
aVhundred
p1741
aVcost
p1742
aVtwo
p1743
aVhundred
p1744
aVpound
p1745
aVfirst
p1746
aVlast
p1747
aVnt
p1748
aVlikely
p1749
aVd
aVgive
p1750
aVwithout
p1751
aVgettin
p1752
aVwad
p1753
aVvon
p1754
aVbork
p1755
aVsmiled
p1756
aVbitterness
p1757
aVnt
p1758
aVseem
p1759
aVhigh
p1760
aVopinion
p1761
aVhonour
p1762
aVsaid
p1763
aVwant
p1764
aVmoney
p1765
aVgive
p1766
aVbook
p1767
aVwell
p1768
aVmister
p1769
aVbusiness
p1770
aVproposition
p1771
aVright
p1772
aVway
p1773
aVsat
p1774
aVtable
p1775
aVscribbled
p1776
aVcheck
p1777
aVtore
p1778
aVbook
p1779
aVrefrained
p1780
aVhanding
p1781
aVcompanion
p1782
aVsince
p1783
aVterms
p1784
aVmr
p1785
aValtamont
p1786
aVsaid
p1787
aVnt
p1788
aVsee
p1789
aVtrust
p1790
aVtrust
p1791
aVunderstand
p1792
aVadded
p1793
aVlooking
p1794
aVback
p1795
aVshoulder
p1796
aVamerican
p1797
aVcheck
p1798
aVupon
p1799
aVtable
p1800
aVclaim
p1801
aVright
p1802
aVexamine
p1803
aVparcel
p1804
aVpick
p1805
aVmoney
p1806
aVamerican
p1807
aVpassed
p1808
aVwithout
p1809
aVword
p1810
aVvon
p1811
aVbork
p1812
aVundid
p1813
aVwinding
p1814
aVstring
p1815
aVtwo
p1816
aVwrappers
p1817
aVpaper
p1818
aVsat
p1819
aVgazing
p1820
aVmoment
p1821
aVsilent
p1822
aVamazement
p1823
aVsmall
p1824
aVblue
p1825
aVbook
p1826
aVlay
p1827
aVacross
p1828
aVcover
p1829
aVprinted
p1830
aVgolden
p1831
aVletters
p1832
aVpractical
p1833
aVhandbook
p1834
aVbee
p1835
aVculture
p1836
aVone
p1837
aVinstant
p1838
aVmaster
p1839
aVspy
p1840
aVglare
p1841
aVstrangely
p1842
aVirrelevant
p1843
aVinscription
p1844
aVnext
p1845
aVgripped
p1846
aVback
p1847
aVneck
p1848
aVgrasp
p1849
aViron
p1850
aVchloroformed
p1851
aVsponge
p1852
aVheld
p1853
aVfront
p1854
aVwrithing
p1855
aVface
p1856
aVanother
p1857
aVglass
p1858
aVwatson
p1859
aVsaid
p1860
aVmr
p1861
aVsherlock
p1862
aVholmes
p1863
aVextended
p1864
aVbottle
p1865
aVimperial
p1866
aVtokay
p1867
aVthickset
p1868
aVchauffeur
p1869
aVseated
p1870
aVtable
p1871
aVpushed
p1872
aVforward
p1873
aVglass
p1874
aVeagerness
p1875
aVgood
p1876
aVwine
p1877
aVholmes
p1878
aVremarkable
p1879
aVwine
p1880
aVwatson
p1881
aVfriend
p1882
aVupon
p1883
aVsofa
p1884
aVassured
p1885
aVfranz
p1886
aVjosef
p1887
aVspecial
p1888
aVcellar
p1889
aVschoenbrunn
p1890
aVpalace
p1891
aVmight
p1892
aVtrouble
p1893
aVopen
p1894
aVwindow
p1895
aVchloroform
p1896
aVvapour
p1897
aVhelp
p1898
aVpalate
p1899
aVsafe
p1900
aVajar
p1901
aVholmes
p1902
aVstanding
p1903
aVfront
p1904
aVremoving
p1905
aVdossier
p1906
aVdossier
p1907
aVswiftly
p1908
aVexamining
p1909
aVpacking
p1910
aVneatly
p1911
aVvon
p1912
aVbork
p1913
aVvalise
p1914
aVgerman
p1915
aVlay
p1916
aVupon
p1917
aVsofa
p1918
aVsleeping
p1919
aVstertorously
p1920
aVstrap
p1921
aVround
p1922
aVupper
p1923
aVarms
p1924
aVanother
p1925
aVround
p1926
aVlegs
p1927
aVneed
p1928
aVhurry
p1929
aVwatson
p1930
aVsafe
p1931
aVinterruption
p1932
aVwould
p1933
aVmind
p1934
aVtouching
p1935
aVbell
p1936
aVone
p1937
aVhouse
p1938
aVexcept
p1939
aVold
p1940
aVmartha
p1941
aVplayed
p1942
aVpart
p1943
aVadmiration
p1944
aVgot
p1945
aVsituation
p1946
aVfirst
p1947
aVtook
p1948
aVmatter
p1949
aVah
p1950
aVmartha
p1951
aVglad
p1952
aVhear
p1953
aVwell
p1954
aVpleasant
p1955
aVold
p1956
aVlady
p1957
aVappeared
p1958
aVdoorway
p1959
aVcurtseyed
p1960
aVsmile
p1961
aVmr
p1962
aVholmes
p1963
aVglanced
p1964
aVapprehension
p1965
aVfigure
p1966
aVupon
p1967
aVsofa
p1968
aVright
p1969
aVmartha
p1970
aVhurt
p1971
aVglad
p1972
aVmr
p1973
aVholmes
p1974
aVaccording
p1975
aVlights
p1976
aVkind
p1977
aVmaster
p1978
aVwanted
p1979
aVgo
p1980
aVwife
p1981
aVgermany
p1982
aVyesterday
p1983
aVwould
p1984
aVhardly
p1985
aVsuited
p1986
aVplans
p1987
aVwould
p1988
aVsir
p1989
aVindeed
p1990
aVmartha
p1991
aVlong
p1992
aVeasy
p1993
aVmind
p1994
aVwaited
p1995
aVtime
p1996
aVsignal
p1997
aVtonight
p1998
aVsecretary
p1999
aVsir
p2000
aVknow
p2001
aVcar
p2002
aVpassed
p2003
aVthought
p2004
aVwould
p2005
aVnever
p2006
aVgo
p2007
aVknew
p2008
aVwould
p2009
aVsuit
p2010
aVplans
p2011
aVsir
p2012
aVfind
p2013
aVindeed
p2014
aVwell
p2015
aVmeant
p2016
aVwaited
p2017
aVhalf
p2018
aVhour
p2019
aVsaw
p2020
aVlamp
p2021
aVgo
p2022
aVknew
p2023
aVcoast
p2024
aVclear
p2025
aVreport
p2026
aVtomorrow
p2027
aVlondon
p2028
aVmartha
p2029
aVclaridge
p2030
aVhotel
p2031
aVgood
p2032
aVsir
p2033
aVsuppose
p2034
aVeverything
p2035
aVready
p2036
aVleave
p2037
aVyes
p2038
aVsir
p2039
aVposted
p2040
aVseven
p2041
aVletters
p2042
aVtoday
p2043
aVaddresses
p2044
aVusual
p2045
aVgood
p2046
aVmartha
p2047
aVlook
p2048
aVtomorrow
p2049
aVgoodnight
p2050
aVpapers
p2051
aVcontinued
p2052
aVold
p2053
aVlady
p2054
aVvanished
p2055
aVgreat
p2056
aVimportance
p2057
aVcourse
p2058
aVinformation
p2059
aVrepresent
p2060
aVsent
p2061
aVlong
p2062
aVago
p2063
aVgerman
p2064
aVgovernment
p2065
aVoriginals
p2066
aVcould
p2067
aVsafely
p2068
aVgot
p2069
aVcountry
p2070
aVuse
p2071
aVgo
p2072
aVfar
p2073
aVsay
p2074
aVwatson
p2075
aVleast
p2076
aVshow
p2077
aVpeople
p2078
aVknown
p2079
aVmay
p2080
aVsay
p2081
aVgood
p2082
aVmany
p2083
aVpapers
p2084
aVcome
p2085
aVneed
p2086
aVadd
p2087
aVthoroughly
p2088
aVuntrustworthy
p2089
aVwould
p2090
aVbrighten
p2091
aVdeclining
p2092
aVyears
p2093
aVsee
p2094
aVgerman
p2095
aVcruiser
p2096
aVnavigating
p2097
aVsolent
p2098
aVaccording
p2099
aVminefield
p2100
aVplans
p2101
aVfurnished
p2102
aVwatson
p2103
aVstopped
p2104
aVwork
p2105
aVtook
p2106
aVold
p2107
aVfriend
p2108
aVshoulders
p2109
aVve
p2110
aVhardly
p2111
aVseen
p2112
aVlight
p2113
aVyet
p2114
aVyears
p2115
aVused
p2116
aVlook
p2117
aVblithe
p2118
aVboy
p2119
aVever
p2120
aVfeel
p2121
aVtwenty
p2122
aVyears
p2123
aVyounger
p2124
aVholmes
p2125
aVseldom
p2126
aVfelt
p2127
aVhappy
p2128
aVgot
p2129
aVwire
p2130
aVasking
p2131
aVmeet
p2132
aVharwich
p2133
aVcar
p2134
aVholmes
p2135
aVchanged
p2136
aVlittle
p2137
aVsave
p2138
aVhorrible
p2139
aVgoatee
p2140
aVsacrifices
p2141
aVone
p2142
aVmakes
p2143
aVone
p2144
aVcountry
p2145
aVwatson
p2146
aVsaid
p2147
aVholmes
p2148
aVpulling
p2149
aVlittle
p2150
aVtuft
p2151
aVtomorrow
p2152
aVdreadful
p2153
aVmemory
p2154
aVhair
p2155
aVcut
p2156
aVsuperficial
p2157
aVchanges
p2158
aVshall
p2159
aVdoubt
p2160
aVreappear
p2161
aVclaridge
p2162
aVtomorrow
p2163
aVamerican
p2164
aVstunt
p2165
aVbeg
p2166
aVpardon
p2167
aVwatson
p2168
aVwell
p2169
aVenglish
p2170
aVseems
p2171
aVpermanently
p2172
aVdefiled
p2173
aVamerican
p2174
aVjob
p2175
aVcame
p2176
aVway
p2177
aVretired
p2178
aVholmes
p2179
aVheard
p2180
aVliving
p2181
aVlife
p2182
aVhermit
p2183
aVamong
p2184
aVbees
p2185
aVbooks
p2186
aVsmall
p2187
aVfarm
p2188
aVupon
p2189
aVsouth
p2190
aVdowns
p2191
aVexactly
p2192
aVwatson
p2193
aVfruit
p2194
aVleisured
p2195
aVease
p2196
aVmagnum
p2197
aVopus
p2198
aVlatter
p2199
aVyears
p2200
aVpicked
p2201
aVvolume
p2202
aVtable
p2203
aVread
p2204
aVwhole
p2205
aVtitle
p2206
aVpractical
p2207
aVhandbook
p2208
aVbee
p2209
aVculture
p2210
aVobservations
p2211
aVupon
p2212
aVsegregation
p2213
aVqueen
p2214
aValone
p2215
aVbehold
p2216
aVfruit
p2217
aVpensive
p2218
aVnights
p2219
aVlaborious
p2220
aVdays
p2221
aVwatched
p2222
aVlittle
p2223
aVworking
p2224
aVgangs
p2225
aVwatched
p2226
aVcriminal
p2227
aVworld
p2228
aVlondon
p2229
aVget
p2230
aVwork
p2231
aVah
p2232
aVoften
p2233
aVmarvelled
p2234
aVforeign
p2235
aVminister
p2236
aValone
p2237
aVcould
p2238
aVwithstood
p2239
aVpremier
p2240
aValso
p2241
aVdeigned
p2242
aVvisit
p2243
aVhumble
p2244
aVroof
p2245
aVfact
p2246
aVwatson
p2247
aVgentleman
p2248
aVupon
p2249
aVsofa
p2250
aVbit
p2251
aVgood
p2252
aVpeople
p2253
aVclass
p2254
aVthings
p2255
aVgoing
p2256
aVwrong
p2257
aVone
p2258
aVcould
p2259
aVunderstand
p2260
aVgoing
p2261
aVwrong
p2262
aVagents
p2263
aVsuspected
p2264
aVeven
p2265
aVcaught
p2266
aVevidence
p2267
aVstrong
p2268
aVsecret
p2269
aVcentral
p2270
aVforce
p2271
aVabsolutely
p2272
aVnecessary
p2273
aVexpose
p2274
aVstrong
p2275
aVpressure
p2276
aVbrought
p2277
aVupon
p2278
aVlook
p2279
aVmatter
p2280
aVcost
p2281
aVtwo
p2282
aVyears
p2283
aVwatson
p2284
aVdevoid
p2285
aVexcitement
p2286
aVsay
p2287
aVstarted
p2288
aVpilgrimage
p2289
aVchicago
p2290
aVgraduated
p2291
aVirish
p2292
aVsecret
p2293
aVsociety
p2294
aVbuffalo
p2295
aVgave
p2296
aVserious
p2297
aVtrouble
p2298
aVconstabulary
p2299
aVskibbareen
p2300
aVeventually
p2301
aVcaught
p2302
aVeye
p2303
aVsubordinate
p2304
aVagent
p2305
aVvon
p2306
aVbork
p2307
aVrecommended
p2308
aVlikely
p2309
aVman
p2310
aVrealize
p2311
aVmatter
p2312
aVcomplex
p2313
aVsince
p2314
aVhonoured
p2315
aVconfidence
p2316
aVprevented
p2317
aVplans
p2318
aVgoing
p2319
aVsubtly
p2320
aVwrong
p2321
aVfive
p2322
aVbest
p2323
aVagents
p2324
aVprison
p2325
aVwatched
p2326
aVwatson
p2327
aVpicked
p2328
aVripened
p2329
aVwell
p2330
aVsir
p2331
aVhope
p2332
aVnone
p2333
aVworse
p2334
aVlast
p2335
aVremark
p2336
aVaddressed
p2337
aVvon
p2338
aVbork
p2339
aVmuch
p2340
aVgasping
p2341
aVblinking
p2342
aVlain
p2343
aVquietly
p2344
aVlistening
p2345
aVholmes
p2346
aVstatement
p2347
aVbroke
p2348
aVfurious
p2349
aVstream
p2350
aVgerman
p2351
aVinvective
p2352
aVface
p2353
aVconvulsed
p2354
aVpassion
p2355
aVholmes
p2356
aVcontinued
p2357
aVswift
p2358
aVinvestigation
p2359
aVdocuments
p2360
aVprisoner
p2361
aVcursed
p2362
aVswore
p2363
aVthough
p2364
aVunmusical
p2365
aVgerman
p2366
aVexpressive
p2367
aVlanguages
p2368
aVobserved
p2369
aVvon
p2370
aVbork
p2371
aVstopped
p2372
aVpure
p2373
aVexhaustion
p2374
aVhullo
p2375
aVhullo
p2376
aVadded
p2377
aVlooked
p2378
aVhard
p2379
aVcorner
p2380
aVtracing
p2381
aVputting
p2382
aVbox
p2383
aVput
p2384
aVanother
p2385
aVbird
p2386
aVcage
p2387
aVidea
p2388
aVpaymaster
p2389
aVrascal
p2390
aVthough
p2391
aVlong
p2392
aVeye
p2393
aVupon
p2394
aVmister
p2395
aVvon
p2396
aVbork
p2397
aVgreat
p2398
aVdeal
p2399
aVanswer
p2400
aVprisoner
p2401
aVraised
p2402
aVdifficulty
p2403
aVupon
p2404
aVsofa
p2405
aVstaring
p2406
aVstrange
p2407
aVmixture
p2408
aVamazement
p2409
aVhatred
p2410
aVcaptor
p2411
aVshall
p2412
aVget
p2413
aVlevel
p2414
aValtamont
p2415
aVsaid
p2416
aVspeaking
p2417
aVslow
p2418
aVdeliberation
p2419
aVtakes
p2420
aVlife
p2421
aVshall
p2422
aVget
p2423
aVlevel
p2424
aVold
p2425
aVsweet
p2426
aVsong
p2427
aVsaid
p2428
aVholmes
p2429
aVoften
p2430
aVheard
p2431
aVdays
p2432
aVgone
p2433
aVfavorite
p2434
aVditty
p2435
aVlate
p2436
aVlamented
p2437
aVprofessor
p2438
aVmoriarty
p2439
aVcolonel
p2440
aVsebastian
p2441
aVmoran
p2442
aValso
p2443
aVknown
p2444
aVwarble
p2445
aVyet
p2446
aVlive
p2447
aVkeep
p2448
aVbees
p2449
aVupon
p2450
aVsouth
p2451
aVdowns
p2452
aVcurse
p2453
aVdouble
p2454
aVtraitor
p2455
aVcried
p2456
aVgerman
p2457
aVstraining
p2458
aVbonds
p2459
aVglaring
p2460
aVmurder
p2461
aVfurious
p2462
aVeyes
p2463
aVbad
p2464
aVsaid
p2465
aVholmes
p2466
aVsmiling
p2467
aVspeech
p2468
aVsurely
p2469
aVshows
p2470
aVmr
p2471
aValtamont
p2472
aVchicago
p2473
aVexistence
p2474
aVfact
p2475
aVused
p2476
aVgone
p2477
aVreally
p2478
aVimmaterial
p2479
aVsince
p2480
aVmatter
p2481
aVseems
p2482
aVinterest
p2483
aVmr
p2484
aVvon
p2485
aVbork
p2486
aVmay
p2487
aVsay
p2488
aVfirst
p2489
aVacquaintance
p2490
aVmembers
p2491
aVfamily
p2492
aVdone
p2493
aVgood
p2494
aVdeal
p2495
aVbusiness
p2496
aVgermany
p2497
aVpast
p2498
aVname
p2499
aVprobably
p2500
aVfamiliar
p2501
aVwould
p2502
aVwish
p2503
aVknow
p2504
aVsaid
p2505
aVprussian
p2506
aVgrimly
p2507
aVbrought
p2508
aVseparation
p2509
aVirene
p2510
aVadler
p2511
aVlate
p2512
aVking
p2513
aVbohemia
p2514
aVcousin
p2515
aVheinrich
p2516
aVimperial
p2517
aVenvoy
p2518
aValso
p2519
aVsaved
p2520
aVmurder
p2521
aVnihilist
p2522
aVklopman
p2523
aVcount
p2524
aVvon
p2525
aVund
p2526
aVzu
p2527
aVgrafenstein
p2528
aVmother
p2529
aVelder
p2530
aVbrother
p2531
aVvon
p2532
aVbork
p2533
aVsat
p2534
aVamazement
p2535
aVone
p2536
aVman
p2537
aVcried
p2538
aVexactly
p2539
aVsaid
p2540
aVholmes
p2541
aVvon
p2542
aVbork
p2543
aVgroaned
p2544
aVsank
p2545
aVback
p2546
aVsofa
p2547
aVinformation
p2548
aVcame
p2549
aVcried
p2550
aVworth
p2551
aVdone
p2552
aVruin
p2553
aVforever
p2554
aVcertainly
p2555
aVlittle
p2556
aVuntrustworthy
p2557
aVsaid
p2558
aVholmes
p2559
aVrequire
p2560
aVchecking
p2561
aVlittle
p2562
aVtime
p2563
aVcheck
p2564
aVadmiral
p2565
aVmay
p2566
aVfind
p2567
aVnew
p2568
aVguns
p2569
aVrather
p2570
aVlarger
p2571
aVexpects
p2572
aVcruisers
p2573
aVperhaps
p2574
aVtrifle
p2575
aVfaster
p2576
aVvon
p2577
aVbork
p2578
aVclutched
p2579
aVthroat
p2580
aVdespair
p2581
aVgood
p2582
aVmany
p2583
aVpoints
p2584
aVdetail
p2585
aVdoubt
p2586
aVcome
p2587
aVlight
p2588
aVgood
p2589
aVtime
p2590
aVone
p2591
aVquality
p2592
aVrare
p2593
aVgerman
p2594
aVmr
p2595
aVvon
p2596
aVbork
p2597
aVsportsman
p2598
aVbear
p2599
aVillwill
p2600
aVrealize
p2601
aVoutwitted
p2602
aVmany
p2603
aVpeople
p2604
aVlast
p2605
aVoutwitted
p2606
aVdone
p2607
aVbest
p2608
aVcountry
p2609
aVdone
p2610
aVbest
p2611
aVmine
p2612
aVcould
p2613
aVnatural
p2614
aVbesides
p2615
aVadded
p2616
aVunkindly
p2617
aVlaid
p2618
aVhand
p2619
aVupon
p2620
aVshoulder
p2621
aVprostrate
p2622
aVman
p2623
aVbetter
p2624
aVfall
p2625
aVignoble
p2626
aVfoe
p2627
aVpapers
p2628
aVready
p2629
aVwatson
p2630
aVhelp
p2631
aVprisoner
p2632
aVthink
p2633
aVmay
p2634
aVget
p2635
aVstarted
p2636
aVlondon
p2637
aVeasy
p2638
aVtask
p2639
aVmove
p2640
aVvon
p2641
aVbork
p2642
aVstrong
p2643
aVdesperate
p2644
aVman
p2645
aVfinally
p2646
aVholding
p2647
aVeither
p2648
aVarm
p2649
aVtwo
p2650
aVfriends
p2651
aVwalked
p2652
aVslowly
p2653
aVgarden
p2654
aVwalk
p2655
aVtrod
p2656
aVproud
p2657
aVconfidence
p2658
aVreceived
p2659
aVcongratulations
p2660
aVfamous
p2661
aVdiplomatist
p2662
aVhours
p2663
aVshort
p2664
aVfinal
p2665
aVstruggle
p2666
aVhoisted
p2667
aVstill
p2668
aVbound
p2669
aVhand
p2670
aVfoot
p2671
aVspare
p2672
aVseat
p2673
aVlittle
p2674
aVcar
p2675
aVprecious
p2676
aVvalise
p2677
aVwedged
p2678
aVbeside
p2679
aVtrust
p2680
aVcomfortable
p2681
aVcircumstances
p2682
aVpermit
p2683
aVsaid
p2684
aVholmes
p2685
aVfinal
p2686
aVarrangements
p2687
aVmade
p2688
aVguilty
p2689
aVliberty
p2690
aVlit
p2691
aVcigar
p2692
aVplaced
p2693
aVlips
p2694
aVamenities
p2695
aVwasted
p2696
aVupon
p2697
aVangry
p2698
aVgerman
p2699
aVsuppose
p2700
aVrealize
p2701
aVmr
p2702
aVsherlock
p2703
aVholmes
p2704
aVsaid
p2705
aVgovernment
p2706
aVbears
p2707
aVtreatment
p2708
aVbecomes
p2709
aVact
p2710
aVwar
p2711
aVgovernment
p2712
aVtreatment
p2713
aVsaid
p2714
aVholmes
p2715
aVtapping
p2716
aVvalise
p2717
aVprivate
p2718
aVindividual
p2719
aVwarrant
p2720
aVarrest
p2721
aVwhole
p2722
aVproceeding
p2723
aVabsolutely
p2724
aVillegal
p2725
aVoutrageous
p2726
aVabsolutely
p2727
aVsaid
p2728
aVholmes
p2729
aVkidnapping
p2730
aVgerman
p2731
aVsubject
p2732
aVstealing
p2733
aVprivate
p2734
aVpapers
p2735
aVwell
p2736
aVrealize
p2737
aVposition
p2738
aVaccomplice
p2739
aVshout
p2740
aVhelp
p2741
aVpass
p2742
aVvillage
p2743
aVdear
p2744
aVsir
p2745
aVanything
p2746
aVfoolish
p2747
aVwould
p2748
aVprobably
p2749
aVenlarge
p2750
aVtwo
p2751
aVlimited
p2752
aVtitles
p2753
aVvillage
p2754
aVinns
p2755
aVgiving
p2756
aVus
p2757
aVdangling
p2758
aVprussian
p2759
aVsignpost
p2760
aVenglishman
p2761
aVpatient
p2762
aVcreature
p2763
aVpresent
p2764
aVtemper
p2765
aVlittle
p2766
aVinflamed
p2767
aVwould
p2768
aVwell
p2769
aVtry
p2770
aVfar
p2771
aVmr
p2772
aVvon
p2773
aVbork
p2774
aVgo
p2775
aVus
p2776
aVquiet
p2777
aVsensible
p2778
aVfashion
p2779
aVscotland
p2780
aVyard
p2781
aVwhence
p2782
aVsend
p2783
aVfriend
p2784
aVbaron
p2785
aVvon
p2786
aVherling
p2787
aVsee
p2788
aVeven
p2789
aVmay
p2790
aVfill
p2791
aVplace
p2792
aVreserved
p2793
aVambassadorial
p2794
aVsuite
p2795
aVwatson
p2796
aVjoining
p2797
aVus
p2798
aVold
p2799
aVservice
p2800
aVunderstand
p2801
aVlondon
p2802
aVwo
p2803
aVnt
p2804
aVway
p2805
aVstand
p2806
aVupon
p2807
aVterrace
p2808
aVmay
p2809
aVlast
p2810
aVquiet
p2811
aVtalk
p2812
aVshall
p2813
aVever
p2814
aVtwo
p2815
aVfriends
p2816
aVchatted
p2817
aVintimate
p2818
aVconverse
p2819
aVminutes
p2820
aVrecalling
p2821
aVdays
p2822
aVpast
p2823
aVprisoner
p2824
aVvainly
p2825
aVwriggled
p2826
aVundo
p2827
aVbonds
p2828
aVheld
p2829
aVturned
p2830
aVcar
p2831
aVholmes
p2832
aVpointed
p2833
aVback
p2834
aVmoonlit
p2835
aVsea
p2836
aVshook
p2837
aVthoughtful
p2838
aVhead
p2839
aVeast
p2840
aVwind
p2841
aVcoming
p2842
aVwatson
p2843
aVthink
p2844
aVholmes
p2845
aVwarm
p2846
aVgood
p2847
aVold
p2848
aVwatson
p2849
aVone
p2850
aVfixed
p2851
aVpoint
p2852
aVchanging
p2853
aVage
p2854
aVeast
p2855
aVwind
p2856
aVcoming
p2857
aVwind
p2858
aVnever
p2859
aVblew
p2860
aVengland
p2861
aVyet
p2862
aVcold
p2863
aVbitter
p2864
aVwatson
p2865
aVgood
p2866
aVmany
p2867
aVus
p2868
aVmay
p2869
aVwither
p2870
aVblast
p2871
aVgod
p2872
aVwind
p2873
aVnone
p2874
aVless
p2875
aVcleaner
p2876
aVbetter
p2877
aVstronger
p2878
aVland
p2879
aVlie
p2880
aVsunshine
p2881
aVstorm
p2882
aVcleared
p2883
aVstart
p2884
aVwatson
p2885
aVtime
p2886
aVway
p2887
aVcheck
p2888
aVfive
p2889
aVhundred
p2890
aVpounds
p2891
aVcashed
p2892
aVearly
p2893
aVdrawer
p2894
aVquite
p2895
aVcapable
p2896
aVstopping
p2897
a.