(lp1
Vadventure
p2
aVdying
p3
aVdetective
p4
aVsir
p5
aVarthur
p6
aVconan
p7
aVdoyle
p8
aVmrs
p9
aVhudson
p10
aVlandlady
p11
aVsherlock
p12
aVholmes
p13
aVlongsuffering
p14
aVwoman
p15
aVfirstfloor
p16
aVflat
p17
aVinvaded
p18
aVhours
p19
aVthrongs
p20
aVsingular
p21
aVoften
p22
aVundesirable
p23
aVcharacters
p24
aVremarkable
p25
aVlodger
p26
aVshowed
p27
aVeccentricity
p28
aVirregularity
p29
aVlife
p30
aVmust
p31
aVsorely
p32
aVtried
p33
aVpatience
p34
aVincredible
p35
aVuntidiness
p36
aVaddiction
p37
aVmusic
p38
aVstrange
p39
aVhours
p40
aVoccasional
p41
aVrevolver
p42
aVpractice
p43
aVwithin
p44
aVdoors
p45
aVweird
p46
aVoften
p47
aVmalodorous
p48
aVscientific
p49
aVexperiments
p50
aVatmosphere
p51
aVviolence
p52
aVdanger
p53
aVhung
p54
aVaround
p55
aVmade
p56
aVworst
p57
aVtenant
p58
aVlondon
p59
aVhand
p60
aVpayments
p61
aVprincely
p62
aVdoubt
p63
aVhouse
p64
aVmight
p65
aVpurchased
p66
aVprice
p67
aVholmes
p68
aVpaid
p69
aVrooms
p70
aVyears
p71
aVlandlady
p72
aVstood
p73
aVdeepest
p74
aVawe
p75
aVnever
p76
aVdared
p77
aVinterfere
p78
aVhowever
p79
aVoutrageous
p80
aVproceedings
p81
aVmight
p82
aVseem
p83
aVfond
p84
aVremarkable
p85
aVgentleness
p86
aVcourtesy
p87
aVdealings
p88
aVwomen
p89
aVdisliked
p90
aVdistrusted
p91
aVsex
p92
aValways
p93
aVchivalrous
p94
aVopponent
p95
aVknowing
p96
aVgenuine
p97
aVregard
p98
aVlistened
p99
aVearnestly
p100
aVstory
p101
aVcame
p102
aVrooms
p103
aVsecond
p104
aVyear
p105
aVmarried
p106
aVlife
p107
aVtold
p108
aVsad
p109
aVcondition
p110
aVpoor
p111
aVfriend
p112
aVreduced
p113
aVdying
p114
aVdr
p115
aVwatson
p116
aVsaid
p117
aVthree
p118
aVdays
p119
aVsinking
p120
aVdoubt
p121
aVlast
p122
aVday
p123
aVwould
p124
aVlet
p125
aVget
p126
aVdoctor
p127
aVmorning
p128
aVsaw
p129
aVbones
p130
aVsticking
p131
aVface
p132
aVgreat
p133
aVbright
p134
aVeyes
p135
aVlooking
p136
aVcould
p137
aVstand
p138
aVleave
p139
aVwithout
p140
aVmr
p141
aVholmes
p142
aVgoing
p143
aVdoctor
p144
aVhour
p145
aVsaid
p146
aVlet
p147
aVwatson
p148
aVsaid
p149
aVwould
p150
aVnt
p151
aVwaste
p152
aVhour
p153
aVcoming
p154
aVsir
p155
aVmay
p156
aVsee
p157
aValive
p158
aVhorrified
p159
aVheard
p160
aVnothing
p161
aVillness
p162
aVneed
p163
aVsay
p164
aVrushed
p165
aVcoat
p166
aVhat
p167
aVdrove
p168
aVback
p169
aVasked
p170
aVdetails
p171
aVlittle
p172
aVtell
p173
aVsir
p174
aVworking
p175
aVcase
p176
aVrotherhithe
p177
aValley
p178
aVnear
p179
aVriver
p180
aVbrought
p181
aVillness
p182
aVback
p183
aVtook
p184
aVbed
p185
aVwednesday
p186
aVafternoon
p187
aVnever
p188
aVmoved
p189
aVsince
p190
aVthree
p191
aVdays
p192
aVneither
p193
aVfood
p194
aVdrink
p195
aVpassed
p196
aVlips
p197
aVgood
p198
aVgod
p199
aVcall
p200
aVdoctor
p201
aVwould
p202
aVnt
p203
aVsir
p204
aVknow
p205
aVmasterful
p206
aVnt
p207
aVdare
p208
aVdisobey
p209
aVlong
p210
aVworld
p211
aVll
p212
aVsee
p213
aVmoment
p214
aVset
p215
aVeyes
p216
aVindeed
p217
aVdeplorable
p218
aVspectacle
p219
aVdim
p220
aVlight
p221
aVfoggy
p222
aVnovember
p223
aVday
p224
aVsick
p225
aVroom
p226
aVgloomy
p227
aVspot
p228
aVgaunt
p229
aVwasted
p230
aVface
p231
aVstaring
p232
aVbed
p233
aVsent
p234
aVchill
p235
aVheart
p236
aVeyes
p237
aVbrightness
p238
aVfever
p239
aVhectic
p240
aVflush
p241
aVupon
p242
aVeither
p243
aVcheek
p244
aVdark
p245
aVcrusts
p246
aVclung
p247
aVlips
p248
aVthin
p249
aVhands
p250
aVupon
p251
aVcoverlet
p252
aVtwitched
p253
aVincessantly
p254
aVvoice
p255
aVcroaking
p256
aVspasmodic
p257
aVlay
p258
aVlistlessly
p259
aVentered
p260
aVroom
p261
aVsight
p262
aVbrought
p263
aVgleam
p264
aVrecognition
p265
aVeyes
p266
aVwell
p267
aVwatson
p268
aVseem
p269
aVfallen
p270
aVupon
p271
aVevil
p272
aVdays
p273
aVsaid
p274
aVfeeble
p275
aVvoice
p276
aVsomething
p277
aVold
p278
aVcarelessness
p279
aVmanner
p280
aVdear
p281
aVfellow
p282
aVcried
p283
aVapproaching
p284
aVstand
p285
aVback
p286
aVstand
p287
aVright
p288
aVback
p289
aVsaid
p290
aVsharp
p291
aVimperiousness
p292
aVassociated
p293
aVmoments
p294
aVcrisis
p295
aVapproach
p296
aVwatson
p297
aVshall
p298
aVorder
p299
aVhouse
p300
aVdesire
p301
aVenough
p302
aVyes
p303
aVmrs
p304
aVhudson
p305
aVright
p306
aVmasterful
p307
aVever
p308
aVpitiful
p309
aVhowever
p310
aVsee
p311
aVexhaustion
p312
aVwished
p313
aVhelp
p314
aVexplained
p315
aVexactly
p316
aVhelp
p317
aVbest
p318
aVtold
p319
aVcertainly
p320
aVholmes
p321
aVrelaxed
p322
aVausterity
p323
aVmanner
p324
aVangry
p325
aVasked
p326
aVgasping
p327
aVbreath
p328
aVpoor
p329
aVdevil
p330
aVcould
p331
aVangry
p332
aVsaw
p333
aVlying
p334
aVplight
p335
aVsake
p336
aVwatson
p337
aVcroaked
p338
aVsake
p339
aVknow
p340
aVmatter
p341
aVcoolie
p342
aVdisease
p343
aVsumatra
p344
aVthing
p345
aVdutch
p346
aVknow
p347
aVthough
p348
aVmade
p349
aVlittle
p350
aVdate
p351
aVone
p352
aVthing
p353
aVcertain
p354
aVinfallibly
p355
aVdeadly
p356
aVhorribly
p357
aVcontagious
p358
aVspoke
p359
aVfeverish
p360
aVenergy
p361
aVlong
p362
aVhands
p363
aVtwitching
p364
aVjerking
p365
aVmotioned
p366
aVaway
p367
aVcontagious
p368
aVtouch
p369
aVwatson
p370
aVtouch
p371
aVkeep
p372
aVdistance
p373
aVwell
p374
aVgood
p375
aVheavens
p376
aVholmes
p377
aVsuppose
p378
aVconsideration
p379
aVweighs
p380
aVinstant
p381
aVwould
p382
aVaffect
p383
aVcase
p384
aVstranger
p385
aVimagine
p386
aVwould
p387
aVprevent
p388
aVduty
p389
aVold
p390
aVfriend
p391
aVadvanced
p392
aVrepulsed
p393
aVlook
p394
aVfurious
p395
aVanger
p396
aVstand
p397
aVtalk
p398
aVmust
p399
aVleave
p400
aVroom
p401
aVdeep
p402
aVrespect
p403
aVextraordinary
p404
aVqualities
p405
aVholmes
p406
aValways
p407
aVdeferred
p408
aVwishes
p409
aVeven
p410
aVleast
p411
aVunderstood
p412
aVprofessional
p413
aVinstincts
p414
aVaroused
p415
aVlet
p416
aVmaster
p417
aVelsewhere
p418
aVleast
p419
aVsick
p420
aVroom
p421
aVholmes
p422
aVsaid
p423
aVsick
p424
aVman
p425
aVchild
p426
aVtreat
p427
aVwhether
p428
aVlike
p429
aVexamine
p430
aVsymptoms
p431
aVtreat
p432
aVlooked
p433
aVvenomous
p434
aVeyes
p435
aVdoctor
p436
aVwhether
p437
aVlet
p438
aVleast
p439
aVsomeone
p440
aVconfidence
p441
aVsaid
p442
aVnone
p443
aVfriendship
p444
aVcertainly
p445
aVfacts
p446
aVfacts
p447
aVwatson
p448
aVgeneral
p449
aVpractitioner
p450
aVlimited
p451
aVexperience
p452
aVmediocre
p453
aVqualifications
p454
aVpainful
p455
aVsay
p456
aVthings
p457
aVleave
p458
aVchoice
p459
aVbitterly
p460
aVhurt
p461
aVremark
p462
aVunworthy
p463
aVholmes
p464
aVshows
p465
aVclearly
p466
aVstate
p467
aVnerves
p468
aVconfidence
p469
aVwould
p470
aVintrude
p471
aVservices
p472
aVlet
p473
aVbring
p474
aVsir
p475
aVjasper
p476
aVmeek
p477
aVpenrose
p478
aVfisher
p479
aVbest
p480
aVmen
p481
aVlondon
p482
aVsomeone
p483
aVmust
p484
aVfinal
p485
aVthink
p486
aVgoing
p487
aVstand
p488
aVsee
p489
aVdie
p490
aVwithout
p491
aVeither
p492
aVhelping
p493
aVbringing
p494
aVanyone
p495
aVelse
p496
aVhelp
p497
aVmistaken
p498
aVman
p499
aVmean
p500
aVwell
p501
aVwatson
p502
aVsaid
p503
aVsick
p504
aVman
p505
aVsomething
p506
aVsob
p507
aVgroan
p508
aVshall
p509
aVdemonstrate
p510
aVignorance
p511
aVknow
p512
aVpray
p513
aVtapanuli
p514
aVfever
p515
aVknow
p516
aVblack
p517
aVformosa
p518
aVcorruption
p519
aVnever
p520
aVheard
p521
aVeither
p522
aVmany
p523
aVproblems
p524
aVdisease
p525
aVmany
p526
aVstrange
p527
aVpathological
p528
aVpossibilities
p529
aVeast
p530
aVwatson
p531
aVpaused
p532
aVsentence
p533
aVcollect
p534
aVfailing
p535
aVstrength
p536
aVlearned
p537
aVmuch
p538
aVrecent
p539
aVresearches
p540
aVmedicocriminal
p541
aVaspect
p542
aVcourse
p543
aVcontracted
p544
aVcomplaint
p545
aVnothing
p546
aVpossibly
p547
aVhappen
p548
aVknow
p549
aVdr
p550
aVainstree
p551
aVgreatest
p552
aVliving
p553
aVauthority
p554
aVupon
p555
aVtropical
p556
aVdisease
p557
aVlondon
p558
aVremonstrance
p559
aVuseless
p560
aVholmes
p561
aVgoing
p562
aVinstant
p563
aVfetch
p564
aVturned
p565
aVresolutely
p566
aVdoor
p567
aVnever
p568
aVshock
p569
aVinstant
p570
aVtigerspring
p571
aVdying
p572
aVman
p573
aVintercepted
p574
aVheard
p575
aVsharp
p576
aVsnap
p577
aVtwisted
p578
aVkey
p579
aVnext
p580
aVmoment
p581
aVstaggered
p582
aVback
p583
aVbed
p584
aVexhausted
p585
aVpanting
p586
aVone
p587
aVtremendous
p588
aVoutflame
p589
aVenergy
p590
aVwo
p591
aVnt
p592
aVtake
p593
aVkey
p594
aVforce
p595
aVwatson
p596
aVve
p597
aVgot
p598
aVfriend
p599
aVstay
p600
aVotherwise
p601
aVll
p602
aVhumour
p603
aVlittle
p604
aVgasps
p605
aVterrible
p606
aVstruggles
p607
aVbreath
p608
aVve
p609
aVgood
p610
aVheart
p611
aVcourse
p612
aVknow
p613
aVwell
p614
aVshall
p615
aVway
p616
aVgive
p617
aVtime
p618
aVget
p619
aVstrength
p620
aVwatson
p621
aVfour
p622
aVoclock
p623
aVsix
p624
aVgo
p625
aVinsanity
p626
aVholmes
p627
aVtwo
p628
aVhours
p629
aVwatson
p630
aVpromise
p631
aVgo
p632
aVsix
p633
aVcontent
p634
aVwait
p635
aVseem
p636
aVchoice
p637
aVnone
p638
aVworld
p639
aVwatson
p640
aVthank
p641
aVneed
p642
aVhelp
p643
aVarranging
p644
aVclothes
p645
aVplease
p646
aVkeep
p647
aVdistance
p648
aVwatson
p649
aVone
p650
aVcondition
p651
aVwould
p652
aVmake
p653
aVseek
p654
aVhelp
p655
aVman
p656
aVmention
p657
aVone
p658
aVchoose
p659
aVmeans
p660
aVfirst
p661
aVthree
p662
aVsensible
p663
aVwords
p664
aVuttered
p665
aVsince
p666
aVentered
p667
aVroom
p668
aVwatson
p669
aVfind
p670
aVbooks
p671
aVsomewhat
p672
aVexhausted
p673
aVwonder
p674
aVbattery
p675
aVfeels
p676
aVpours
p677
aVelectricity
p678
aVnonconductor
p679
aVsix
p680
aVwatson
p681
aVresume
p682
aVconversation
p683
aVdestined
p684
aVresumed
p685
aVlong
p686
aVhour
p687
aVcircumstances
p688
aVgave
p689
aVshock
p690
aVhardly
p691
aVsecond
p692
aVcaused
p693
aVspring
p694
aVdoor
p695
aVstood
p696
aVminutes
p697
aVlooking
p698
aVsilent
p699
aVfigure
p700
aVbed
p701
aVface
p702
aValmost
p703
aVcovered
p704
aVclothes
p705
aVappeared
p706
aVasleep
p707
aVunable
p708
aVsettle
p709
aVreading
p710
aVwalked
p711
aVslowly
p712
aVround
p713
aVroom
p714
aVexamining
p715
aVpictures
p716
aVcelebrated
p717
aVcriminals
p718
aVevery
p719
aVwall
p720
aVadorned
p721
aVfinally
p722
aVaimless
p723
aVperambulation
p724
aVcame
p725
aVmantelpiece
p726
aVlitter
p727
aVpipes
p728
aVtobaccopouches
p729
aVsyringes
p730
aVpenknives
p731
aVrevolvercartridges
p732
aVdebris
p733
aVscattered
p734
aVmidst
p735
aVsmall
p736
aVblack
p737
aVwhite
p738
aVivory
p739
aVbox
p740
aVsliding
p741
aVlid
p742
aVneat
p743
aVlittle
p744
aVthing
p745
aVstretched
p746
aVhand
p747
aVexamine
p748
aVclosely
p749
aVdreadful
p750
aVcry
p751
aVgave
p752
aVyell
p753
aVmight
p754
aVheard
p755
aVstreet
p756
aVskin
p757
aVwent
p758
aVcold
p759
aVhair
p760
aVbristled
p761
aVhorrible
p762
aVscream
p763
aVturned
p764
aVcaught
p765
aVglimpse
p766
aVconvulsed
p767
aVface
p768
aVfrantic
p769
aVeyes
p770
aVstood
p771
aVparalyzed
p772
aVlittle
p773
aVbox
p774
aVhand
p775
aVput
p776
aVinstant
p777
aVwatson
p778
aVinstant
p779
aVsay
p780
aVhead
p781
aVsank
p782
aVback
p783
aVupon
p784
aVpillow
p785
aVgave
p786
aVdeep
p787
aVsigh
p788
aVrelief
p789
aVreplaced
p790
aVbox
p791
aVupon
p792
aVmantelpiece
p793
aVhate
p794
aVthings
p795
aVtouched
p796
aVwatson
p797
aVknow
p798
aVhate
p799
aVfidget
p800
aVbeyond
p801
aVendurance
p802
aVdoctor
p803
aVenough
p804
aVdrive
p805
aVpatient
p806
aVasylum
p807
aVsit
p808
aVman
p809
aVlet
p810
aVrest
p811
aVincident
p812
aVleft
p813
aVunpleasant
p814
aVimpression
p815
aVupon
p816
aVmind
p817
aVviolent
p818
aVcauseless
p819
aVexcitement
p820
aVfollowed
p821
aVbrutality
p822
aVspeech
p823
aVfar
p824
aVremoved
p825
aVusual
p826
aVsuavity
p827
aVshowed
p828
aVdeep
p829
aVdisorganization
p830
aVmind
p831
aVruins
p832
aVnoble
p833
aVmind
p834
aVdeplorable
p835
aVsat
p836
aVsilent
p837
aVdejection
p838
aVstipulated
p839
aVtime
p840
aVpassed
p841
aVseemed
p842
aVwatching
p843
aVclock
p844
aVwell
p845
aVhardly
p846
aVsix
p847
aVbegan
p848
aVtalk
p849
aVfeverish
p850
aVanimation
p851
aVwatson
p852
aVsaid
p853
aVchange
p854
aVpocket
p855
aVyes
p856
aVsilver
p857
aVgood
p858
aVdeal
p859
aVmany
p860
aVhalfcrowns
p861
aVfive
p862
aVah
p863
aVunfortunate
p864
aVwatson
p865
aVhowever
p866
aVput
p867
aVwatchpocket
p868
aVrest
p869
aVmoney
p870
aVleft
p871
aVtrouser
p872
aVpocket
p873
aVthank
p874
aVbalance
p875
aVmuch
p876
aVbetter
p877
aVlike
p878
aVraving
p879
aVinsanity
p880
aVshuddered
p881
aVmade
p882
aVsound
p883
aVcough
p884
aVsob
p885
aVlight
p886
aVgas
p887
aVwatson
p888
aVcareful
p889
aVone
p890
aVinstant
p891
aVshall
p892
aVhalf
p893
aVimplore
p894
aVcareful
p895
aVwatson
p896
aVthank
p897
aVexcellent
p898
aVneed
p899
aVdraw
p900
aVblind
p901
aVkindness
p902
aVplace
p903
aVletters
p904
aVpapers
p905
aVupon
p906
aVtable
p907
aVwithin
p908
aVreach
p909
aVthank
p910
aVlitter
p911
aVmantelpiece
p912
aVexcellent
p913
aVwatson
p914
aVsugartongs
p915
aVkindly
p916
aVraise
p917
aVsmall
p918
aVivory
p919
aVbox
p920
aVassistance
p921
aVplace
p922
aVamong
p923
aVpapers
p924
aVgood
p925
aVgo
p926
aVfetch
p927
aVmr
p928
aVculverton
p929
aVsmith
p930
aVlower
p931
aVburke
p932
aVstreet
p933
aVtell
p934
aVtruth
p935
aVdesire
p936
aVfetch
p937
aVdoctor
p938
aVsomewhat
p939
aVweakened
p940
aVpoor
p941
aVholmes
p942
aVobviously
p943
aVdelirious
p944
aVseemed
p945
aVdangerous
p946
aVleave
p947
aVhowever
p948
aVeager
p949
aVconsult
p950
aVperson
p951
aVnamed
p952
aVobstinate
p953
aVrefusing
p954
aVnever
p955
aVheard
p956
aVname
p957
aVsaid
p958
aVpossibly
p959
aVgood
p960
aVwatson
p961
aVmay
p962
aVsurprise
p963
aVknow
p964
aVman
p965
aVupon
p966
aVearth
p967
aVbest
p968
aVversed
p969
aVdisease
p970
aVmedical
p971
aVman
p972
aVplanter
p973
aVmr
p974
aVculverton
p975
aVsmith
p976
aVwellknown
p977
aVresident
p978
aVsumatra
p979
aVvisiting
p980
aVlondon
p981
aVoutbreak
p982
aVdisease
p983
aVupon
p984
aVplantation
p985
aVdistant
p986
aVmedical
p987
aVaid
p988
aVcaused
p989
aVstudy
p990
aVrather
p991
aVfarreaching
p992
aVconsequences
p993
aVmethodical
p994
aVperson
p995
aVdesire
p996
aVstart
p997
aVsix
p998
aVwell
p999
aVaware
p1000
aVwould
p1001
aVfind
p1002
aVstudy
p1003
aVcould
p1004
aVpersuade
p1005
aVcome
p1006
aVgive
p1007
aVus
p1008
aVbenefit
p1009
aVunique
p1010
aVexperience
p1011
aVdisease
p1012
aVinvestigation
p1013
aVdearest
p1014
aVhobby
p1015
aVdoubt
p1016
aVcould
p1017
aVhelp
p1018
aVgave
p1019
aVholmes
p1020
aVremarks
p1021
aVconsecutive
p1022
aVwhole
p1023
aVattempt
p1024
aVindicate
p1025
aVinterrupted
p1026
aVgaspings
p1027
aVbreath
p1028
aVclutchings
p1029
aVhands
p1030
aVindicated
p1031
aVpain
p1032
aVsuffering
p1033
aVappearance
p1034
aVchanged
p1035
aVworse
p1036
aVhours
p1037
aVhectic
p1038
aVspots
p1039
aVpronounced
p1040
aVeyes
p1041
aVshone
p1042
aVbrightly
p1043
aVdarker
p1044
aVhollows
p1045
aVcold
p1046
aVsweat
p1047
aVglimmered
p1048
aVupon
p1049
aVbrow
p1050
aVstill
p1051
aVretained
p1052
aVhowever
p1053
aVjaunty
p1054
aVgallantry
p1055
aVspeech
p1056
aVlast
p1057
aVgasp
p1058
aVwould
p1059
aValways
p1060
aVmaster
p1061
aVtell
p1062
aVexactly
p1063
aVleft
p1064
aVsaid
p1065
aVconvey
p1066
aVimpression
p1067
aVmind
p1068
aVdying
p1069
aVman
p1070
aVdying
p1071
aVdelirious
p1072
aVman
p1073
aVindeed
p1074
aVthink
p1075
aVwhole
p1076
aVbed
p1077
aVocean
p1078
aVone
p1079
aVsolid
p1080
aVmass
p1081
aVoysters
p1082
aVprolific
p1083
aVcreatures
p1084
aVseem
p1085
aVah
p1086
aVwandering
p1087
aVstrange
p1088
aVbrain
p1089
aVcontrols
p1090
aVbrain
p1091
aVsaying
p1092
aVwatson
p1093
aVdirections
p1094
aVmr
p1095
aVculverton
p1096
aVsmith
p1097
aVah
p1098
aVyes
p1099
aVremember
p1100
aVlife
p1101
aVdepends
p1102
aVupon
p1103
aVplead
p1104
aVwatson
p1105
aVgood
p1106
aVfeeling
p1107
aVus
p1108
aVnephew
p1109
aVwatson
p1110
aVsuspicions
p1111
aVfoul
p1112
aVplay
p1113
aVallowed
p1114
aVsee
p1115
aVboy
p1116
aVdied
p1117
aVhorribly
p1118
aVgrudge
p1119
aVsoften
p1120
aVwatson
p1121
aVbeg
p1122
aVpray
p1123
aVget
p1124
aVmeans
p1125
aVsave
p1126
aVbring
p1127
aVcab
p1128
aVcarry
p1129
aVnothing
p1130
aVsort
p1131
aVpersuade
p1132
aVcome
p1133
aVreturn
p1134
aVfront
p1135
aVmake
p1136
aVexcuse
p1137
aVcome
p1138
aVnt
p1139
aVforget
p1140
aVwatson
p1141
aVwo
p1142
aVnt
p1143
aVfail
p1144
aVnever
p1145
aVfail
p1146
aVdoubt
p1147
aVnatural
p1148
aVenemies
p1149
aVlimit
p1150
aVincrease
p1151
aVcreatures
p1152
aVwatson
p1153
aVdone
p1154
aVpart
p1155
aVshall
p1156
aVworld
p1157
aVoverrun
p1158
aVoysters
p1159
aVhorrible
p1160
aVll
p1161
aVconvey
p1162
aVmind
p1163
aVleft
p1164
aVfull
p1165
aVimage
p1166
aVmagnificent
p1167
aVintellect
p1168
aVbabbling
p1169
aVlike
p1170
aVfoolish
p1171
aVchild
p1172
aVhanded
p1173
aVkey
p1174
aVhappy
p1175
aVthought
p1176
aVtook
p1177
aVlest
p1178
aVlock
p1179
aVmrs
p1180
aVhudson
p1181
aVwaiting
p1182
aVtrembling
p1183
aVweeping
p1184
aVpassage
p1185
aVbehind
p1186
aVpassed
p1187
aVflat
p1188
aVheard
p1189
aVholmes
p1190
aVhigh
p1191
aVthin
p1192
aVvoice
p1193
aVdelirious
p1194
aVchant
p1195
aVstood
p1196
aVwhistling
p1197
aVcab
p1198
aVman
p1199
aVcame
p1200
aVfog
p1201
aVmr
p1202
aVholmes
p1203
aVsir
p1204
aVasked
p1205
aVold
p1206
aVacquaintance
p1207
aVinspector
p1208
aVmorton
p1209
aVscotland
p1210
aVyard
p1211
aVdressed
p1212
aVunofficial
p1213
aVtweeds
p1214
aVill
p1215
aVanswered
p1216
aVlooked
p1217
aVsingular
p1218
aVfashion
p1219
aVfiendish
p1220
aVcould
p1221
aVimagined
p1222
aVgleam
p1223
aVfanlight
p1224
aVshowed
p1225
aVexultation
p1226
aVface
p1227
aVheard
p1228
aVrumour
p1229
aVsaid
p1230
aVcab
p1231
aVdriven
p1232
aVleft
p1233
aVlower
p1234
aVburke
p1235
aVstreet
p1236
aVproved
p1237
aVline
p1238
aVfine
p1239
aVhouses
p1240
aVlying
p1241
aVvague
p1242
aVborderland
p1243
aVnotting
p1244
aVhill
p1245
aVkensington
p1246
aVparticular
p1247
aVone
p1248
aVcabman
p1249
aVpulled
p1250
aVair
p1251
aVsmug
p1252
aVdemure
p1253
aVrespectability
p1254
aVoldfashioned
p1255
aViron
p1256
aVrailings
p1257
aVmassive
p1258
aVfoldingdoor
p1259
aVshining
p1260
aVbrasswork
p1261
aVkeeping
p1262
aVsolemn
p1263
aVbutler
p1264
aVappeared
p1265
aVframed
p1266
aVpink
p1267
aVradiance
p1268
aVtinted
p1269
aVelectrical
p1270
aVlight
p1271
aVbehind
p1272
aVyes
p1273
aVmr
p1274
aVculverton
p1275
aVsmith
p1276
aVdr
p1277
aVwatson
p1278
aVgood
p1279
aVsir
p1280
aVtake
p1281
aVcard
p1282
aVhumble
p1283
aVname
p1284
aVtitle
p1285
aVappear
p1286
aVimpress
p1287
aVmr
p1288
aVculverton
p1289
aVsmith
p1290
aVhalfopen
p1291
aVdoor
p1292
aVheard
p1293
aVhigh
p1294
aVpetulant
p1295
aVpenetrating
p1296
aVvoice
p1297
aVperson
p1298
aVwant
p1299
aVdear
p1300
aVstaples
p1301
aVoften
p1302
aVsaid
p1303
aVdisturbed
p1304
aVhours
p1305
aVstudy
p1306
aVcame
p1307
aVgentle
p1308
aVflow
p1309
aVsoothing
p1310
aVexplanation
p1311
aVbutler
p1312
aVwell
p1313
aVwo
p1314
aVnt
p1315
aVsee
p1316
aVstaples
p1317
aVca
p1318
aVnt
p1319
aVwork
p1320
aVinterrupted
p1321
aVlike
p1322
aVhome
p1323
aVsay
p1324
aVtell
p1325
aVcome
p1326
aVmorning
p1327
aVreally
p1328
aVmust
p1329
aVsee
p1330
aVgentle
p1331
aVmurmur
p1332
aVwell
p1333
aVwell
p1334
aVgive
p1335
aVmessage
p1336
aVcome
p1337
aVmorning
p1338
aVstay
p1339
aVaway
p1340
aVwork
p1341
aVmust
p1342
aVhindered
p1343
aVthought
p1344
aVholmes
p1345
aVtossing
p1346
aVupon
p1347
aVbed
p1348
aVsickness
p1349
aVcounting
p1350
aVminutes
p1351
aVperhaps
p1352
aVcould
p1353
aVbring
p1354
aVhelp
p1355
aVtime
p1356
aVstand
p1357
aVupon
p1358
aVceremony
p1359
aVlife
p1360
aVdepended
p1361
aVupon
p1362
aVpromptness
p1363
aVapologetic
p1364
aVbutler
p1365
aVdelivered
p1366
aVmessage
p1367
aVpushed
p1368
aVpast
p1369
aVroom
p1370
aVshrill
p1371
aVcry
p1372
aVanger
p1373
aVman
p1374
aVrose
p1375
aVreclining
p1376
aVchair
p1377
aVbeside
p1378
aVfire
p1379
aVsaw
p1380
aVgreat
p1381
aVyellow
p1382
aVface
p1383
aVcoarsegrained
p1384
aVgreasy
p1385
aVheavy
p1386
aVdoublechin
p1387
aVtwo
p1388
aVsullen
p1389
aVmenacing
p1390
aVgray
p1391
aVeyes
p1392
aVglared
p1393
aVtufted
p1394
aVsandy
p1395
aVbrows
p1396
aVhigh
p1397
aVbald
p1398
aVhead
p1399
aVsmall
p1400
aVvelvet
p1401
aVsmokingcap
p1402
aVpoised
p1403
aVcoquettishly
p1404
aVupon
p1405
aVone
p1406
aVside
p1407
aVpink
p1408
aVcurve
p1409
aVskull
p1410
aVenormous
p1411
aVcapacity
p1412
aVyet
p1413
aVlooked
p1414
aVsaw
p1415
aVamazement
p1416
aVfigure
p1417
aVman
p1418
aVsmall
p1419
aVfrail
p1420
aVtwisted
p1421
aVshoulders
p1422
aVback
p1423
aVlike
p1424
aVone
p1425
aVsuffered
p1426
aVrickets
p1427
aVchildhood
p1428
aVcried
p1429
aVhigh
p1430
aVscreaming
p1431
aVvoice
p1432
aVmeaning
p1433
aVintrusion
p1434
aVnt
p1435
aVsend
p1436
aVword
p1437
aVwould
p1438
aVsee
p1439
aVtomorrow
p1440
aVmorning
p1441
aVsorry
p1442
aVsaid
p1443
aVmatter
p1444
aVdelayed
p1445
aVmr
p1446
aVsherlock
p1447
aVholmes
p1448
aVmention
p1449
aVfriend
p1450
aVname
p1451
aVextraordinary
p1452
aVeffect
p1453
aVupon
p1454
aVlittle
p1455
aVman
p1456
aVlook
p1457
aVanger
p1458
aVpassed
p1459
aVinstant
p1460
aVface
p1461
aVfeatures
p1462
aVbecame
p1463
aVtense
p1464
aValert
p1465
aVcome
p1466
aVholmes
p1467
aVasked
p1468
aVleft
p1469
aVholmes
p1470
aVdesperately
p1471
aVill
p1472
aVcome
p1473
aVman
p1474
aVmotioned
p1475
aVchair
p1476
aVturned
p1477
aVresume
p1478
aVcaught
p1479
aVglimpse
p1480
aVface
p1481
aVmirror
p1482
aVmantelpiece
p1483
aVcould
p1484
aVsworn
p1485
aVset
p1486
aVmalicious
p1487
aVabominable
p1488
aVsmile
p1489
aVyet
p1490
aVpersuaded
p1491
aVmust
p1492
aVnervous
p1493
aVcontraction
p1494
aVsurprised
p1495
aVturned
p1496
aVinstant
p1497
aVlater
p1498
aVgenuine
p1499
aVconcern
p1500
aVupon
p1501
aVfeatures
p1502
aVsorry
p1503
aVhear
p1504
aVsaid
p1505
aVknow
p1506
aVmr
p1507
aVholmes
p1508
aVbusiness
p1509
aVdealings
p1510
aVevery
p1511
aVrespect
p1512
aVtalents
p1513
aVcharacter
p1514
aVamateur
p1515
aVcrime
p1516
aVdisease
p1517
aVvillain
p1518
aVmicrobe
p1519
aVprisons
p1520
aVcontinued
p1521
aVpointing
p1522
aVrow
p1523
aVbottles
p1524
aVjars
p1525
aVstood
p1526
aVupon
p1527
aVside
p1528
aVtable
p1529
aVamong
p1530
aVgelatine
p1531
aVcultivations
p1532
aVworst
p1533
aVoffenders
p1534
aVworld
p1535
aVtime
p1536
aVaccount
p1537
aVspecial
p1538
aVknowledge
p1539
aVmr
p1540
aVholmes
p1541
aVdesired
p1542
aVsee
p1543
aVhigh
p1544
aVopinion
p1545
aVthought
p1546
aVone
p1547
aVman
p1548
aVlondon
p1549
aVcould
p1550
aVhelp
p1551
aVlittle
p1552
aVman
p1553
aVstarted
p1554
aVjaunty
p1555
aVsmokingcap
p1556
aVslid
p1557
aVfloor
p1558
aVasked
p1559
aVmr
p1560
aVhomes
p1561
aVthink
p1562
aVcould
p1563
aVhelp
p1564
aVtrouble
p1565
aVknowledge
p1566
aVeastern
p1567
aVdiseases
p1568
aVthink
p1569
aVdisease
p1570
aVcontracted
p1571
aVeastern
p1572
aVprofessional
p1573
aVinquiry
p1574
aVworking
p1575
aVamong
p1576
aVchinese
p1577
aVsailors
p1578
aVdocks
p1579
aVmr
p1580
aVculverton
p1581
aVsmith
p1582
aVsmiled
p1583
aVpleasantly
p1584
aVpicked
p1585
aVsmokingcap
p1586
aVoh
p1587
aVsaid
p1588
aVtrust
p1589
aVmatter
p1590
aVgrave
p1591
aVsuppose
p1592
aVlong
p1593
aVill
p1594
aVthree
p1595
aVdays
p1596
aVdelirious
p1597
aVoccasionally
p1598
aVtut
p1599
aVtut
p1600
aVsounds
p1601
aVserious
p1602
aVwould
p1603
aVinhuman
p1604
aVanswer
p1605
aVcall
p1606
aVmuch
p1607
aVresent
p1608
aVinterruption
p1609
aVwork
p1610
aVdr
p1611
aVwatson
p1612
aVcase
p1613
aVcertainly
p1614
aVexceptional
p1615
aVcome
p1616
aVremembered
p1617
aVholmes
p1618
aVinjunction
p1619
aVanother
p1620
aVappointment
p1621
aVsaid
p1622
aVgood
p1623
aVgo
p1624
aValone
p1625
aVnote
p1626
aVmr
p1627
aVholmes
p1628
aVaddress
p1629
aVrely
p1630
aVupon
p1631
aVwithin
p1632
aVhalf
p1633
aVhour
p1634
aVsinking
p1635
aVheart
p1636
aVreentered
p1637
aVholmes
p1638
aVbedroom
p1639
aVknew
p1640
aVworst
p1641
aVmight
p1642
aVhappened
p1643
aVabsence
p1644
aVenormous
p1645
aVrelief
p1646
aVimproved
p1647
aVgreatly
p1648
aVinterval
p1649
aVappearance
p1650
aVghastly
p1651
aVever
p1652
aVtrace
p1653
aVdelirium
p1654
aVleft
p1655
aVspoke
p1656
aVfeeble
p1657
aVvoice
p1658
aVtrue
p1659
aVeven
p1660
aVusual
p1661
aVcrispness
p1662
aVlucidity
p1663
aVwell
p1664
aVsee
p1665
aVwatson
p1666
aVyes
p1667
aVcoming
p1668
aVadmirable
p1669
aVwatson
p1670
aVadmirable
p1671
aVbest
p1672
aVmessengers
p1673
aVwished
p1674
aVreturn
p1675
aVwould
p1676
aVnever
p1677
aVwatson
p1678
aVwould
p1679
aVobviously
p1680
aVimpossible
p1681
aVask
p1682
aVailed
p1683
aVtold
p1684
aVchinese
p1685
aVeast
p1686
aVend
p1687
aVexactly
p1688
aVwell
p1689
aVwatson
p1690
aVdone
p1691
aVgood
p1692
aVfriend
p1693
aVcould
p1694
aVdisappear
p1695
aVscene
p1696
aVmust
p1697
aVwait
p1698
aVhear
p1699
aVopinion
p1700
aVholmes
p1701
aVcourse
p1702
aVmust
p1703
aVreasons
p1704
aVsuppose
p1705
aVopinion
p1706
aVwould
p1707
aVmuch
p1708
aVfrank
p1709
aVvaluable
p1710
aVimagines
p1711
aValone
p1712
aVroom
p1713
aVbehind
p1714
aVhead
p1715
aVbed
p1716
aVwatson
p1717
aVdear
p1718
aVholmes
p1719
aVfear
p1720
aValternative
p1721
aVwatson
p1722
aVroom
p1723
aVlend
p1724
aVconcealment
p1725
aVwell
p1726
aVless
p1727
aVlikely
p1728
aVarouse
p1729
aVsuspicion
p1730
aVwatson
p1731
aVfancy
p1732
aVcould
p1733
aVdone
p1734
aVsuddenly
p1735
aVsat
p1736
aVrigid
p1737
aVintentness
p1738
aVupon
p1739
aVhaggard
p1740
aVface
p1741
aVwheels
p1742
aVwatson
p1743
aVquick
p1744
aVman
p1745
aVlove
p1746
aVnt
p1747
aVbudge
p1748
aVwhatever
p1749
aVhappens
p1750
aVwhatever
p1751
aVhappens
p1752
aVhear
p1753
aVnt
p1754
aVspeak
p1755
aVnt
p1756
aVmove
p1757
aVlisten
p1758
aVears
p1759
aVinstant
p1760
aVsudden
p1761
aVaccess
p1762
aVstrength
p1763
aVdeparted
p1764
aVmasterful
p1765
aVpurposeful
p1766
aVtalk
p1767
aVdroned
p1768
aVaway
p1769
aVlow
p1770
aVvague
p1771
aVmurmurings
p1772
aVsemidelirious
p1773
aVman
p1774
aVhidingplace
p1775
aVswiftly
p1776
aVhustled
p1777
aVheard
p1778
aVfootfalls
p1779
aVupon
p1780
aVstair
p1781
aVopening
p1782
aVclosing
p1783
aVbedroom
p1784
aVdoor
p1785
aVsurprise
p1786
aVcame
p1787
aVlong
p1788
aVsilence
p1789
aVbroken
p1790
aVheavy
p1791
aVbreathings
p1792
aVgaspings
p1793
aVsick
p1794
aVman
p1795
aVcould
p1796
aVimagine
p1797
aVvisitor
p1798
aVstanding
p1799
aVbedside
p1800
aVlooking
p1801
aVsufferer
p1802
aVlast
p1803
aVstrange
p1804
aVhush
p1805
aVbroken
p1806
aVholmes
p1807
aVcried
p1808
aVholmes
p1809
aVinsistent
p1810
aVtone
p1811
aVone
p1812
aVawakens
p1813
aVsleeper
p1814
aVca
p1815
aVnt
p1816
aVhear
p1817
aVholmes
p1818
aVrustling
p1819
aVshaken
p1820
aVsick
p1821
aVman
p1822
aVroughly
p1823
aVshoulder
p1824
aVmr
p1825
aVsmith
p1826
aVholmes
p1827
aVwhispered
p1828
aVhardly
p1829
aVdared
p1830
aVhope
p1831
aVwould
p1832
aVcome
p1833
aVlaughed
p1834
aVimagine
p1835
aVsaid
p1836
aVyet
p1837
aVsee
p1838
aVcoals
p1839
aVfire
p1840
aVholmes
p1841
aVcoals
p1842
aVfire
p1843
aVgood
p1844
aVnoble
p1845
aVappreciate
p1846
aVspecial
p1847
aVknowledge
p1848
aVvisitor
p1849
aVsniggered
p1850
aVfortunately
p1851
aVman
p1852
aVlondon
p1853
aVknow
p1854
aVmatter
p1855
aVsaid
p1856
aVholmes
p1857
aVah
p1858
aVrecognize
p1859
aVsymptoms
p1860
aVwell
p1861
aVwell
p1862
aVnt
p1863
aVsurprised
p1864
aVholmes
p1865
aVnt
p1866
aVsurprised
p1867
aVbad
p1868
aVlookout
p1869
aVpoor
p1870
aVvictor
p1871
aVdead
p1872
aVman
p1873
aVfourth
p1874
aVday
p1875
aVstrong
p1876
aVhearty
p1877
aVyoung
p1878
aVfellow
p1879
aVcertainly
p1880
aVsaid
p1881
aVsurprising
p1882
aVcontracted
p1883
aVoutoftheway
p1884
aVasiatic
p1885
aVdisease
p1886
aVheart
p1887
aVlondon
p1888
aVdisease
p1889
aVmade
p1890
aVspecial
p1891
aVstudy
p1892
aVsingular
p1893
aVcoincidence
p1894
aVholmes
p1895
aVsmart
p1896
aVnotice
p1897
aVrather
p1898
aVuncharitable
p1899
aVsuggest
p1900
aVcause
p1901
aVeffect
p1902
aVknew
p1903
aVoh
p1904
aVwell
p1905
aVcould
p1906
aVnt
p1907
aVprove
p1908
aVanyhow
p1909
aVthink
p1910
aVspreading
p1911
aVreports
p1912
aVlike
p1913
aVcrawling
p1914
aVhelp
p1915
aVmoment
p1916
aVtrouble
p1917
aVsort
p1918
aVgame
p1919
aVeh
p1920
aVheard
p1921
aVrasping
p1922
aVlaboured
p1923
aVbreathing
p1924
aVsick
p1925
aVman
p1926
aVgive
p1927
aVwater
p1928
aVgasped
p1929
aVre
p1930
aVprecious
p1931
aVnear
p1932
aVend
p1933
aVfriend
p1934
aVnt
p1935
aVwant
p1936
aVgo
p1937
aVtill
p1938
aVword
p1939
aVgive
p1940
aVwater
p1941
aVnt
p1942
aVslop
p1943
aVright
p1944
aVunderstand
p1945
aVsay
p1946
aVholmes
p1947
aVgroaned
p1948
aVlet
p1949
aVbygones
p1950
aVbygones
p1951
aVwhispered
p1952
aVll
p1953
aVput
p1954
aVwords
p1955
aVhead
p1956
aVswear
p1957
aVcure
p1958
aVll
p1959
aVforget
p1960
aVforget
p1961
aVwell
p1962
aVvictor
p1963
aVsavage
p1964
aVdeath
p1965
aVgood
p1966
aVadmitted
p1967
aVdone
p1968
aVll
p1969
aVforget
p1970
aVforget
p1971
aVremember
p1972
aVlike
p1973
aVnt
p1974
aVsee
p1975
aVwitnessbox
p1976
aVquite
p1977
aVanother
p1978
aVshaped
p1979
aVbox
p1980
aVgood
p1981
aVholmes
p1982
aVassure
p1983
aVmatters
p1984
aVnothing
p1985
aVknow
p1986
aVnephew
p1987
aVdied
p1988
aVtalking
p1989
aVyes
p1990
aVyes
p1991
aVfellow
p1992
aVcame
p1993
aVve
p1994
aVforgotten
p1995
aVname
p1996
aVsaid
p1997
aVcontracted
p1998
aVeast
p1999
aVend
p2000
aVamong
p2001
aVsailors
p2002
aVcould
p2003
aVaccount
p2004
aVproud
p2005
aVbrains
p2006
aVholmes
p2007
aVthink
p2008
aVsmart
p2009
aVnt
p2010
aVcame
p2011
aVacross
p2012
aVsomeone
p2013
aVsmarter
p2014
aVtime
p2015
aVcast
p2016
aVmind
p2017
aVback
p2018
aVholmes
p2019
aVthink
p2020
aVway
p2021
aVcould
p2022
aVgot
p2023
aVthing
p2024
aVca
p2025
aVnt
p2026
aVthink
p2027
aVmind
p2028
aVgone
p2029
aVheaven
p2030
aVsake
p2031
aVhelp
p2032
aVyes
p2033
aVhelp
p2034
aVll
p2035
aVhelp
p2036
aVunderstand
p2037
aVgot
p2038
aVd
aVlike
p2039
aVknow
p2040
aVdie
p2041
aVgive
p2042
aVsomething
p2043
aVease
p2044
aVpain
p2045
aVpainful
p2046
aVyes
p2047
aVcoolies
p2048
aVused
p2049
aVsquealing
p2050
aVtowards
p2051
aVend
p2052
aVtakes
p2053
aVcramp
p2054
aVfancy
p2055
aVyes
p2056
aVyes
p2057
aVcramp
p2058
aVwell
p2059
aVhear
p2060
aVsay
p2061
aVanyhow
p2062
aVlisten
p2063
aVremember
p2064
aVunusual
p2065
aVincident
p2066
aVlife
p2067
aVtime
p2068
aVsymptoms
p2069
aVbegan
p2070
aVnothing
p2071
aVthink
p2072
aVm
aVill
p2073
aVthink
p2074
aVwell
p2075
aVll
p2076
aVhelp
p2077
aVanything
p2078
aVcome
p2079
aVpost
p2080
aVpost
p2081
aVbox
p2082
aVchance
p2083
aVm
aVfainting
p2084
aVm
aVgone
p2085
aVlisten
p2086
aVholmes
p2087
aVsound
p2088
aVshaking
p2089
aVdying
p2090
aVman
p2091
aVcould
p2092
aVhold
p2093
aVquiet
p2094
aVhidingplace
p2095
aVmust
p2096
aVhear
p2097
aVshall
p2098
aVhear
p2099
aVremember
p2100
aVbox
p2101
aVivory
p2102
aVbox
p2103
aVcame
p2104
aVwednesday
p2105
aVopened
p2106
aVremember
p2107
aVyes
p2108
aVyes
p2109
aVopened
p2110
aVsharp
p2111
aVspring
p2112
aVinside
p2113
aVjoke
p2114
aVjoke
p2115
aVfind
p2116
aVcost
p2117
aVfool
p2118
aVwould
p2119
aVgot
p2120
aVasked
p2121
aVcross
p2122
aVpath
p2123
aVleft
p2124
aValone
p2125
aVwould
p2126
aVhurt
p2127
aVremember
p2128
aVholmes
p2129
aVgasped
p2130
aVspring
p2131
aVdrew
p2132
aVblood
p2133
aVbox
p2134
aVtable
p2135
aVone
p2136
aVgeorge
p2137
aVmay
p2138
aVwell
p2139
aVleave
p2140
aVroom
p2141
aVpocket
p2142
aVgoes
p2143
aVlast
p2144
aVshred
p2145
aVevidence
p2146
aVtruth
p2147
aVholmes
p2148
aVdie
p2149
aVknowledge
p2150
aVkilled
p2151
aVknew
p2152
aVmuch
p2153
aVfate
p2154
aVvictor
p2155
aVsavage
p2156
aVsent
p2157
aVshare
p2158
aVnear
p2159
aVend
p2160
aVholmes
p2161
aVsit
p2162
aVwatch
p2163
aVdie
p2164
aVholmes
p2165
aVvoice
p2166
aVsunk
p2167
aValmost
p2168
aVinaudible
p2169
aVwhisper
p2170
aVsaid
p2171
aVsmith
p2172
aVturn
p2173
aVgas
p2174
aVah
p2175
aVshadows
p2176
aVbegin
p2177
aVfall
p2178
aVyes
p2179
aVturn
p2180
aVmay
p2181
aVsee
p2182
aVbetter
p2183
aVcrossed
p2184
aVroom
p2185
aVlight
p2186
aVsuddenly
p2187
aVbrightened
p2188
aVlittle
p2189
aVservice
p2190
aVfriend
p2191
aVmatch
p2192
aVcigarette
p2193
aVnearly
p2194
aVcalled
p2195
aVjoy
p2196
aVamazement
p2197
aVspeaking
p2198
aVnatural
p2199
aVvoice
p2200
aVlittle
p2201
aVweak
p2202
aVperhaps
p2203
aVvoice
p2204
aVknew
p2205
aVlong
p2206
aVpause
p2207
aVfelt
p2208
aVculverton
p2209
aVsmith
p2210
aVstanding
p2211
aVsilent
p2212
aVamazement
p2213
aVlooking
p2214
aVcompanion
p2215
aVmeaning
p2216
aVheard
p2217
aVsay
p2218
aVlast
p2219
aVdry
p2220
aVrasping
p2221
aVtone
p2222
aVbest
p2223
aVway
p2224
aVsuccessfully
p2225
aVacting
p2226
aVpart
p2227
aVsaid
p2228
aVholmes
p2229
aVgive
p2230
aVword
p2231
aVthree
p2232
aVdays
p2233
aVtasted
p2234
aVneither
p2235
aVfood
p2236
aVdrink
p2237
aVgood
p2238
aVenough
p2239
aVpour
p2240
aVglass
p2241
aVwater
p2242
aVtobacco
p2243
aVfind
p2244
aVirksome
p2245
aVah
p2246
aVcigarettes
p2247
aVheard
p2248
aVstriking
p2249
aVmatch
p2250
aVmuch
p2251
aVbetter
p2252
aVhalloa
p2253
aVhalloa
p2254
aVhear
p2255
aVstep
p2256
aVfriend
p2257
aVfootfalls
p2258
aVoutside
p2259
aVdoor
p2260
aVopened
p2261
aVinspector
p2262
aVmorton
p2263
aVappeared
p2264
aVorder
p2265
aVman
p2266
aVsaid
p2267
aVholmes
p2268
aVofficer
p2269
aVgave
p2270
aVusual
p2271
aVcautions
p2272
aVarrest
p2273
aVcharge
p2274
aVmurder
p2275
aVone
p2276
aVvictor
p2277
aVsavage
p2278
aVconcluded
p2279
aVmight
p2280
aVadd
p2281
aVattempted
p2282
aVmurder
p2283
aVone
p2284
aVsherlock
p2285
aVholmes
p2286
aVremarked
p2287
aVfriend
p2288
aVchuckle
p2289
aVsave
p2290
aVinvalid
p2291
aVtrouble
p2292
aVinspector
p2293
aVmr
p2294
aVculverton
p2295
aVsmith
p2296
aVgood
p2297
aVenough
p2298
aVgive
p2299
aVsignal
p2300
aVturning
p2301
aVgas
p2302
aVway
p2303
aVprisoner
p2304
aVsmall
p2305
aVbox
p2306
aVrighthand
p2307
aVpocket
p2308
aVcoat
p2309
aVwould
p2310
aVwell
p2311
aVremove
p2312
aVthank
p2313
aVwould
p2314
aVhandle
p2315
aVgingerly
p2316
aVput
p2317
aVmay
p2318
aVplay
p2319
aVpart
p2320
aVtrial
p2321
aVsudden
p2322
aVrush
p2323
aVscuffle
p2324
aVfollowed
p2325
aVclash
p2326
aViron
p2327
aVcry
p2328
aVpain
p2329
aVll
p2330
aVget
p2331
aVhurt
p2332
aVsaid
p2333
aVinspector
p2334
aVstand
p2335
aVstill
p2336
aVclick
p2337
aVclosing
p2338
aVhandcuffs
p2339
aVnice
p2340
aVtrap
p2341
aVcried
p2342
aVhigh
p2343
aVsnarling
p2344
aVvoice
p2345
aVbring
p2346
aVdock
p2347
aVholmes
p2348
aVasked
p2349
aVcome
p2350
aVcure
p2351
aVsorry
p2352
aVcame
p2353
aVpretend
p2354
aVdoubt
p2355
aVsaid
p2356
aVanything
p2357
aVmay
p2358
aVinvent
p2359
aVcorroborate
p2360
aVinsane
p2361
aVsuspicions
p2362
aVlie
p2363
aVlike
p2364
aVholmes
p2365
aVword
p2366
aValways
p2367
aVgood
p2368
aVgood
p2369
aVheavens
p2370
aVcried
p2371
aVholmes
p2372
aVtotally
p2373
aVforgotten
p2374
aVdear
p2375
aVwatson
p2376
aVowe
p2377
aVthousand
p2378
aVapologies
p2379
aVthink
p2380
aVoverlooked
p2381
aVneed
p2382
aVintroduce
p2383
aVmr
p2384
aVculverton
p2385
aVsmith
p2386
aVsince
p2387
aVunderstand
p2388
aVmet
p2389
aVsomewhat
p2390
aVearlier
p2391
aVevening
p2392
aVcab
p2393
aVfollow
p2394
aVdressed
p2395
aVmay
p2396
aVuse
p2397
aVstation
p2398
aVnever
p2399
aVneeded
p2400
aVsaid
p2401
aVholmes
p2402
aVrefreshed
p2403
aVglass
p2404
aVclaret
p2405
aVbiscuits
p2406
aVintervals
p2407
aVtoilet
p2408
aVhowever
p2409
aVknow
p2410
aVhabits
p2411
aVirregular
p2412
aVfeat
p2413
aVmeans
p2414
aVless
p2415
aVmen
p2416
aVessential
p2417
aVimpress
p2418
aVmrs
p2419
aVhudson
p2420
aVreality
p2421
aVcondition
p2422
aVsince
p2423
aVconvey
p2424
aVturn
p2425
aVwo
p2426
aVnt
p2427
aVoffended
p2428
aVwatson
p2429
aVrealize
p2430
aVamong
p2431
aVmany
p2432
aVtalents
p2433
aVdissimulation
p2434
aVfinds
p2435
aVplace
p2436
aVshared
p2437
aVsecret
p2438
aVwould
p2439
aVnever
p2440
aVable
p2441
aVimpress
p2442
aVsmith
p2443
aVurgent
p2444
aVnecessity
p2445
aVpresence
p2446
aVvital
p2447
aVpoint
p2448
aVwhole
p2449
aVscheme
p2450
aVknowing
p2451
aVvindictive
p2452
aVnature
p2453
aVperfectly
p2454
aVcertain
p2455
aVwould
p2456
aVcome
p2457
aVlook
p2458
aVupon
p2459
aVhandiwork
p2460
aVappearance
p2461
aVholmes
p2462
aVghastly
p2463
aVface
p2464
aVthree
p2465
aVdays
p2466
aVabsolute
p2467
aVfast
p2468
aVimprove
p2469
aVone
p2470
aVbeauty
p2471
aVwatson
p2472
aVrest
p2473
aVnothing
p2474
aVsponge
p2475
aVmay
p2476
aVcure
p2477
aVvaseline
p2478
aVupon
p2479
aVone
p2480
aVforehead
p2481
aVbelladonna
p2482
aVone
p2483
aVeyes
p2484
aVrouge
p2485
aVcheekbones
p2486
aVcrusts
p2487
aVbeeswax
p2488
aVround
p2489
aVone
p2490
aVlips
p2491
aVsatisfying
p2492
aVeffect
p2493
aVproduced
p2494
aVmalingering
p2495
aVsubject
p2496
aVupon
p2497
aVsometimes
p2498
aVthought
p2499
aVwriting
p2500
aVmonograph
p2501
aVlittle
p2502
aVoccasional
p2503
aVtalk
p2504
aVhalfcrowns
p2505
aVoysters
p2506
aVextraneous
p2507
aVsubject
p2508
aVproduces
p2509
aVpleasing
p2510
aVeffect
p2511
aVdelirium
p2512
aVwould
p2513
aVlet
p2514
aVnear
p2515
aVsince
p2516
aVtruth
p2517
aVinfection
p2518
aVask
p2519
aVdear
p2520
aVwatson
p2521
aVimagine
p2522
aVrespect
p2523
aVmedical
p2524
aVtalents
p2525
aVcould
p2526
aVfancy
p2527
aVastute
p2528
aVjudgment
p2529
aVwould
p2530
aVpass
p2531
aVdying
p2532
aVman
p2533
aVhowever
p2534
aVweak
p2535
aVrise
p2536
aVpulse
p2537
aVtemperature
p2538
aVfour
p2539
aVyards
p2540
aVcould
p2541
aVdeceive
p2542
aVfailed
p2543
aVwould
p2544
aVbring
p2545
aVsmith
p2546
aVwithin
p2547
aVgrasp
p2548
aVwatson
p2549
aVwould
p2550
aVtouch
p2551
aVbox
p2552
aVsee
p2553
aVlook
p2554
aVsideways
p2555
aVsharp
p2556
aVspring
p2557
aVlike
p2558
aVviper
p2559
aVtooth
p2560
aVemerges
p2561
aVopen
p2562
aVdare
p2563
aVsay
p2564
aVdevice
p2565
aVpoor
p2566
aVsavage
p2567
aVstood
p2568
aVmonster
p2569
aVreversion
p2570
aVdone
p2571
aVdeath
p2572
aVcorrespondence
p2573
aVhowever
p2574
aVknow
p2575
aVvaried
p2576
aVone
p2577
aVsomewhat
p2578
aVupon
p2579
aVguard
p2580
aVpackages
p2581
aVreach
p2582
aVclear
p2583
aVhowever
p2584
aVpretending
p2585
aVreally
p2586
aVsucceeded
p2587
aVdesign
p2588
aVmight
p2589
aVsurprise
p2590
aVconfession
p2591
aVpretence
p2592
aVcarried
p2593
aVthoroughness
p2594
aVtrue
p2595
aVartist
p2596
aVthank
p2597
aVwatson
p2598
aVmust
p2599
aVhelp
p2600
aVcoat
p2601
aVfinished
p2602
aVpolicestation
p2603
aVthink
p2604
aVsomething
p2605
aVnutritious
p2606
aVsimpson
p2607
aVwould
p2608
aVplace
p2609
a.