(lp1
Vadventure
p2
aVdevil
p3
aVfoot
p4
aVsir
p5
aVarthur
p6
aVconan
p7
aVdoyle
p8
aVrecording
p9
aVtime
p10
aVtime
p11
aVcurious
p12
aVexperiences
p13
aVinteresting
p14
aVrecollections
p15
aVassociate
p16
aVlong
p17
aVintimate
p18
aVfriendship
p19
aVmr
p20
aVsherlock
p21
aVholmes
p22
aVcontinually
p23
aVfaced
p24
aVdifficulties
p25
aVcaused
p26
aVaversion
p27
aVpublicity
p28
aVsombre
p29
aVcynical
p30
aVspirit
p31
aVpopular
p32
aVapplause
p33
aValways
p34
aVabhorrent
p35
aVnothing
p36
aVamused
p37
aVend
p38
aVsuccessful
p39
aVcase
p40
aVhand
p41
aVactual
p42
aVexposure
p43
aVorthodox
p44
aVofficial
p45
aVlisten
p46
aVmocking
p47
aVsmile
p48
aVgeneral
p49
aVchorus
p50
aVmisplaced
p51
aVcongratulation
p52
aVindeed
p53
aVattitude
p54
aVupon
p55
aVpart
p56
aVfriend
p57
aVcertainly
p58
aVlack
p59
aVinteresting
p60
aVmaterial
p61
aVcaused
p62
aVlate
p63
aVyears
p64
aVlay
p65
aVrecords
p66
aVpublic
p67
aVparticipation
p68
aVadventures
p69
aValways
p70
aVprivilege
p71
aVentailed
p72
aVdiscretion
p73
aVreticence
p74
aVupon
p75
aVconsiderable
p76
aVsurprise
p77
aVreceived
p78
aVtelegram
p79
aVholmes
p80
aVlast
p81
aVtuesday
p82
aVnever
p83
aVknown
p84
aVwrite
p85
aVtelegram
p86
aVwould
p87
aVserve
p88
aVfollowing
p89
aVterms
p90
aVtell
p91
aVcornish
p92
aVhorror
p93
aVstrangest
p94
aVcase
p95
aVhandled
p96
aVidea
p97
aVbackward
p98
aVsweep
p99
aVmemory
p100
aVbrought
p101
aVmatter
p102
aVfresh
p103
aVmind
p104
aVfreak
p105
aVcaused
p106
aVdesire
p107
aVrecount
p108
aVhasten
p109
aVanother
p110
aVcancelling
p111
aVtelegram
p112
aVmay
p113
aVarrive
p114
aVhunt
p115
aVnotes
p116
aVgive
p117
aVexact
p118
aVdetails
p119
aVcase
p120
aVlay
p121
aVnarrative
p122
aVreaders
p123
aVspring
p124
aVyear
p125
aVholmes
p126
aViron
p127
aVconstitution
p128
aVshowed
p129
aVsymptoms
p130
aVgiving
p131
aVway
p132
aVface
p133
aVconstant
p134
aVhard
p135
aVwork
p136
aVexacting
p137
aVkind
p138
aVaggravated
p139
aVperhaps
p140
aVoccasional
p141
aVindiscretions
p142
aVmarch
p143
aVyear
p144
aVdr
p145
aVmoore
p146
aVagar
p147
aVharley
p148
aVstreet
p149
aVwhose
p150
aVdramatic
p151
aVintroduction
p152
aVholmes
p153
aVmay
p154
aVday
p155
aVrecount
p156
aVgave
p157
aVpositive
p158
aVinjunctions
p159
aVfamous
p160
aVprivate
p161
aVagent
p162
aVlay
p163
aVaside
p164
aVcases
p165
aVsurrender
p166
aVcomplete
p167
aVrest
p168
aVwished
p169
aVavert
p170
aVabsolute
p171
aVbreakdown
p172
aVstate
p173
aVhealth
p174
aVmatter
p175
aVtook
p176
aVfaintest
p177
aVinterest
p178
aVmental
p179
aVdetachment
p180
aVabsolute
p181
aVinduced
p182
aVlast
p183
aVthreat
p184
aVpermanently
p185
aVdisqualified
p186
aVwork
p187
aVgive
p188
aVcomplete
p189
aVchange
p190
aVscene
p191
aVair
p192
aVthus
p193
aVearly
p194
aVspring
p195
aVyear
p196
aVfound
p197
aVtogether
p198
aVsmall
p199
aVcottage
p200
aVnear
p201
aVpoldhu
p202
aVbay
p203
aVextremity
p204
aVcornish
p205
aVpeninsula
p206
aVsingular
p207
aVspot
p208
aVone
p209
aVpeculiarly
p210
aVwell
p211
aVsuited
p212
aVgrim
p213
aVhumour
p214
aVpatient
p215
aVwindows
p216
aVlittle
p217
aVwhitewashed
p218
aVhouse
p219
aVstood
p220
aVhigh
p221
aVupon
p222
aVgrassy
p223
aVheadland
p224
aVlooked
p225
aVupon
p226
aVwhole
p227
aVsinister
p228
aVsemicircle
p229
aVmounts
p230
aVbay
p231
aVold
p232
aVdeath
p233
aVtrap
p234
aVsailing
p235
aVvessels
p236
aVfringe
p237
aVblack
p238
aVcliffs
p239
aVsurgeswept
p240
aVreefs
p241
aVinnumerable
p242
aVseamen
p243
aVmet
p244
aVend
p245
aVnortherly
p246
aVbreeze
p247
aVlies
p248
aVplacid
p249
aVsheltered
p250
aVinviting
p251
aVstormtossed
p252
aVcraft
p253
aVtack
p254
aVrest
p255
aVprotection
p256
aVcome
p257
aVsudden
p258
aVswirl
p259
aVround
p260
aVwind
p261
aVblistering
p262
aVgale
p263
aVsouthwest
p264
aVdragging
p265
aVanchor
p266
aVlee
p267
aVshore
p268
aVlast
p269
aVbattle
p270
aVcreaming
p271
aVbreakers
p272
aVwise
p273
aVmariner
p274
aVstands
p275
aVfar
p276
aVevil
p277
aVplace
p278
aVland
p279
aVside
p280
aVsurroundings
p281
aVsombre
p282
aVsea
p283
aVcountry
p284
aVrolling
p285
aVmoors
p286
aVlonely
p287
aVduncolored
p288
aVoccasional
p289
aVchurch
p290
aVtower
p291
aVmark
p292
aVsite
p293
aVoldworld
p294
aVvillage
p295
aVevery
p296
aVdirection
p297
aVupon
p298
aVmoors
p299
aVtraces
p300
aVvanished
p301
aVrace
p302
aVpassed
p303
aVutterly
p304
aVaway
p305
aVleft
p306
aVsole
p307
aVrecord
p308
aVstrange
p309
aVmonuments
p310
aVstone
p311
aVirregular
p312
aVmounds
p313
aVcontained
p314
aVburned
p315
aVashes
p316
aVdead
p317
aVcurious
p318
aVearthworks
p319
aVhinted
p320
aVprehistoric
p321
aVstrife
p322
aVglamour
p323
aVmystery
p324
aVplace
p325
aVsinister
p326
aVatmosphere
p327
aVforgotten
p328
aVnations
p329
aVappealed
p330
aVimagination
p331
aVfriend
p332
aVspent
p333
aVmuch
p334
aVtime
p335
aVlong
p336
aVwalks
p337
aVsolitary
p338
aVmeditations
p339
aVupon
p340
aVmoor
p341
aVancient
p342
aVcornish
p343
aVlanguage
p344
aValso
p345
aVarrested
p346
aVattention
p347
aVremember
p348
aVconceived
p349
aVidea
p350
aVakin
p351
aVchaldean
p352
aVlargely
p353
aVderived
p354
aVphoenician
p355
aVtraders
p356
aVtin
p357
aVreceived
p358
aVconsignment
p359
aVbooks
p360
aVupon
p361
aVphilology
p362
aVsettling
p363
aVdevelop
p364
aVthesis
p365
aVsuddenly
p366
aVsorrow
p367
aVunfeigned
p368
aVdelight
p369
aVfound
p370
aVeven
p371
aVland
p372
aVdreams
p373
aVplunged
p374
aVproblem
p375
aVdoors
p376
aVintense
p377
aVengrossing
p378
aVinfinitely
p379
aVmysterious
p380
aVdriven
p381
aVus
p382
aVlondon
p383
aVsimple
p384
aVlife
p385
aVpeaceful
p386
aVhealthy
p387
aVroutine
p388
aVviolently
p389
aVinterrupted
p390
aVprecipitated
p391
aVmidst
p392
aVseries
p393
aVevents
p394
aVcaused
p395
aVutmost
p396
aVexcitement
p397
aVcornwall
p398
aVthroughout
p399
aVwhole
p400
aVwest
p401
aVengland
p402
aVmany
p403
aVreaders
p404
aVmay
p405
aVretain
p406
aVrecollection
p407
aVcalled
p408
aVtime
p409
aVcornish
p410
aVhorror
p411
aVthough
p412
aVimperfect
p413
aVaccount
p414
aVmatter
p415
aVreached
p416
aVlondon
p417
aVpress
p418
aVthirteen
p419
aVyears
p420
aVgive
p421
aVtrue
p422
aVdetails
p423
aVinconceivable
p424
aVaffair
p425
aVpublic
p426
aVsaid
p427
aVscattered
p428
aVtowers
p429
aVmarked
p430
aVvillages
p431
aVdotted
p432
aVpart
p433
aVcornwall
p434
aVnearest
p435
aVhamlet
p436
aVtredannick
p437
aVwollas
p438
aVcottages
p439
aVcouple
p440
aVhundred
p441
aVinhabitants
p442
aVclustered
p443
aVround
p444
aVancient
p445
aVmossgrown
p446
aVchurch
p447
aVvicar
p448
aVparish
p449
aVmr
p450
aVroundhay
p451
aVsomething
p452
aVarchaeologist
p453
aVholmes
p454
aVmade
p455
aVacquaintance
p456
aVmiddleaged
p457
aVman
p458
aVportly
p459
aVaffable
p460
aVconsiderable
p461
aVfund
p462
aVlocal
p463
aVlore
p464
aVinvitation
p465
aVtaken
p466
aVtea
p467
aVvicarage
p468
aVcome
p469
aVknow
p470
aValso
p471
aVmr
p472
aVmortimer
p473
aVtregennis
p474
aVindependent
p475
aVgentleman
p476
aVincreased
p477
aVclergyman
p478
aVscanty
p479
aVresources
p480
aVtaking
p481
aVrooms
p482
aVlarge
p483
aVstraggling
p484
aVhouse
p485
aVvicar
p486
aVbachelor
p487
aVglad
p488
aVcome
p489
aVarrangement
p490
aVthough
p491
aVlittle
p492
aVcommon
p493
aVlodger
p494
aVthin
p495
aVdark
p496
aVspectacled
p497
aVman
p498
aVstoop
p499
aVgave
p500
aVimpression
p501
aVactual
p502
aVphysical
p503
aVdeformity
p504
aVremember
p505
aVshort
p506
aVvisit
p507
aVfound
p508
aVvicar
p509
aVgarrulous
p510
aVlodger
p511
aVstrangely
p512
aVreticent
p513
aVsadfaced
p514
aVintrospective
p515
aVman
p516
aVsitting
p517
aVaverted
p518
aVeyes
p519
aVbrooding
p520
aVapparently
p521
aVupon
p522
aVaffairs
p523
aVtwo
p524
aVmen
p525
aVentered
p526
aVabruptly
p527
aVlittle
p528
aVsittingroom
p529
aVtuesday
p530
aVmarch
p531
aVth
p532
aVshortly
p533
aVbreakfast
p534
aVhour
p535
aVsmoking
p536
aVtogether
p537
aVpreparatory
p538
aVdaily
p539
aVexcursion
p540
aVupon
p541
aVmoors
p542
aVmr
p543
aVholmes
p544
aVsaid
p545
aVvicar
p546
aVagitated
p547
aVvoice
p548
aVextraordinary
p549
aVtragic
p550
aVaffair
p551
aVoccurred
p552
aVnight
p553
aVunheardof
p554
aVbusiness
p555
aVregard
p556
aVspecial
p557
aVprovidence
p558
aVchance
p559
aVtime
p560
aVengland
p561
aVone
p562
aVman
p563
aVneed
p564
aVglared
p565
aVintrusive
p566
aVvicar
p567
aVfriendly
p568
aVeyes
p569
aVholmes
p570
aVtook
p571
aVpipe
p572
aVlips
p573
aVsat
p574
aVchair
p575
aVlike
p576
aVold
p577
aVhound
p578
aVhears
p579
aVviewhalloa
p580
aVwaved
p581
aVhand
p582
aVsofa
p583
aVpalpitating
p584
aVvisitor
p585
aVagitated
p586
aVcompanion
p587
aVsat
p588
aVside
p589
aVside
p590
aVupon
p591
aVmr
p592
aVmortimer
p593
aVtregennis
p594
aVselfcontained
p595
aVclergyman
p596
aVtwitching
p597
aVthin
p598
aVhands
p599
aVbrightness
p600
aVdark
p601
aVeyes
p602
aVshowed
p603
aVshared
p604
aVcommon
p605
aVemotion
p606
aVshall
p607
aVspeak
p608
aVasked
p609
aVvicar
p610
aVwell
p611
aVseem
p612
aVmade
p613
aVdiscovery
p614
aVwhatever
p615
aVmay
p616
aVvicar
p617
aVsecondhand
p618
aVperhaps
p619
aVbetter
p620
aVspeaking
p621
aVsaid
p622
aVholmes
p623
aVglanced
p624
aVhastily
p625
aVclad
p626
aVclergyman
p627
aVformally
p628
aVdressed
p629
aVlodger
p630
aVseated
p631
aVbeside
p632
aVamused
p633
aVsurprise
p634
aVholmes
p635
aVsimple
p636
aVdeduction
p637
aVbrought
p638
aVfaces
p639
aVperhaps
p640
aVbest
p641
aVsay
p642
aVwords
p643
aVfirst
p644
aVsaid
p645
aVvicar
p646
aVjudge
p647
aVlisten
p648
aVdetails
p649
aVmr
p650
aVtregennis
p651
aVwhether
p652
aVhasten
p653
aVscene
p654
aVmysterious
p655
aVaffair
p656
aVmay
p657
aVexplain
p658
aVfriend
p659
aVspent
p660
aVlast
p661
aVevening
p662
aVcompany
p663
aVtwo
p664
aVbrothers
p665
aVowen
p666
aVgeorge
p667
aVsister
p668
aVbrenda
p669
aVhouse
p670
aVtredannick
p671
aVwartha
p672
aVnear
p673
aVold
p674
aVstone
p675
aVcross
p676
aVupon
p677
aVmoor
p678
aVleft
p679
aVshortly
p680
aVten
p681
aVoclock
p682
aVplaying
p683
aVcards
p684
aVround
p685
aVdiningroom
p686
aVtable
p687
aVexcellent
p688
aVhealth
p689
aVspirits
p690
aVmorning
p691
aVearly
p692
aVriser
p693
aVwalked
p694
aVdirection
p695
aVbreakfast
p696
aVovertaken
p697
aVcarriage
p698
aVdr
p699
aVrichards
p700
aVexplained
p701
aVsent
p702
aVurgent
p703
aVcall
p704
aVtredannick
p705
aVwartha
p706
aVmr
p707
aVmortimer
p708
aVtregennis
p709
aVnaturally
p710
aVwent
p711
aVarrived
p712
aVtredannick
p713
aVwartha
p714
aVfound
p715
aVextraordinary
p716
aVstate
p717
aVthings
p718
aVtwo
p719
aVbrothers
p720
aVsister
p721
aVseated
p722
aVround
p723
aVtable
p724
aVexactly
p725
aVleft
p726
aVcards
p727
aVstill
p728
aVspread
p729
aVfront
p730
aVcandles
p731
aVburned
p732
aVsockets
p733
aVsister
p734
aVlay
p735
aVback
p736
aVstonedead
p737
aVchair
p738
aVtwo
p739
aVbrothers
p740
aVsat
p741
aVside
p742
aVlaughing
p743
aVshouting
p744
aVsinging
p745
aVsenses
p746
aVstricken
p747
aVclean
p748
aVthree
p749
aVdead
p750
aVwoman
p751
aVtwo
p752
aVdemented
p753
aVmen
p754
aVretained
p755
aVupon
p756
aVfaces
p757
aVexpression
p758
aVutmost
p759
aVhorror
p760
aVconvulsion
p761
aVterror
p762
aVdreadful
p763
aVlook
p764
aVupon
p765
aVsign
p766
aVpresence
p767
aVanyone
p768
aVhouse
p769
aVexcept
p770
aVmrs
p771
aVporter
p772
aVold
p773
aVcook
p774
aVhousekeeper
p775
aVdeclared
p776
aVslept
p777
aVdeeply
p778
aVheard
p779
aVsound
p780
aVnight
p781
aVnothing
p782
aVstolen
p783
aVdisarranged
p784
aVabsolutely
p785
aVexplanation
p786
aVhorror
p787
aVfrightened
p788
aVwoman
p789
aVdeath
p790
aVtwo
p791
aVstrong
p792
aVmen
p793
aVsenses
p794
aVsituation
p795
aVmr
p796
aVholmes
p797
aVnutshell
p798
aVhelp
p799
aVus
p800
aVclear
p801
aVdone
p802
aVgreat
p803
aVwork
p804
aVhoped
p805
aVway
p806
aVcould
p807
aVcoax
p808
aVcompanion
p809
aVback
p810
aVquiet
p811
aVobject
p812
aVjourney
p813
aVone
p814
aVglance
p815
aVintense
p816
aVface
p817
aVcontracted
p818
aVeyebrows
p819
aVtold
p820
aVvain
p821
aVexpectation
p822
aVsat
p823
aVlittle
p824
aVtime
p825
aVsilence
p826
aVabsorbed
p827
aVstrange
p828
aVdrama
p829
aVbroken
p830
aVupon
p831
aVpeace
p832
aVlook
p833
aVmatter
p834
aVsaid
p835
aVlast
p836
aVface
p837
aVwould
p838
aVappear
p839
aVcase
p840
aVexceptional
p841
aVnature
p842
aVmr
p843
aVroundhay
p844
aVmr
p845
aVholmes
p846
aVmr
p847
aVtregennis
p848
aVbrought
p849
aVback
p850
aVaccount
p851
aVvicarage
p852
aVhurried
p853
aVconsult
p854
aVfar
p855
aVhouse
p856
aVsingular
p857
aVtragedy
p858
aVoccurred
p859
aVmile
p860
aVinland
p861
aVshall
p862
aVwalk
p863
aVtogether
p864
aVstart
p865
aVmust
p866
aVask
p867
aVquestions
p868
aVmr
p869
aVmortimer
p870
aVtregennis
p871
aVsilent
p872
aVtime
p873
aVobserved
p874
aVcontrolled
p875
aVexcitement
p876
aVeven
p877
aVgreater
p878
aVobtrusive
p879
aVemotion
p880
aVclergyman
p881
aVsat
p882
aVpale
p883
aVdrawn
p884
aVface
p885
aVanxious
p886
aVgaze
p887
aVfixed
p888
aVupon
p889
aVholmes
p890
aVthin
p891
aVhands
p892
aVclasped
p893
aVconvulsively
p894
aVtogether
p895
aVpale
p896
aVlips
p897
aVquivered
p898
aVlistened
p899
aVdreadful
p900
aVexperience
p901
aVbefallen
p902
aVfamily
p903
aVdark
p904
aVeyes
p905
aVseemed
p906
aVreflect
p907
aVsomething
p908
aVhorror
p909
aVscene
p910
aVask
p911
aVlike
p912
aVmr
p913
aVholmes
p914
aVsaid
p915
aVeagerly
p916
aVbad
p917
aVthing
p918
aVspeak
p919
aVanswer
p920
aVtruth
p921
aVtell
p922
aVlast
p923
aVnight
p924
aVwell
p925
aVmr
p926
aVholmes
p927
aVsupped
p928
aVvicar
p929
aVsaid
p930
aVelder
p931
aVbrother
p932
aVgeorge
p933
aVproposed
p934
aVgame
p935
aVwhist
p936
aVafterwards
p937
aVsat
p938
aVnine
p939
aVoclock
p940
aVquarterpast
p941
aVten
p942
aVmoved
p943
aVgo
p944
aVleft
p945
aVround
p946
aVtable
p947
aVmerry
p948
aVcould
p949
aVlet
p950
aVmrs
p951
aVporter
p952
aVgone
p953
aVbed
p954
aVlet
p955
aVshut
p956
aVhall
p957
aVdoor
p958
aVbehind
p959
aVwindow
p960
aVroom
p961
aVsat
p962
aVclosed
p963
aVblind
p964
aVdrawn
p965
aVchange
p966
aVdoor
p967
aVwindow
p968
aVmorning
p969
aVreason
p970
aVthink
p971
aVstranger
p972
aVhouse
p973
aVyet
p974
aVsat
p975
aVdriven
p976
aVclean
p977
aVmad
p978
aVterror
p979
aVbrenda
p980
aVlying
p981
aVdead
p982
aVfright
p983
aVhead
p984
aVhanging
p985
aVarm
p986
aVchair
p987
aVll
p988
aVnever
p989
aVget
p990
aVsight
p991
aVroom
p992
aVmind
p993
aVlong
p994
aVlive
p995
aVfacts
p996
aVstate
p997
aVcertainly
p998
aVremarkable
p999
aVsaid
p1000
aVholmes
p1001
aVtake
p1002
aVtheory
p1003
aVway
p1004
aVaccount
p1005
aVdevilish
p1006
aVmr
p1007
aVholmes
p1008
aVdevilish
p1009
aVcried
p1010
aVmortimer
p1011
aVtregennis
p1012
aVworld
p1013
aVsomething
p1014
aVcome
p1015
aVroom
p1016
aVdashed
p1017
aVlight
p1018
aVreason
p1019
aVminds
p1020
aVhuman
p1021
aVcontrivance
p1022
aVcould
p1023
aVfear
p1024
aVsaid
p1025
aVholmes
p1026
aVmatter
p1027
aVbeyond
p1028
aVhumanity
p1029
aVcertainly
p1030
aVbeyond
p1031
aVyet
p1032
aVmust
p1033
aVexhaust
p1034
aVnatural
p1035
aVexplanations
p1036
aVfall
p1037
aVback
p1038
aVupon
p1039
aVtheory
p1040
aVmr
p1041
aVtregennis
p1042
aVtake
p1043
aVdivided
p1044
aVway
p1045
aVfamily
p1046
aVsince
p1047
aVlived
p1048
aVtogether
p1049
aVrooms
p1050
aVapart
p1051
aVmr
p1052
aVholmes
p1053
aVthough
p1054
aVmatter
p1055
aVpast
p1056
aVdone
p1057
aVfamily
p1058
aVtinminers
p1059
aVredruth
p1060
aVsold
p1061
aVventure
p1062
aVcompany
p1063
aVretired
p1064
aVenough
p1065
aVkeep
p1066
aVus
p1067
aVwo
p1068
aVnt
p1069
aVdeny
p1070
aVfeeling
p1071
aVdivision
p1072
aVmoney
p1073
aVstood
p1074
aVus
p1075
aVtime
p1076
aVforgiven
p1077
aVforgotten
p1078
aVbest
p1079
aVfriends
p1080
aVtogether
p1081
aVlooking
p1082
aVback
p1083
aVevening
p1084
aVspent
p1085
aVtogether
p1086
aVanything
p1087
aVstand
p1088
aVmemory
p1089
aVthrowing
p1090
aVpossible
p1091
aVlight
p1092
aVupon
p1093
aVtragedy
p1094
aVthink
p1095
aVcarefully
p1096
aVmr
p1097
aVtregennis
p1098
aVclue
p1099
aVhelp
p1100
aVnothing
p1101
aVsir
p1102
aVpeople
p1103
aVusual
p1104
aVspirits
p1105
aVnever
p1106
aVbetter
p1107
aVnervous
p1108
aVpeople
p1109
aVever
p1110
aVshow
p1111
aVapprehension
p1112
aVcoming
p1113
aVdanger
p1114
aVnothing
p1115
aVkind
p1116
aVnothing
p1117
aVadd
p1118
aVcould
p1119
aVassist
p1120
aVmortimer
p1121
aVtregennis
p1122
aVconsidered
p1123
aVearnestly
p1124
aVmoment
p1125
aVone
p1126
aVthing
p1127
aVoccurs
p1128
aVsaid
p1129
aVlast
p1130
aVsat
p1131
aVtable
p1132
aVback
p1133
aVwindow
p1134
aVbrother
p1135
aVgeorge
p1136
aVpartner
p1137
aVcards
p1138
aVfacing
p1139
aVsaw
p1140
aVlook
p1141
aVhard
p1142
aVshoulder
p1143
aVturned
p1144
aVround
p1145
aVlooked
p1146
aValso
p1147
aVblind
p1148
aVwindow
p1149
aVshut
p1150
aVcould
p1151
aVmake
p1152
aVbushes
p1153
aVlawn
p1154
aVseemed
p1155
aVmoment
p1156
aVsaw
p1157
aVsomething
p1158
aVmoving
p1159
aVamong
p1160
aVcould
p1161
aVnt
p1162
aVeven
p1163
aVsay
p1164
aVman
p1165
aVanimal
p1166
aVthought
p1167
aVsomething
p1168
aVasked
p1169
aVlooking
p1170
aVtold
p1171
aVfeeling
p1172
aVsay
p1173
aVinvestigate
p1174
aVmatter
p1175
aVpassed
p1176
aVunimportant
p1177
aVleft
p1178
aVwithout
p1179
aVpremonition
p1180
aVevil
p1181
aVnone
p1182
aVclear
p1183
aVcame
p1184
aVhear
p1185
aVnews
p1186
aVearly
p1187
aVmorning
p1188
aVearly
p1189
aVriser
p1190
aVgenerally
p1191
aVtake
p1192
aVwalk
p1193
aVbreakfast
p1194
aVmorning
p1195
aVhardly
p1196
aVstarted
p1197
aVdoctor
p1198
aVcarriage
p1199
aVovertook
p1200
aVtold
p1201
aVold
p1202
aVmrs
p1203
aVporter
p1204
aVsent
p1205
aVboy
p1206
aVurgent
p1207
aVmessage
p1208
aVsprang
p1209
aVbeside
p1210
aVdrove
p1211
aVgot
p1212
aVlooked
p1213
aVdreadful
p1214
aVroom
p1215
aVcandles
p1216
aVfire
p1217
aVmust
p1218
aVburned
p1219
aVhours
p1220
aVsitting
p1221
aVdark
p1222
aVdawn
p1223
aVbroken
p1224
aVdoctor
p1225
aVsaid
p1226
aVbrenda
p1227
aVmust
p1228
aVdead
p1229
aVleast
p1230
aVsix
p1231
aVhours
p1232
aVsigns
p1233
aVviolence
p1234
aVlay
p1235
aVacross
p1236
aVarm
p1237
aVchair
p1238
aVlook
p1239
aVface
p1240
aVgeorge
p1241
aVowen
p1242
aVsinging
p1243
aVsnatches
p1244
aVsongs
p1245
aVgibbering
p1246
aVlike
p1247
aVtwo
p1248
aVgreat
p1249
aVapes
p1250
aVoh
p1251
aVawful
p1252
aVsee
p1253
aVcould
p1254
aVnt
p1255
aVstand
p1256
aVdoctor
p1257
aVwhite
p1258
aVsheet
p1259
aVindeed
p1260
aVfell
p1261
aVchair
p1262
aVsort
p1263
aVfaint
p1264
aVnearly
p1265
aVhands
p1266
aVwell
p1267
aVremarkable
p1268
aVremarkable
p1269
aVsaid
p1270
aVholmes
p1271
aVrising
p1272
aVtaking
p1273
aVhat
p1274
aVthink
p1275
aVperhaps
p1276
aVbetter
p1277
aVgo
p1278
aVtredannick
p1279
aVwartha
p1280
aVwithout
p1281
aVdelay
p1282
aVconfess
p1283
aVseldom
p1284
aVknown
p1285
aVcase
p1286
aVfirst
p1287
aVsight
p1288
aVpresented
p1289
aVsingular
p1290
aVproblem
p1291
aVproceedings
p1292
aVfirst
p1293
aVmorning
p1294
aVlittle
p1295
aVadvance
p1296
aVinvestigation
p1297
aVmarked
p1298
aVhowever
p1299
aVoutset
p1300
aVincident
p1301
aVleft
p1302
aVsinister
p1303
aVimpression
p1304
aVupon
p1305
aVmind
p1306
aVapproach
p1307
aVspot
p1308
aVtragedy
p1309
aVoccurred
p1310
aVnarrow
p1311
aVwinding
p1312
aVcountry
p1313
aVlane
p1314
aVmade
p1315
aVway
p1316
aValong
p1317
aVheard
p1318
aVrattle
p1319
aVcarriage
p1320
aVcoming
p1321
aVtowards
p1322
aVus
p1323
aVstood
p1324
aVaside
p1325
aVlet
p1326
aVpass
p1327
aVdrove
p1328
aVus
p1329
aVcaught
p1330
aVglimpse
p1331
aVclosed
p1332
aVwindow
p1333
aVhorribly
p1334
aVcontorted
p1335
aVgrinning
p1336
aVface
p1337
aVglaring
p1338
aVus
p1339
aVstaring
p1340
aVeyes
p1341
aVgnashing
p1342
aVteeth
p1343
aVflashed
p1344
aVpast
p1345
aVus
p1346
aVlike
p1347
aVdreadful
p1348
aVvision
p1349
aVbrothers
p1350
aVcried
p1351
aVmortimer
p1352
aVtregennis
p1353
aVwhite
p1354
aVlips
p1355
aVtaking
p1356
aVhelston
p1357
aVlooked
p1358
aVhorror
p1359
aVblack
p1360
aVcarriage
p1361
aVlumbering
p1362
aVupon
p1363
aVway
p1364
aVturned
p1365
aVsteps
p1366
aVtowards
p1367
aVillomened
p1368
aVhouse
p1369
aVmet
p1370
aVstrange
p1371
aVfate
p1372
aVlarge
p1373
aVbright
p1374
aVdwelling
p1375
aVrather
p1376
aVvilla
p1377
aVcottage
p1378
aVconsiderable
p1379
aVgarden
p1380
aValready
p1381
aVcornish
p1382
aVair
p1383
aVwell
p1384
aVfilled
p1385
aVspring
p1386
aVflowers
p1387
aVtowards
p1388
aVgarden
p1389
aVwindow
p1390
aVsittingroom
p1391
aVfronted
p1392
aVaccording
p1393
aVmortimer
p1394
aVtregennis
p1395
aVmust
p1396
aVcome
p1397
aVthing
p1398
aVevil
p1399
aVsheer
p1400
aVhorror
p1401
aVsingle
p1402
aVinstant
p1403
aVblasted
p1404
aVminds
p1405
aVholmes
p1406
aVwalked
p1407
aVslowly
p1408
aVthoughtfully
p1409
aVamong
p1410
aVflowerplots
p1411
aValong
p1412
aVpath
p1413
aVentered
p1414
aVporch
p1415
aVabsorbed
p1416
aVthoughts
p1417
aVremember
p1418
aVstumbled
p1419
aVwateringpot
p1420
aVupset
p1421
aVcontents
p1422
aVdeluged
p1423
aVfeet
p1424
aVgarden
p1425
aVpath
p1426
aVinside
p1427
aVhouse
p1428
aVmet
p1429
aVelderly
p1430
aVcornish
p1431
aVhousekeeper
p1432
aVmrs
p1433
aVporter
p1434
aVaid
p1435
aVyoung
p1436
aVgirl
p1437
aVlooked
p1438
aVwants
p1439
aVfamily
p1440
aVreadily
p1441
aVanswered
p1442
aVholmes
p1443
aVquestions
p1444
aVheard
p1445
aVnothing
p1446
aVnight
p1447
aVemployers
p1448
aVexcellent
p1449
aVspirits
p1450
aVlately
p1451
aVnever
p1452
aVknown
p1453
aVcheerful
p1454
aVprosperous
p1455
aVfainted
p1456
aVhorror
p1457
aVupon
p1458
aVentering
p1459
aVroom
p1460
aVmorning
p1461
aVseeing
p1462
aVdreadful
p1463
aVcompany
p1464
aVround
p1465
aVtable
p1466
aVrecovered
p1467
aVthrown
p1468
aVopen
p1469
aVwindow
p1470
aVlet
p1471
aVmorning
p1472
aVair
p1473
aVrun
p1474
aVlane
p1475
aVwhence
p1476
aVsent
p1477
aVfarmlad
p1478
aVdoctor
p1479
aVlady
p1480
aVbed
p1481
aVupstairs
p1482
aVcared
p1483
aVsee
p1484
aVtook
p1485
aVfour
p1486
aVstrong
p1487
aVmen
p1488
aVget
p1489
aVbrothers
p1490
aVasylum
p1491
aVcarriage
p1492
aVwould
p1493
aVstay
p1494
aVhouse
p1495
aVanother
p1496
aVday
p1497
aVstarting
p1498
aVafternoon
p1499
aVrejoin
p1500
aVfamily
p1501
aVst
p1502
aVives
p1503
aVascended
p1504
aVstairs
p1505
aVviewed
p1506
aVbody
p1507
aVmiss
p1508
aVbrenda
p1509
aVtregennis
p1510
aVbeautiful
p1511
aVgirl
p1512
aVthough
p1513
aVverging
p1514
aVupon
p1515
aVmiddle
p1516
aVage
p1517
aVdark
p1518
aVclearcut
p1519
aVface
p1520
aVhandsome
p1521
aVeven
p1522
aVdeath
p1523
aVstill
p1524
aVlingered
p1525
aVupon
p1526
aVsomething
p1527
aVconvulsion
p1528
aVhorror
p1529
aVlast
p1530
aVhuman
p1531
aVemotion
p1532
aVbedroom
p1533
aVdescended
p1534
aVsittingroom
p1535
aVstrange
p1536
aVtragedy
p1537
aVactually
p1538
aVoccurred
p1539
aVcharred
p1540
aVashes
p1541
aVovernight
p1542
aVfire
p1543
aVlay
p1544
aVgrate
p1545
aVtable
p1546
aVfour
p1547
aVguttered
p1548
aVburnedout
p1549
aVcandles
p1550
aVcards
p1551
aVscattered
p1552
aVsurface
p1553
aVchairs
p1554
aVmoved
p1555
aVback
p1556
aVwalls
p1557
aVelse
p1558
aVnight
p1559
aVholmes
p1560
aVpaced
p1561
aVlight
p1562
aVswift
p1563
aVsteps
p1564
aVroom
p1565
aVsat
p1566
aVvarious
p1567
aVchairs
p1568
aVdrawing
p1569
aVreconstructing
p1570
aVpositions
p1571
aVtested
p1572
aVmuch
p1573
aVgarden
p1574
aVvisible
p1575
aVexamined
p1576
aVfloor
p1577
aVceiling
p1578
aVfireplace
p1579
aVnever
p1580
aVsee
p1581
aVsudden
p1582
aVbrightening
p1583
aVeyes
p1584
aVtightening
p1585
aVlips
p1586
aVwould
p1587
aVtold
p1588
aVsaw
p1589
aVgleam
p1590
aVlight
p1591
aVutter
p1592
aVdarkness
p1593
aVfire
p1594
aVasked
p1595
aValways
p1596
aVfire
p1597
aVsmall
p1598
aVroom
p1599
aVspring
p1600
aVevening
p1601
aVmortimer
p1602
aVtregennis
p1603
aVexplained
p1604
aVnight
p1605
aVcold
p1606
aVdamp
p1607
aVreason
p1608
aVarrival
p1609
aVfire
p1610
aVlit
p1611
aVgoing
p1612
aVmr
p1613
aVholmes
p1614
aVasked
p1615
aVfriend
p1616
aVsmiled
p1617
aVlaid
p1618
aVhand
p1619
aVupon
p1620
aVarm
p1621
aVthink
p1622
aVwatson
p1623
aVshall
p1624
aVresume
p1625
aVcourse
p1626
aVtobaccopoisoning
p1627
aVoften
p1628
aVjustly
p1629
aVcondemned
p1630
aVsaid
p1631
aVpermission
p1632
aVgentlemen
p1633
aVreturn
p1634
aVcottage
p1635
aVaware
p1636
aVnew
p1637
aVfactor
p1638
aVlikely
p1639
aVcome
p1640
aVnotice
p1641
aVturn
p1642
aVfacts
p1643
aVmind
p1644
aVmr
p1645
aVtregennis
p1646
aVanything
p1647
aVoccur
p1648
aVcertainly
p1649
aVcommunicate
p1650
aVvicar
p1651
aVmeantime
p1652
aVwish
p1653
aVgoodmorning
p1654
aVlong
p1655
aVback
p1656
aVpoldhu
p1657
aVcottage
p1658
aVholmes
p1659
aVbroke
p1660
aVcomplete
p1661
aVabsorbed
p1662
aVsilence
p1663
aVsat
p1664
aVcoiled
p1665
aVarmchair
p1666
aVhaggard
p1667
aVascetic
p1668
aVface
p1669
aVhardly
p1670
aVvisible
p1671
aVamid
p1672
aVblue
p1673
aVswirl
p1674
aVtobacco
p1675
aVsmoke
p1676
aVblack
p1677
aVbrows
p1678
aVdrawn
p1679
aVforehead
p1680
aVcontracted
p1681
aVeyes
p1682
aVvacant
p1683
aVfar
p1684
aVaway
p1685
aVfinally
p1686
aVlaid
p1687
aVpipe
p1688
aVsprang
p1689
aVfeet
p1690
aVwo
p1691
aVnt
p1692
aVwatson
p1693
aVsaid
p1694
aVlaugh
p1695
aVlet
p1696
aVus
p1697
aVwalk
p1698
aValong
p1699
aVcliffs
p1700
aVtogether
p1701
aVsearch
p1702
aVflint
p1703
aVarrows
p1704
aVlikely
p1705
aVfind
p1706
aVclues
p1707
aVproblem
p1708
aVlet
p1709
aVbrain
p1710
aVwork
p1711
aVwithout
p1712
aVsufficient
p1713
aVmaterial
p1714
aVlike
p1715
aVracing
p1716
aVengine
p1717
aVracks
p1718
aVpieces
p1719
aVsea
p1720
aVair
p1721
aVsunshine
p1722
aVpatience
p1723
aVwatson
p1724
aVelse
p1725
aVcome
p1726
aVlet
p1727
aVus
p1728
aVcalmly
p1729
aVdefine
p1730
aVposition
p1731
aVwatson
p1732
aVcontinued
p1733
aVskirted
p1734
aVcliffs
p1735
aVtogether
p1736
aVlet
p1737
aVus
p1738
aVget
p1739
aVfirm
p1740
aVgrip
p1741
aVlittle
p1742
aVknow
p1743
aVfresh
p1744
aVfacts
p1745
aVarise
p1746
aVmay
p1747
aVready
p1748
aVfit
p1749
aVplaces
p1750
aVtake
p1751
aVfirst
p1752
aVplace
p1753
aVneither
p1754
aVus
p1755
aVprepared
p1756
aVadmit
p1757
aVdiabolical
p1758
aVintrusions
p1759
aVaffairs
p1760
aVmen
p1761
aVlet
p1762
aVus
p1763
aVbegin
p1764
aVruling
p1765
aVentirely
p1766
aVminds
p1767
aVgood
p1768
aVremain
p1769
aVthree
p1770
aVpersons
p1771
aVgrievously
p1772
aVstricken
p1773
aVconscious
p1774
aVunconscious
p1775
aVhuman
p1776
aVagency
p1777
aVfirm
p1778
aVground
p1779
aVoccur
p1780
aVevidently
p1781
aVassuming
p1782
aVnarrative
p1783
aVtrue
p1784
aVimmediately
p1785
aVmr
p1786
aVmortimer
p1787
aVtregennis
p1788
aVleft
p1789
aVroom
p1790
aVimportant
p1791
aVpoint
p1792
aVpresumption
p1793
aVwithin
p1794
aVminutes
p1795
aVafterwards
p1796
aVcards
p1797
aVstill
p1798
aVlay
p1799
aVupon
p1800
aVtable
p1801
aValready
p1802
aVpast
p1803
aVusual
p1804
aVhour
p1805
aVbed
p1806
aVyet
p1807
aVchanged
p1808
aVposition
p1809
aVpushed
p1810
aVback
p1811
aVchairs
p1812
aVrepeat
p1813
aVoccurrence
p1814
aVimmediately
p1815
aVdeparture
p1816
aVlater
p1817
aVeleven
p1818
aVoclock
p1819
aVlast
p1820
aVnight
p1821
aVnext
p1822
aVobvious
p1823
aVstep
p1824
aVcheck
p1825
aVfar
p1826
aVmovements
p1827
aVmortimer
p1828
aVtregennis
p1829
aVleft
p1830
aVroom
p1831
aVdifficulty
p1832
aVseem
p1833
aVsuspicion
p1834
aVknowing
p1835
aVmethods
p1836
aVcourse
p1837
aVconscious
p1838
aVsomewhat
p1839
aVclumsy
p1840
aVwaterpot
p1841
aVexpedient
p1842
aVobtained
p1843
aVclearer
p1844
aVimpress
p1845
aVfoot
p1846
aVmight
p1847
aVotherwise
p1848
aVpossible
p1849
aVwet
p1850
aVsandy
p1851
aVpath
p1852
aVtook
p1853
aVadmirably
p1854
aVlast
p1855
aVnight
p1856
aValso
p1857
aVwet
p1858
aVremember
p1859
aVdifficult
p1860
aVobtained
p1861
aVsample
p1862
aVprint
p1863
aVpick
p1864
aVtrack
p1865
aVamong
p1866
aVothers
p1867
aVfollow
p1868
aVmovements
p1869
aVappears
p1870
aVwalked
p1871
aVaway
p1872
aVswiftly
p1873
aVdirection
p1874
aVvicarage
p1875
aVmortimer
p1876
aVtregennis
p1877
aVdisappeared
p1878
aVscene
p1879
aVyet
p1880
aVoutside
p1881
aVperson
p1882
aVaffected
p1883
aVcardplayers
p1884
aVreconstruct
p1885
aVperson
p1886
aVimpression
p1887
aVhorror
p1888
aVconveyed
p1889
aVmrs
p1890
aVporter
p1891
aVmay
p1892
aVeliminated
p1893
aVevidently
p1894
aVharmless
p1895
aVevidence
p1896
aVsomeone
p1897
aVcrept
p1898
aVgarden
p1899
aVwindow
p1900
aVmanner
p1901
aVproduced
p1902
aVterrific
p1903
aVeffect
p1904
aVdrove
p1905
aVsaw
p1906
aVsenses
p1907
aVsuggestion
p1908
aVdirection
p1909
aVcomes
p1910
aVmortimer
p1911
aVtregennis
p1912
aVsays
p1913
aVbrother
p1914
aVspoke
p1915
aVmovement
p1916
aVgarden
p1917
aVcertainly
p1918
aVremarkable
p1919
aVnight
p1920
aVrainy
p1921
aVcloudy
p1922
aVdark
p1923
aVanyone
p1924
aVdesign
p1925
aValarm
p1926
aVpeople
p1927
aVwould
p1928
aVcompelled
p1929
aVplace
p1930
aVface
p1931
aVglass
p1932
aVcould
p1933
aVseen
p1934
aVthreefoot
p1935
aVflowerborder
p1936
aVoutside
p1937
aVwindow
p1938
aVindication
p1939
aVfootmark
p1940
aVdifficult
p1941
aVimagine
p1942
aVoutsider
p1943
aVcould
p1944
aVmade
p1945
aVterrible
p1946
aVimpression
p1947
aVupon
p1948
aVcompany
p1949
aVfound
p1950
aVpossible
p1951
aVmotive
p1952
aVstrange
p1953
aVelaborate
p1954
aVattempt
p1955
aVperceive
p1956
aVdifficulties
p1957
aVwatson
p1958
aVclear
p1959
aVanswered
p1960
aVconviction
p1961
aVyet
p1962
aVlittle
p1963
aVmaterial
p1964
aVmay
p1965
aVprove
p1966
aVinsurmountable
p1967
aVsaid
p1968
aVholmes
p1969
aVfancy
p1970
aVamong
p1971
aVextensive
p1972
aVarchives
p1973
aVwatson
p1974
aVmay
p1975
aVfind
p1976
aVnearly
p1977
aVobscure
p1978
aVmeanwhile
p1979
aVshall
p1980
aVput
p1981
aVcase
p1982
aVaside
p1983
aVaccurate
p1984
aVdata
p1985
aVavailable
p1986
aVdevote
p1987
aVrest
p1988
aVmorning
p1989
aVpursuit
p1990
aVneolithic
p1991
aVman
p1992
aVmay
p1993
aVcommented
p1994
aVupon
p1995
aVfriend
p1996
aVpower
p1997
aVmental
p1998
aVdetachment
p1999
aVnever
p2000
aVwondered
p2001
aVupon
p2002
aVspring
p2003
aVmorning
p2004
aVcornwall
p2005
aVtwo
p2006
aVhours
p2007
aVdiscoursed
p2008
aVupon
p2009
aVcelts
p2010
aVarrowheads
p2011
aVshards
p2012
aVlightly
p2013
aVsinister
p2014
aVmystery
p2015
aVwaiting
p2016
aVsolution
p2017
aVreturned
p2018
aVafternoon
p2019
aVcottage
p2020
aVfound
p2021
aVvisitor
p2022
aVawaiting
p2023
aVus
p2024
aVsoon
p2025
aVbrought
p2026
aVminds
p2027
aVback
p2028
aVmatter
p2029
aVhand
p2030
aVneither
p2031
aVus
p2032
aVneeded
p2033
aVtold
p2034
aVvisitor
p2035
aVhuge
p2036
aVbody
p2037
aVcraggy
p2038
aVdeeply
p2039
aVseamed
p2040
aVface
p2041
aVfierce
p2042
aVeyes
p2043
aVhawklike
p2044
aVnose
p2045
aVgrizzled
p2046
aVhair
p2047
aVnearly
p2048
aVbrushed
p2049
aVcottage
p2050
aVceiling
p2051
aVbeard
p2052
aVgolden
p2053
aVfringes
p2054
aVwhite
p2055
aVnear
p2056
aVlips
p2057
aVsave
p2058
aVnicotine
p2059
aVstain
p2060
aVperpetual
p2061
aVcigar
p2062
aVwell
p2063
aVknown
p2064
aVlondon
p2065
aVafrica
p2066
aVcould
p2067
aVassociated
p2068
aVtremendous
p2069
aVpersonality
p2070
aVdr
p2071
aVleon
p2072
aVsterndale
p2073
aVgreat
p2074
aVlionhunter
p2075
aVexplorer
p2076
aVheard
p2077
aVpresence
p2078
aVdistrict
p2079
aVtwice
p2080
aVcaught
p2081
aVsight
p2082
aVtall
p2083
aVfigure
p2084
aVupon
p2085
aVmoorland
p2086
aVpaths
p2087
aVmade
p2088
aVadvances
p2089
aVus
p2090
aVhowever
p2091
aVwould
p2092
aVdreamed
p2093
aVwell
p2094
aVknown
p2095
aVlove
p2096
aVseclusion
p2097
aVcaused
p2098
aVspend
p2099
aVgreater
p2100
aVpart
p2101
aVintervals
p2102
aVjourneys
p2103
aVsmall
p2104
aVbungalow
p2105
aVburied
p2106
aVlonely
p2107
aVwood
p2108
aVbeauchamp
p2109
aVarriance
p2110
aVamid
p2111
aVbooks
p2112
aVmaps
p2113
aVlived
p2114
aVabsolutely
p2115
aVlonely
p2116
aVlife
p2117
aVattending
p2118
aVsimple
p2119
aVwants
p2120
aVpaying
p2121
aVlittle
p2122
aVapparent
p2123
aVheed
p2124
aVaffairs
p2125
aVneighbours
p2126
aVsurprise
p2127
aVtherefore
p2128
aVhear
p2129
aVasking
p2130
aVholmes
p2131
aVeager
p2132
aVvoice
p2133
aVwhether
p2134
aVmade
p2135
aVadvance
p2136
aVreconstruction
p2137
aVmysterious
p2138
aVepisode
p2139
aVcounty
p2140
aVpolice
p2141
aVutterly
p2142
aVfault
p2143
aVsaid
p2144
aVperhaps
p2145
aVwider
p2146
aVexperience
p2147
aVsuggested
p2148
aVconceivable
p2149
aVexplanation
p2150
aVclaim
p2151
aVtaken
p2152
aVconfidence
p2153
aVmany
p2154
aVresidences
p2155
aVcome
p2156
aVknow
p2157
aVfamily
p2158
aVtregennis
p2159
aVwell
p2160
aVindeed
p2161
aVupon
p2162
aVcornish
p2163
aVmother
p2164
aVside
p2165
aVcould
p2166
aVcall
p2167
aVcousins
p2168
aVstrange
p2169
aVfate
p2170
aVnaturally
p2171
aVgreat
p2172
aVshock
p2173
aVmay
p2174
aVtell
p2175
aVgot
p2176
aVfar
p2177
aVplymouth
p2178
aVupon
p2179
aVway
p2180
aVafrica
p2181
aVnews
p2182
aVreached
p2183
aVmorning
p2184
aVcame
p2185
aVstraight
p2186
aVback
p2187
aVhelp
p2188
aVinquiry
p2189
aVholmes
p2190
aVraised
p2191
aVeyebrows
p2192
aVlose
p2193
aVboat
p2194
aVtake
p2195
aVnext
p2196
aVdear
p2197
aVfriendship
p2198
aVindeed
p2199
aVtell
p2200
aVrelatives
p2201
aVquite
p2202
aVcousins
p2203
aVmother
p2204
aVbaggage
p2205
aVaboard
p2206
aVship
p2207
aVmain
p2208
aVpart
p2209
aVhotel
p2210
aVsee
p2211
aVsurely
p2212
aVevent
p2213
aVcould
p2214
aVfound
p2215
aVway
p2216
aVplymouth
p2217
aVmorning
p2218
aVpapers
p2219
aVsir
p2220
aVtelegram
p2221
aVmight
p2222
aVask
p2223
aVshadow
p2224
aVpassed
p2225
aVgaunt
p2226
aVface
p2227
aVexplorer
p2228
aVinquisitive
p2229
aVmr
p2230
aVholmes
p2231
aVbusiness
p2232
aVeffort
p2233
aVdr
p2234
aVsterndale
p2235
aVrecovered
p2236
aVruffled
p2237
aVcomposure
p2238
aVobjection
p2239
aVtelling
p2240
aVsaid
p2241
aVmr
p2242
aVroundhay
p2243
aVvicar
p2244
aVsent
p2245
aVtelegram
p2246
aVrecalled
p2247
aVthank
p2248
aVsaid
p2249
aVholmes
p2250
aVmay
p2251
aVsay
p2252
aVanswer
p2253
aVoriginal
p2254
aVquestion
p2255
aVcleared
p2256
aVmind
p2257
aVentirely
p2258
aVsubject
p2259
aVcase
p2260
aVevery
p2261
aVhope
p2262
aVreaching
p2263
aVconclusion
p2264
aVwould
p2265
aVpremature
p2266
aVsay
p2267
aVperhaps
p2268
aVwould
p2269
aVmind
p2270
aVtelling
p2271
aVsuspicions
p2272
aVpoint
p2273
aVparticular
p2274
aVdirection
p2275
aVhardly
p2276
aVanswer
p2277
aVwasted
p2278
aVtime
p2279
aVneed
p2280
aVprolong
p2281
aVvisit
p2282
aVfamous
p2283
aVdoctor
p2284
aVstrode
p2285
aVcottage
p2286
aVconsiderable
p2287
aVillhumour
p2288
aVwithin
p2289
aVfive
p2290
aVminutes
p2291
aVholmes
p2292
aVfollowed
p2293
aVsaw
p2294
aVevening
p2295
aVreturned
p2296
aVslow
p2297
aVstep
p2298
aVhaggard
p2299
aVface
p2300
aVassured
p2301
aVmade
p2302
aVgreat
p2303
aVprogress
p2304
aVinvestigation
p2305
aVglanced
p2306
aVtelegram
p2307
aVawaited
p2308
aVthrew
p2309
aVgrate
p2310
aVplymouth
p2311
aVhotel
p2312
aVwatson
p2313
aVsaid
p2314
aVlearned
p2315
aVname
p2316
aVvicar
p2317
aVwired
p2318
aVmake
p2319
aVcertain
p2320
aVdr
p2321
aVleon
p2322
aVsterndale
p2323
aVaccount
p2324
aVtrue
p2325
aVappears
p2326
aVindeed
p2327
aVspend
p2328
aVlast
p2329
aVnight
p2330
aVactually
p2331
aVallowed
p2332
aVbaggage
p2333
aVgo
p2334
aVafrica
p2335
aVreturned
p2336
aVpresent
p2337
aVinvestigation
p2338
aVmake
p2339
aVwatson
p2340
aVdeeply
p2341
aVinterested
p2342
aVdeeply
p2343
aVinterested
p2344
aVyes
p2345
aVthread
p2346
aVyet
p2347
aVgrasped
p2348
aVmight
p2349
aVlead
p2350
aVus
p2351
aVtangle
p2352
aVcheer
p2353
aVwatson
p2354
aVsure
p2355
aVmaterial
p2356
aVyet
p2357
aVcome
p2358
aVhand
p2359
aVmay
p2360
aVsoon
p2361
aVleave
p2362
aVdifficulties
p2363
aVbehind
p2364
aVus
p2365
aVlittle
p2366
aVthink
p2367
aVsoon
p2368
aVwords
p2369
aVholmes
p2370
aVwould
p2371
aVrealized
p2372
aVstrange
p2373
aVsinister
p2374
aVwould
p2375
aVnew
p2376
aVdevelopment
p2377
aVopened
p2378
aVentirely
p2379
aVfresh
p2380
aVline
p2381
aVinvestigation
p2382
aVshaving
p2383
aVwindow
p2384
aVmorning
p2385
aVheard
p2386
aVrattle
p2387
aVhoofs
p2388
aVlooking
p2389
aVsaw
p2390
aVdogcart
p2391
aVcoming
p2392
aVgallop
p2393
aVroad
p2394
aVpulled
p2395
aVdoor
p2396
aVfriend
p2397
aVvicar
p2398
aVsprang
p2399
aVrushed
p2400
aVgarden
p2401
aVpath
p2402
aVholmes
p2403
aValready
p2404
aVdressed
p2405
aVhastened
p2406
aVmeet
p2407
aVvisitor
p2408
aVexcited
p2409
aVcould
p2410
aVhardly
p2411
aVarticulate
p2412
aVlast
p2413
aVgasps
p2414
aVbursts
p2415
aVtragic
p2416
aVstory
p2417
aVcame
p2418
aVdevilridden
p2419
aVmr
p2420
aVholmes
p2421
aVpoor
p2422
aVparish
p2423
aVdevilridden
p2424
aVcried
p2425
aVsatan
p2426
aVloose
p2427
aVgiven
p2428
aVhands
p2429
aVdanced
p2430
aVagitation
p2431
aVludicrous
p2432
aVobject
p2433
aVashy
p2434
aVface
p2435
aVstartled
p2436
aVeyes
p2437
aVfinally
p2438
aVshot
p2439
aVterrible
p2440
aVnews
p2441
aVmr
p2442
aVmortimer
p2443
aVtregennis
p2444
aVdied
p2445
aVnight
p2446
aVexactly
p2447
aVsymptoms
p2448
aVrest
p2449
aVfamily
p2450
aVholmes
p2451
aVsprang
p2452
aVfeet
p2453
aVenergy
p2454
aVinstant
p2455
aVfit
p2456
aVus
p2457
aVdogcart
p2458
aVyes
p2459
aVwatson
p2460
aVpostpone
p2461
aVbreakfast
p2462
aVmr
p2463
aVroundhay
p2464
aVentirely
p2465
aVdisposal
p2466
aVhurry
p2467
aVhurry
p2468
aVthings
p2469
aVget
p2470
aVdisarranged
p2471
aVlodger
p2472
aVoccupied
p2473
aVtwo
p2474
aVrooms
p2475
aVvicarage
p2476
aVangle
p2477
aVone
p2478
aVlarge
p2479
aVsittingroom
p2480
aVbedroom
p2481
aVlooked
p2482
aVupon
p2483
aVcroquet
p2484
aVlawn
p2485
aVcame
p2486
aVwindows
p2487
aVarrived
p2488
aVdoctor
p2489
aVpolice
p2490
aVeverything
p2491
aVabsolutely
p2492
aVundisturbed
p2493
aVlet
p2494
aVdescribe
p2495
aVexactly
p2496
aVscene
p2497
aVsaw
p2498
aVupon
p2499
aVmisty
p2500
aVmarch
p2501
aVmorning
p2502
aVleft
p2503
aVimpression
p2504
aVnever
p2505
aVeffaced
p2506
aVmind
p2507
aVatmosphere
p2508
aVroom
p2509
aVhorrible
p2510
aVdepressing
p2511
aVstuffiness
p2512
aVservant
p2513
aVfirst
p2514
aVentered
p2515
aVthrown
p2516
aVwindow
p2517
aVwould
p2518
aVeven
p2519
aVintolerable
p2520
aVmight
p2521
aVpartly
p2522
aVdue
p2523
aVfact
p2524
aVlamp
p2525
aVstood
p2526
aVflaring
p2527
aVsmoking
p2528
aVcentre
p2529
aVtable
p2530
aVbeside
p2531
aVsat
p2532
aVdead
p2533
aVman
p2534
aVleaning
p2535
aVback
p2536
aVchair
p2537
aVthin
p2538
aVbeard
p2539
aVprojecting
p2540
aVspectacles
p2541
aVpushed
p2542
aVforehead
p2543
aVlean
p2544
aVdark
p2545
aVface
p2546
aVturned
p2547
aVtowards
p2548
aVwindow
p2549
aVtwisted
p2550
aVdistortion
p2551
aVterror
p2552
aVmarked
p2553
aVfeatures
p2554
aVdead
p2555
aVsister
p2556
aVlimbs
p2557
aVconvulsed
p2558
aVfingers
p2559
aVcontorted
p2560
aVthough
p2561
aVdied
p2562
aVparoxysm
p2563
aVfear
p2564
aVfully
p2565
aVclothed
p2566
aVthough
p2567
aVsigns
p2568
aVdressing
p2569
aVdone
p2570
aVhurry
p2571
aValready
p2572
aVlearned
p2573
aVbed
p2574
aVslept
p2575
aVtragic
p2576
aVend
p2577
aVcome
p2578
aVearly
p2579
aVmorning
p2580
aVone
p2581
aVrealized
p2582
aVredhot
p2583
aVenergy
p2584
aVunderlay
p2585
aVholmes
p2586
aVphlegmatic
p2587
aVexterior
p2588
aVone
p2589
aVsaw
p2590
aVsudden
p2591
aVchange
p2592
aVcame
p2593
aVmoment
p2594
aVentered
p2595
aVfatal
p2596
aVapartment
p2597
aVinstant
p2598
aVtense
p2599
aValert
p2600
aVeyes
p2601
aVshining
p2602
aVface
p2603
aVset
p2604
aVlimbs
p2605
aVquivering
p2606
aVeager
p2607
aVactivity
p2608
aVlawn
p2609
aVwindow
p2610
aVround
p2611
aVroom
p2612
aVbedroom
p2613
aVworld
p2614
aVlike
p2615
aVdashing
p2616
aVfoxhound
p2617
aVdrawing
p2618
aVcover
p2619
aVbedroom
p2620
aVmade
p2621
aVrapid
p2622
aVcast
p2623
aVaround
p2624
aVended
p2625
aVthrowing
p2626
aVopen
p2627
aVwindow
p2628
aVappeared
p2629
aVgive
p2630
aVfresh
p2631
aVcause
p2632
aVexcitement
p2633
aVleaned
p2634
aVloud
p2635
aVejaculations
p2636
aVinterest
p2637
aVdelight
p2638
aVrushed
p2639
aVstair
p2640
aVopen
p2641
aVwindow
p2642
aVthrew
p2643
aVupon
p2644
aVface
p2645
aVlawn
p2646
aVsprang
p2647
aVroom
p2648
aVenergy
p2649
aVhunter
p2650
aVheels
p2651
aVquarry
p2652
aVlamp
p2653
aVordinary
p2654
aVstandard
p2655
aVexamined
p2656
aVminute
p2657
aVcare
p2658
aVmaking
p2659
aVcertain
p2660
aVmeasurements
p2661
aVupon
p2662
aVbowl
p2663
aVcarefully
p2664
aVscrutinized
p2665
aVlens
p2666
aVtalc
p2667
aVshield
p2668
aVcovered
p2669
aVtop
p2670
aVchimney
p2671
aVscraped
p2672
aVashes
p2673
aVadhered
p2674
aVupper
p2675
aVsurface
p2676
aVputting
p2677
aVenvelope
p2678
aVplaced
p2679
aVpocketbook
p2680
aVfinally
p2681
aVdoctor
p2682
aVofficial
p2683
aVpolice
p2684
aVput
p2685
aVappearance
p2686
aVbeckoned
p2687
aVvicar
p2688
aVthree
p2689
aVwent
p2690
aVupon
p2691
aVlawn
p2692
aVglad
p2693
aVsay
p2694
aVinvestigation
p2695
aVentirely
p2696
aVbarren
p2697
aVremarked
p2698
aVremain
p2699
aVdiscuss
p2700
aVmatter
p2701
aVpolice
p2702
aVexceedingly
p2703
aVobliged
p2704
aVmr
p2705
aVroundhay
p2706
aVwould
p2707
aVgive
p2708
aVinspector
p2709
aVcompliments
p2710
aVdirect
p2711
aVattention
p2712
aVbedroom
p2713
aVwindow
p2714
aVsittingroom
p2715
aVlamp
p2716
aVsuggestive
p2717
aVtogether
p2718
aValmost
p2719
aVconclusive
p2720
aVpolice
p2721
aVwould
p2722
aVdesire
p2723
aVinformation
p2724
aVshall
p2725
aVhappy
p2726
aVsee
p2727
aVcottage
p2728
aVwatson
p2729
aVthink
p2730
aVperhaps
p2731
aVshall
p2732
aVbetter
p2733
aVemployed
p2734
aVelsewhere
p2735
aVmay
p2736
aVpolice
p2737
aVresented
p2738
aVintrusion
p2739
aVamateur
p2740
aVimagined
p2741
aVupon
p2742
aVhopeful
p2743
aVline
p2744
aVinvestigation
p2745
aVcertain
p2746
aVheard
p2747
aVnothing
p2748
aVnext
p2749
aVtwo
p2750
aVdays
p2751
aVtime
p2752
aVholmes
p2753
aVspent
p2754
aVtime
p2755
aVsmoking
p2756
aVdreaming
p2757
aVcottage
p2758
aVgreater
p2759
aVportion
p2760
aVcountry
p2761
aVwalks
p2762
aVundertook
p2763
aValone
p2764
aVreturning
p2765
aVmany
p2766
aVhours
p2767
aVwithout
p2768
aVremark
p2769
aVone
p2770
aVexperiment
p2771
aVserved
p2772
aVshow
p2773
aVline
p2774
aVinvestigation
p2775
aVbought
p2776
aVlamp
p2777
aVduplicate
p2778
aVone
p2779
aVburned
p2780
aVroom
p2781
aVmortimer
p2782
aVtregennis
p2783
aVmorning
p2784
aVtragedy
p2785
aVfilled
p2786
aVoil
p2787
aVused
p2788
aVvicarage
p2789
aVcarefully
p2790
aVtimed
p2791
aVperiod
p2792
aVwould
p2793
aVtake
p2794
aVexhausted
p2795
aVanother
p2796
aVexperiment
p2797
aVmade
p2798
aVunpleasant
p2799
aVnature
p2800
aVone
p2801
aVlikely
p2802
aVever
p2803
aVforget
p2804
aVremember
p2805
aVwatson
p2806
aVremarked
p2807
aVone
p2808
aVafternoon
p2809
aVsingle
p2810
aVcommon
p2811
aVpoint
p2812
aVresemblance
p2813
aVvarying
p2814
aVreports
p2815
aVreached
p2816
aVus
p2817
aVconcerns
p2818
aVeffect
p2819
aVatmosphere
p2820
aVroom
p2821
aVcase
p2822
aVupon
p2823
aVfirst
p2824
aVentered
p2825
aVrecollect
p2826
aVmortimer
p2827
aVtregennis
p2828
aVdescribing
p2829
aVepisode
p2830
aVlast
p2831
aVvisit
p2832
aVbrother
p2833
aVhouse
p2834
aVremarked
p2835
aVdoctor
p2836
aVentering
p2837
aVroom
p2838
aVfell
p2839
aVchair
p2840
aVforgotten
p2841
aVwell
p2842
aVanswer
p2843
aVremember
p2844
aValso
p2845
aVmrs
p2846
aVporter
p2847
aVhousekeeper
p2848
aVtold
p2849
aVus
p2850
aVfainted
p2851
aVupon
p2852
aVentering
p2853
aVroom
p2854
aVafterwards
p2855
aVopened
p2856
aVwindow
p2857
aVsecond
p2858
aVcase
p2859
aVmortimer
p2860
aVtregennis
p2861
aVforgotten
p2862
aVhorrible
p2863
aVstuffiness
p2864
aVroom
p2865
aVarrived
p2866
aVthough
p2867
aVservant
p2868
aVthrown
p2869
aVopen
p2870
aVwindow
p2871
aVservant
p2872
aVfound
p2873
aVupon
p2874
aVinquiry
p2875
aVill
p2876
aVgone
p2877
aVbed
p2878
aVadmit
p2879
aVwatson
p2880
aVfacts
p2881
aVsuggestive
p2882
aVcase
p2883
aVevidence
p2884
aVpoisonous
p2885
aVatmosphere
p2886
aVcase
p2887
aValso
p2888
aVcombustion
p2889
aVgoing
p2890
aVroom
p2891
aVone
p2892
aVcase
p2893
aVfire
p2894
aVlamp
p2895
aVfire
p2896
aVneeded
p2897
aVlamp
p2898
aVlit
p2899
aVcomparison
p2900
aVoil
p2901
aVconsumed
p2902
aVshow
p2903
aVlong
p2904
aVbroad
p2905
aVdaylight
p2906
aVsurely
p2907
aVconnection
p2908
aVthree
p2909
aVthings
p2910
aVburning
p2911
aVstuffy
p2912
aVatmosphere
p2913
aVfinally
p2914
aVmadness
p2915
aVdeath
p2916
aVunfortunate
p2917
aVpeople
p2918
aVclear
p2919
aVwould
p2920
aVappear
p2921
aVleast
p2922
aVmay
p2923
aVaccept
p2924
aVworking
p2925
aVhypothesis
p2926
aVsuppose
p2927
aVsomething
p2928
aVburned
p2929
aVcase
p2930
aVproduced
p2931
aVatmosphere
p2932
aVcausing
p2933
aVstrange
p2934
aVtoxic
p2935
aVeffects
p2936
aVgood
p2937
aVfirst
p2938
aVinstance
p2939
aVtregennis
p2940
aVfamily
p2941
aVsubstance
p2942
aVplaced
p2943
aVfire
p2944
aVwindow
p2945
aVshut
p2946
aVfire
p2947
aVwould
p2948
aVnaturally
p2949
aVcarry
p2950
aVfumes
p2951
aVextent
p2952
aVchimney
p2953
aVhence
p2954
aVone
p2955
aVwould
p2956
aVexpect
p2957
aVeffects
p2958
aVpoison
p2959
aVless
p2960
aVsecond
p2961
aVcase
p2962
aVless
p2963
aVescape
p2964
aVvapour
p2965
aVresult
p2966
aVseems
p2967
aVindicate
p2968
aVsince
p2969
aVfirst
p2970
aVcase
p2971
aVwoman
p2972
aVpresumably
p2973
aVsensitive
p2974
aVorganism
p2975
aVkilled
p2976
aVothers
p2977
aVexhibiting
p2978
aVtemporary
p2979
aVpermanent
p2980
aVlunacy
p2981
aVevidently
p2982
aVfirst
p2983
aVeffect
p2984
aVdrug
p2985
aVsecond
p2986
aVcase
p2987
aVresult
p2988
aVcomplete
p2989
aVfacts
p2990
aVtherefore
p2991
aVseem
p2992
aVbear
p2993
aVtheory
p2994
aVpoison
p2995
aVworked
p2996
aVcombustion
p2997
aVtrain
p2998
aVreasoning
p2999
aVhead
p3000
aVnaturally
p3001
aVlooked
p3002
aVmortimer
p3003
aVtregennis
p3004
aVroom
p3005
aVfind
p3006
aVremains
p3007
aVsubstance
p3008
aVobvious
p3009
aVplace
p3010
aVlook
p3011
aVtalc
p3012
aVshelf
p3013
aVsmokeguard
p3014
aVlamp
p3015
aVsure
p3016
aVenough
p3017
aVperceived
p3018
aVnumber
p3019
aVflaky
p3020
aVashes
p3021
aVround
p3022
aVedges
p3023
aVfringe
p3024
aVbrownish
p3025
aVpowder
p3026
aVyet
p3027
aVconsumed
p3028
aVhalf
p3029
aVtook
p3030
aVsaw
p3031
aVplaced
p3032
aVenvelope
p3033
aVhalf
p3034
aVholmes
p3035
aVdear
p3036
aVwatson
p3037
aVstand
p3038
aVway
p3039
aVofficial
p3040
aVpolice
p3041
aVforce
p3042
aVleave
p3043
aVevidence
p3044
aVfound
p3045
aVpoison
p3046
aVstill
p3047
aVremained
p3048
aVupon
p3049
aVtalc
p3050
aVwit
p3051
aVfind
p3052
aVwatson
p3053
aVlight
p3054
aVlamp
p3055
aVhowever
p3056
aVtake
p3057
aVprecaution
p3058
aVopen
p3059
aVwindow
p3060
aVavoid
p3061
aVpremature
p3062
aVdecease
p3063
aVtwo
p3064
aVdeserving
p3065
aVmembers
p3066
aVsociety
p3067
aVseat
p3068
aVnear
p3069
aVopen
p3070
aVwindow
p3071
aVarmchair
p3072
aVunless
p3073
aVlike
p3074
aVsensible
p3075
aVman
p3076
aVdetermine
p3077
aVnothing
p3078
aVaffair
p3079
aVoh
p3080
aVsee
p3081
aVthought
p3082
aVknew
p3083
aVwatson
p3084
aVchair
p3085
aVplace
p3086
aVopposite
p3087
aVmay
p3088
aVdistance
p3089
aVpoison
p3090
aVface
p3091
aVface
p3092
aVdoor
p3093
aVleave
p3094
aVajar
p3095
aVposition
p3096
aVwatch
p3097
aVbring
p3098
aVexperiment
p3099
aVend
p3100
aVsymptoms
p3101
aVseem
p3102
aValarming
p3103
aVclear
p3104
aVwell
p3105
aVtake
p3106
aVpowder
p3107
aVremains
p3108
aVenvelope
p3109
aVlay
p3110
aVburning
p3111
aVlamp
p3112
aVwatson
p3113
aVlet
p3114
aVus
p3115
aVsit
p3116
aVawait
p3117
aVdevelopments
p3118
aVlong
p3119
aVcoming
p3120
aVhardly
p3121
aVsettled
p3122
aVchair
p3123
aVconscious
p3124
aVthick
p3125
aVmusky
p3126
aVodour
p3127
aVsubtle
p3128
aVnauseous
p3129
aVfirst
p3130
aVwhiff
p3131
aVbrain
p3132
aVimagination
p3133
aVbeyond
p3134
aVcontrol
p3135
aVthick
p3136
aVblack
p3137
aVcloud
p3138
aVswirled
p3139
aVeyes
p3140
aVmind
p3141
aVtold
p3142
aVcloud
p3143
aVunseen
p3144
aVyet
p3145
aVspring
p3146
aVupon
p3147
aVappalled
p3148
aVsenses
p3149
aVlurked
p3150
aVvaguely
p3151
aVhorrible
p3152
aVmonstrous
p3153
aVinconceivably
p3154
aVwicked
p3155
aVuniverse
p3156
aVvague
p3157
aVshapes
p3158
aVswirled
p3159
aVswam
p3160
aVamid
p3161
aVdark
p3162
aVcloudbank
p3163
aVmenace
p3164
aVwarning
p3165
aVsomething
p3166
aVcoming
p3167
aVadvent
p3168
aVunspeakable
p3169
aVdweller
p3170
aVupon
p3171
aVthreshold
p3172
aVwhose
p3173
aVshadow
p3174
aVwould
p3175
aVblast
p3176
aVsoul
p3177
aVfreezing
p3178
aVhorror
p3179
aVtook
p3180
aVpossession
p3181
aVfelt
p3182
aVhair
p3183
aVrising
p3184
aVeyes
p3185
aVprotruding
p3186
aVmouth
p3187
aVopened
p3188
aVtongue
p3189
aVlike
p3190
aVleather
p3191
aVturmoil
p3192
aVwithin
p3193
aVbrain
p3194
aVsomething
p3195
aVmust
p3196
aVsurely
p3197
aVsnap
p3198
aVtried
p3199
aVscream
p3200
aVvaguely
p3201
aVaware
p3202
aVhoarse
p3203
aVcroak
p3204
aVvoice
p3205
aVdistant
p3206
aVdetached
p3207
aVmoment
p3208
aVeffort
p3209
aVescape
p3210
aVbroke
p3211
aVcloud
p3212
aVdespair
p3213
aVglimpse
p3214
aVholmes
p3215
aVface
p3216
aVwhite
p3217
aVrigid
p3218
aVdrawn
p3219
aVhorror
p3220
aVlook
p3221
aVseen
p3222
aVupon
p3223
aVfeatures
p3224
aVdead
p3225
aVvision
p3226
aVgave
p3227
aVinstant
p3228
aVsanity
p3229
aVstrength
p3230
aVdashed
p3231
aVchair
p3232
aVthrew
p3233
aVarms
p3234
aVround
p3235
aVholmes
p3236
aVtogether
p3237
aVlurched
p3238
aVdoor
p3239
aVinstant
p3240
aVafterwards
p3241
aVthrown
p3242
aVupon
p3243
aVgrass
p3244
aVplot
p3245
aVlying
p3246
aVside
p3247
aVside
p3248
aVconscious
p3249
aVglorious
p3250
aVsunshine
p3251
aVbursting
p3252
aVway
p3253
aVhellish
p3254
aVcloud
p3255
aVterror
p3256
aVgirt
p3257
aVus
p3258
aVslowly
p3259
aVrose
p3260
aVsouls
p3261
aVlike
p3262
aVmists
p3263
aVlandscape
p3264
aVpeace
p3265
aVreason
p3266
aVreturned
p3267
aVsitting
p3268
aVupon
p3269
aVgrass
p3270
aVwiping
p3271
aVclammy
p3272
aVforeheads
p3273
aVlooking
p3274
aVapprehension
p3275
aVmark
p3276
aVlast
p3277
aVtraces
p3278
aVterrific
p3279
aVexperience
p3280
aVundergone
p3281
aVupon
p3282
aVword
p3283
aVwatson
p3284
aVsaid
p3285
aVholmes
p3286
aVlast
p3287
aVunsteady
p3288
aVvoice
p3289
aVowe
p3290
aVthanks
p3291
aVapology
p3292
aVunjustifiable
p3293
aVexperiment
p3294
aVeven
p3295
aVone
p3296
aVself
p3297
aVdoubly
p3298
aVfriend
p3299
aVreally
p3300
aVsorry
p3301
aVknow
p3302
aVanswered
p3303
aVemotion
p3304
aVnever
p3305
aVseen
p3306
aVmuch
p3307
aVholmes
p3308
aVheart
p3309
aVgreatest
p3310
aVjoy
p3311
aVprivilege
p3312
aVhelp
p3313
aVrelapsed
p3314
aVhalfhumorous
p3315
aVhalfcynical
p3316
aVvein
p3317
aVhabitual
p3318
aVattitude
p3319
aVwould
p3320
aVsuperfluous
p3321
aVdrive
p3322
aVus
p3323
aVmad
p3324
aVdear
p3325
aVwatson
p3326
aVsaid
p3327
aVcandid
p3328
aVobserver
p3329
aVwould
p3330
aVcertainly
p3331
aVdeclare
p3332
aValready
p3333
aVembarked
p3334
aVupon
p3335
aVwild
p3336
aVexperiment
p3337
aVconfess
p3338
aVnever
p3339
aVimagined
p3340
aVeffect
p3341
aVcould
p3342
aVsudden
p3343
aVsevere
p3344
aVdashed
p3345
aVcottage
p3346
aVreappearing
p3347
aVburning
p3348
aVlamp
p3349
aVheld
p3350
aVfull
p3351
aVarm
p3352
aVlength
p3353
aVthrew
p3354
aVamong
p3355
aVbank
p3356
aVbrambles
p3357
aVmust
p3358
aVgive
p3359
aVroom
p3360
aVlittle
p3361
aVtime
p3362
aVclear
p3363
aVtake
p3364
aVwatson
p3365
aVlonger
p3366
aVshadow
p3367
aVdoubt
p3368
aVtragedies
p3369
aVproduced
p3370
aVnone
p3371
aVwhatever
p3372
aVcause
p3373
aVremains
p3374
aVobscure
p3375
aVcome
p3376
aVarbour
p3377
aVlet
p3378
aVus
p3379
aVdiscuss
p3380
aVtogether
p3381
aVvillainous
p3382
aVstuff
p3383
aVseems
p3384
aVstill
p3385
aVlinger
p3386
aVround
p3387
aVthroat
p3388
aVthink
p3389
aVmust
p3390
aVadmit
p3391
aVevidence
p3392
aVpoints
p3393
aVman
p3394
aVmortimer
p3395
aVtregennis
p3396
aVcriminal
p3397
aVfirst
p3398
aVtragedy
p3399
aVthough
p3400
aVvictim
p3401
aVsecond
p3402
aVone
p3403
aVmust
p3404
aVremember
p3405
aVfirst
p3406
aVplace
p3407
aVstory
p3408
aVfamily
p3409
aVquarrel
p3410
aVfollowed
p3411
aVreconciliation
p3412
aVbitter
p3413
aVquarrel
p3414
aVmay
p3415
aVhollow
p3416
aVreconciliation
p3417
aVtell
p3418
aVthink
p3419
aVmortimer
p3420
aVtregennis
p3421
aVfoxy
p3422
aVface
p3423
aVsmall
p3424
aVshrewd
p3425
aVbeady
p3426
aVeyes
p3427
aVbehind
p3428
aVspectacles
p3429
aVman
p3430
aVjudge
p3431
aVparticularly
p3432
aVforgiving
p3433
aVdisposition
p3434
aVwell
p3435
aVnext
p3436
aVplace
p3437
aVremember
p3438
aVidea
p3439
aVsomeone
p3440
aVmoving
p3441
aVgarden
p3442
aVtook
p3443
aVattention
p3444
aVmoment
p3445
aVreal
p3446
aVcause
p3447
aVtragedy
p3448
aVemanated
p3449
aVmotive
p3450
aVmisleading
p3451
aVus
p3452
aVfinally
p3453
aVthrow
p3454
aVsubstance
p3455
aVfire
p3456
aVmoment
p3457
aVleaving
p3458
aVroom
p3459
aVaffair
p3460
aVhappened
p3461
aVimmediately
p3462
aVdeparture
p3463
aVanyone
p3464
aVelse
p3465
aVcome
p3466
aVfamily
p3467
aVwould
p3468
aVcertainly
p3469
aVrisen
p3470
aVtable
p3471
aVbesides
p3472
aVpeaceful
p3473
aVcornwall
p3474
aVvisitors
p3475
aVarrive
p3476
aVten
p3477
aVoclock
p3478
aVnight
p3479
aVmay
p3480
aVtake
p3481
aVevidence
p3482
aVpoints
p3483
aVmortimer
p3484
aVtregennis
p3485
aVculprit
p3486
aVdeath
p3487
aVsuicide
p3488
aVwell
p3489
aVwatson
p3490
aVface
p3491
aVimpossible
p3492
aVsupposition
p3493
aVman
p3494
aVguilt
p3495
aVupon
p3496
aVsoul
p3497
aVbrought
p3498
aVfate
p3499
aVupon
p3500
aVfamily
p3501
aVmight
p3502
aVwell
p3503
aVdriven
p3504
aVremorse
p3505
aVinflict
p3506
aVupon
p3507
aVhowever
p3508
aVcogent
p3509
aVreasons
p3510
aVfortunately
p3511
aVone
p3512
aVman
p3513
aVengland
p3514
aVknows
p3515
aVmade
p3516
aVarrangements
p3517
aVshall
p3518
aVhear
p3519
aVfacts
p3520
aVafternoon
p3521
aVlips
p3522
aVah
p3523
aVlittle
p3524
aVtime
p3525
aVperhaps
p3526
aVwould
p3527
aVkindly
p3528
aVstep
p3529
aVway
p3530
aVdr
p3531
aVleon
p3532
aVsterndale
p3533
aVconducing
p3534
aVchemical
p3535
aVexperiment
p3536
aVindoors
p3537
aVleft
p3538
aVlittle
p3539
aVroom
p3540
aVhardly
p3541
aVfit
p3542
aVreception
p3543
aVdistinguished
p3544
aVvisitor
p3545
aVheard
p3546
aVclick
p3547
aVgarden
p3548
aVgate
p3549
aVmajestic
p3550
aVfigure
p3551
aVgreat
p3552
aVafrican
p3553
aVexplorer
p3554
aVappeared
p3555
aVupon
p3556
aVpath
p3557
aVturned
p3558
aVsurprise
p3559
aVtowards
p3560
aVrustic
p3561
aVarbour
p3562
aVsat
p3563
aVsent
p3564
aVmr
p3565
aVholmes
p3566
aVnote
p3567
aVhour
p3568
aVago
p3569
aVcome
p3570
aVthough
p3571
aVreally
p3572
aVknow
p3573
aVobey
p3574
aVsummons
p3575
aVperhaps
p3576
aVclear
p3577
aVpoint
p3578
aVseparate
p3579
aVsaid
p3580
aVholmes
p3581
aVmeanwhile
p3582
aVmuch
p3583
aVobliged
p3584
aVcourteous
p3585
aVacquiescence
p3586
aVexcuse
p3587
aVinformal
p3588
aVreception
p3589
aVopen
p3590
aVair
p3591
aVfriend
p3592
aVwatson
p3593
aVnearly
p3594
aVfurnished
p3595
aVadditional
p3596
aVchapter
p3597
aVpapers
p3598
aVcall
p3599
aVcornish
p3600
aVhorror
p3601
aVprefer
p3602
aVclear
p3603
aVatmosphere
p3604
aVpresent
p3605
aVperhaps
p3606
aVsince
p3607
aVmatters
p3608
aVdiscuss
p3609
aVaffect
p3610
aVpersonally
p3611
aVintimate
p3612
aVfashion
p3613
aVwell
p3614
aVtalk
p3615
aVeavesdropping
p3616
aVexplorer
p3617
aVtook
p3618
aVcigar
p3619
aVlips
p3620
aVgazed
p3621
aVsternly
p3622
aVcompanion
p3623
aVloss
p3624
aVknow
p3625
aVsir
p3626
aVsaid
p3627
aVspeak
p3628
aVaffects
p3629
aVpersonally
p3630
aVintimate
p3631
aVfashion
p3632
aVkilling
p3633
aVmortimer
p3634
aVtregennis
p3635
aVsaid
p3636
aVholmes
p3637
aVmoment
p3638
aVwished
p3639
aVarmed
p3640
aVsterndale
p3641
aVfierce
p3642
aVface
p3643
aVturned
p3644
aVdusky
p3645
aVred
p3646
aVeyes
p3647
aVglared
p3648
aVknotted
p3649
aVpassionate
p3650
aVveins
p3651
aVstarted
p3652
aVforehead
p3653
aVsprang
p3654
aVforward
p3655
aVclenched
p3656
aVhands
p3657
aVtowards
p3658
aVcompanion
p3659
aVstopped
p3660
aVviolent
p3661
aVeffort
p3662
aVresumed
p3663
aVcold
p3664
aVrigid
p3665
aVcalmness
p3666
aVperhaps
p3667
aVsuggestive
p3668
aVdanger
p3669
aVhotheaded
p3670
aVoutburst
p3671
aVlived
p3672
aVlong
p3673
aVamong
p3674
aVsavages
p3675
aVbeyond
p3676
aVlaw
p3677
aVsaid
p3678
aVgot
p3679
aVway
p3680
aVlaw
p3681
aVwould
p3682
aVwell
p3683
aVmr
p3684
aVholmes
p3685
aVforget
p3686
aVdesire
p3687
aVinjury
p3688
aVdesire
p3689
aVinjury
p3690
aVdr
p3691
aVsterndale
p3692
aVsurely
p3693
aVclearest
p3694
aVproof
p3695
aVknowing
p3696
aVknow
p3697
aVsent
p3698
aVpolice
p3699
aVsterndale
p3700
aVsat
p3701
aVgasp
p3702
aVoverawed
p3703
aVperhaps
p3704
aVfirst
p3705
aVtime
p3706
aVadventurous
p3707
aVlife
p3708
aVcalm
p3709
aVassurance
p3710
aVpower
p3711
aVholmes
p3712
aVmanner
p3713
aVcould
p3714
aVwithstood
p3715
aVvisitor
p3716
aVstammered
p3717
aVmoment
p3718
aVgreat
p3719
aVhands
p3720
aVopening
p3721
aVshutting
p3722
aVagitation
p3723
aVmean
p3724
aVasked
p3725
aVlast
p3726
aVbluff
p3727
aVupon
p3728
aVpart
p3729
aVmr
p3730
aVholmes
p3731
aVchosen
p3732
aVbad
p3733
aVman
p3734
aVexperiment
p3735
aVlet
p3736
aVus
p3737
aVbeating
p3738
aVbush
p3739
aVmean
p3740
aVtell
p3741
aVsaid
p3742
aVholmes
p3743
aVreason
p3744
aVtell
p3745
aVhope
p3746
aVfrankness
p3747
aVmay
p3748
aVbeget
p3749
aVfrankness
p3750
aVnext
p3751
aVstep
p3752
aVmay
p3753
aVdepend
p3754
aVentirely
p3755
aVupon
p3756
aVnature
p3757
aVdefence
p3758
aVdefence
p3759
aVyes
p3760
aVsir
p3761
aVdefence
p3762
aVcharge
p3763
aVkilling
p3764
aVmortimer
p3765
aVtregennis
p3766
aVsterndale
p3767
aVmopped
p3768
aVforehead
p3769
aVhandkerchief
p3770
aVupon
p3771
aVword
p3772
aVgetting
p3773
aVsaid
p3774
aVsuccesses
p3775
aVdepend
p3776
aVupon
p3777
aVprodigious
p3778
aVpower
p3779
aVbluff
p3780
aVbluff
p3781
aVsaid
p3782
aVholmes
p3783
aVsternly
p3784
aVupon
p3785
aVside
p3786
aVdr
p3787
aVleon
p3788
aVsterndale
p3789
aVupon
p3790
aVmine
p3791
aVproof
p3792
aVtell
p3793
aVfacts
p3794
aVupon
p3795
aVconclusions
p3796
aVbased
p3797
aVreturn
p3798
aVplymouth
p3799
aVallowing
p3800
aVmuch
p3801
aVproperty
p3802
aVgo
p3803
aVafrica
p3804
aVsay
p3805
aVnothing
p3806
aVsave
p3807
aVfirst
p3808
aVinformed
p3809
aVone
p3810
aVfactors
p3811
aVtaken
p3812
aVaccount
p3813
aVreconstructing
p3814
aVdrama
p3815
aVcame
p3816
aVback
p3817
aVheard
p3818
aVreasons
p3819
aVregard
p3820
aVunconvincing
p3821
aVinadequate
p3822
aVpass
p3823
aVcame
p3824
aVask
p3825
aVsuspected
p3826
aVrefused
p3827
aVanswer
p3828
aVwent
p3829
aVvicarage
p3830
aVwaited
p3831
aVoutside
p3832
aVtime
p3833
aVfinally
p3834
aVreturned
p3835
aVcottage
p3836
aVknow
p3837
aVfollowed
p3838
aVsaw
p3839
aVone
p3840
aVmay
p3841
aVexpect
p3842
aVsee
p3843
aVfollow
p3844
aVspent
p3845
aVrestless
p3846
aVnight
p3847
aVcottage
p3848
aVformed
p3849
aVcertain
p3850
aVplans
p3851
aVearly
p3852
aVmorning
p3853
aVproceeded
p3854
aVput
p3855
aVexecution
p3856
aVleaving
p3857
aVdoor
p3858
aVday
p3859
aVbreaking
p3860
aVfilled
p3861
aVpocket
p3862
aVreddish
p3863
aVgravel
p3864
aVlying
p3865
aVheaped
p3866
aVbeside
p3867
aVgate
p3868
aVsterndale
p3869
aVgave
p3870
aVviolent
p3871
aVstart
p3872
aVlooked
p3873
aVholmes
p3874
aVamazement
p3875
aVwalked
p3876
aVswiftly
p3877
aVmile
p3878
aVseparated
p3879
aVvicarage
p3880
aVwearing
p3881
aVmay
p3882
aVremark
p3883
aVpair
p3884
aVribbed
p3885
aVtennis
p3886
aVshoes
p3887
aVpresent
p3888
aVmoment
p3889
aVupon
p3890
aVfeet
p3891
aVvicarage
p3892
aVpassed
p3893
aVorchard
p3894
aVside
p3895
aVhedge
p3896
aVcoming
p3897
aVwindow
p3898
aVlodger
p3899
aVtregennis
p3900
aVdaylight
p3901
aVhousehold
p3902
aVyet
p3903
aVstirring
p3904
aVdrew
p3905
aVgravel
p3906
aVpocket
p3907
aVthrew
p3908
aVwindow
p3909
aVsterndale
p3910
aVsprang
p3911
aVfeet
p3912
aVbelieve
p3913
aVdevil
p3914
aVcried
p3915
aVholmes
p3916
aVsmiled
p3917
aVcompliment
p3918
aVtook
p3919
aVtwo
p3920
aVpossibly
p3921
aVthree
p3922
aVhandfuls
p3923
aVlodger
p3924
aVcame
p3925
aVwindow
p3926
aVbeckoned
p3927
aVcome
p3928
aVdressed
p3929
aVhurriedly
p3930
aVdescended
p3931
aVsittingroom
p3932
aVentered
p3933
aVwindow
p3934
aVinterview
p3935
aVshort
p3936
aVone
p3937
aVwalked
p3938
aVroom
p3939
aVpassed
p3940
aVclosed
p3941
aVwindow
p3942
aVstanding
p3943
aVlawn
p3944
aVoutside
p3945
aVsmoking
p3946
aVcigar
p3947
aVwatching
p3948
aVoccurred
p3949
aVfinally
p3950
aVdeath
p3951
aVtregennis
p3952
aVwithdrew
p3953
aVcome
p3954
aVdr
p3955
aVsterndale
p3956
aVjustify
p3957
aVconduct
p3958
aVmotives
p3959
aVactions
p3960
aVprevaricate
p3961
aVtrifle
p3962
aVgive
p3963
aVassurance
p3964
aVmatter
p3965
aVpass
p3966
aVhands
p3967
aVforever
p3968
aVvisitor
p3969
aVface
p3970
aVturned
p3971
aVashen
p3972
aVgray
p3973
aVlistened
p3974
aVwords
p3975
aVaccuser
p3976
aVsat
p3977
aVtime
p3978
aVthought
p3979
aVface
p3980
aVsunk
p3981
aVhands
p3982
aVsudden
p3983
aVimpulsive
p3984
aVgesture
p3985
aVplucked
p3986
aVphotograph
p3987
aVbreastpocket
p3988
aVthrew
p3989
aVrustic
p3990
aVtable
p3991
aVus
p3992
aVdone
p3993
aVsaid
p3994
aVshowed
p3995
aVbust
p3996
aVface
p3997
aVbeautiful
p3998
aVwoman
p3999
aVholmes
p4000
aVstooped
p4001
aVbrenda
p4002
aVtregennis
p4003
aVsaid
p4004
aVyes
p4005
aVbrenda
p4006
aVtregennis
p4007
aVrepeated
p4008
aVvisitor
p4009
aVyears
p4010
aVloved
p4011
aVyears
p4012
aVloved
p4013
aVsecret
p4014
aVcornish
p4015
aVseclusion
p4016
aVpeople
p4017
aVmarvelled
p4018
aVbrought
p4019
aVclose
p4020
aVone
p4021
aVthing
p4022
aVearth
p4023
aVdear
p4024
aVcould
p4025
aVmarry
p4026
aVwife
p4027
aVleft
p4028
aVyears
p4029
aVyet
p4030
aVdeplorable
p4031
aVlaws
p4032
aVengland
p4033
aVcould
p4034
aVdivorce
p4035
aVyears
p4036
aVbrenda
p4037
aVwaited
p4038
aVyears
p4039
aVwaited
p4040
aVwaited
p4041
aVterrible
p4042
aVsob
p4043
aVshook
p4044
aVgreat
p4045
aVframe
p4046
aVclutched
p4047
aVthroat
p4048
aVbrindled
p4049
aVbeard
p4050
aVeffort
p4051
aVmastered
p4052
aVspoke
p4053
aVvicar
p4054
aVknew
p4055
aVconfidence
p4056
aVwould
p4057
aVtell
p4058
aVangel
p4059
aVupon
p4060
aVearth
p4061
aVtelegraphed
p4062
aVreturned
p4063
aVbaggage
p4064
aVafrica
p4065
aVlearned
p4066
aVfate
p4067
aVcome
p4068
aVupon
p4069
aVdarling
p4070
aVmissing
p4071
aVclue
p4072
aVaction
p4073
aVmr
p4074
aVholmes
p4075
aVproceed
p4076
aVsaid
p4077
aVfriend
p4078
aVdr
p4079
aVsterndale
p4080
aVdrew
p4081
aVpocket
p4082
aVpaper
p4083
aVpacket
p4084
aVlaid
p4085
aVupon
p4086
aVtable
p4087
aVoutside
p4088
aVwritten
p4089
aVradix
p4090
aVpedis
p4091
aVdiaboli
p4092
aVred
p4093
aVpoison
p4094
aVlabel
p4095
aVbeneath
p4096
aVpushed
p4097
aVtowards
p4098
aVunderstand
p4099
aVdoctor
p4100
aVsir
p4101
aVever
p4102
aVheard
p4103
aVpreparation
p4104
aVdevilsfoot
p4105
aVroot
p4106
aVnever
p4107
aVheard
p4108
aVreflection
p4109
aVupon
p4110
aVprofessional
p4111
aVknowledge
p4112
aVsaid
p4113
aVbelieve
p4114
aVsave
p4115
aVone
p4116
aVsample
p4117
aVlaboratory
p4118
aVbuda
p4119
aVspecimen
p4120
aVeurope
p4121
aVyet
p4122
aVfound
p4123
aVway
p4124
aVeither
p4125
aVpharmacopoeia
p4126
aVliterature
p4127
aVtoxicology
p4128
aVroot
p4129
aVshaped
p4130
aVlike
p4131
aVfoot
p4132
aVhalf
p4133
aVhuman
p4134
aVhalf
p4135
aVgoatlike
p4136
aVhence
p4137
aVfanciful
p4138
aVname
p4139
aVgiven
p4140
aVbotanical
p4141
aVmissionary
p4142
aVused
p4143
aVordeal
p4144
aVpoison
p4145
aVmedicinemen
p4146
aVcertain
p4147
aVdistricts
p4148
aVwest
p4149
aVafrica
p4150
aVkept
p4151
aVsecret
p4152
aVamong
p4153
aVparticular
p4154
aVspecimen
p4155
aVobtained
p4156
aVextraordinary
p4157
aVcircumstances
p4158
aVubangi
p4159
aVcountry
p4160
aVopened
p4161
aVpaper
p4162
aVspoke
p4163
aVdisclosed
p4164
aVheap
p4165
aVreddishbrown
p4166
aVsnufflike
p4167
aVpowder
p4168
aVwell
p4169
aVsir
p4170
aVasked
p4171
aVholmes
p4172
aVsternly
p4173
aVtell
p4174
aVmr
p4175
aVholmes
p4176
aVactually
p4177
aVoccurred
p4178
aValready
p4179
aVknow
p4180
aVmuch
p4181
aVclearly
p4182
aVinterest
p4183
aVknow
p4184
aValready
p4185
aVexplained
p4186
aVrelationship
p4187
aVstood
p4188
aVtregennis
p4189
aVfamily
p4190
aVsake
p4191
aVsister
p4192
aVfriendly
p4193
aVbrothers
p4194
aVfamily
p4195
aVquarrel
p4196
aVmoney
p4197
aVestranged
p4198
aVman
p4199
aVmortimer
p4200
aVsupposed
p4201
aVmade
p4202
aVafterwards
p4203
aVmet
p4204
aVothers
p4205
aVsly
p4206
aVsubtle
p4207
aVscheming
p4208
aVman
p4209
aVseveral
p4210
aVthings
p4211
aVarose
p4212
aVgave
p4213
aVsuspicion
p4214
aVcause
p4215
aVpositive
p4216
aVquarrel
p4217
aVone
p4218
aVday
p4219
aVcouple
p4220
aVweeks
p4221
aVago
p4222
aVcame
p4223
aVcottage
p4224
aVshowed
p4225
aVafrican
p4226
aVcuriosities
p4227
aVamong
p4228
aVthings
p4229
aVexhibited
p4230
aVpowder
p4231
aVtold
p4232
aVstrange
p4233
aVproperties
p4234
aVstimulates
p4235
aVbrain
p4236
aVcentres
p4237
aVcontrol
p4238
aVemotion
p4239
aVfear
p4240
aVeither
p4241
aVmadness
p4242
aVdeath
p4243
aVfate
p4244
aVunhappy
p4245
aVnative
p4246
aVsubjected
p4247
aVordeal
p4248
aVpriest
p4249
aVtribe
p4250
aVtold
p4251
aValso
p4252
aVpowerless
p4253
aVeuropean
p4254
aVscience
p4255
aVwould
p4256
aVdetect
p4257
aVtook
p4258
aVsay
p4259
aVnever
p4260
aVleft
p4261
aVroom
p4262
aVdoubt
p4263
aVopening
p4264
aVcabinets
p4265
aVstooping
p4266
aVboxes
p4267
aVmanaged
p4268
aVabstract
p4269
aVdevilsfoot
p4270
aVroot
p4271
aVwell
p4272
aVremember
p4273
aVplied
p4274
aVquestions
p4275
aVamount
p4276
aVtime
p4277
aVneeded
p4278
aVeffect
p4279
aVlittle
p4280
aVdreamed
p4281
aVcould
p4282
aVpersonal
p4283
aVreason
p4284
aVasking
p4285
aVthought
p4286
aVmatter
p4287
aVvicar
p4288
aVtelegram
p4289
aVreached
p4290
aVplymouth
p4291
aVvillain
p4292
aVthought
p4293
aVwould
p4294
aVsea
p4295
aVnews
p4296
aVcould
p4297
aVreach
p4298
aVlost
p4299
aVyears
p4300
aVafrica
p4301
aVreturned
p4302
aVcourse
p4303
aVcould
p4304
aVlisten
p4305
aVdetails
p4306
aVwithout
p4307
aVfeeling
p4308
aVassured
p4309
aVpoison
p4310
aVused
p4311
aVcame
p4312
aVround
p4313
aVsee
p4314
aVchance
p4315
aVexplanation
p4316
aVsuggested
p4317
aVcould
p4318
aVnone
p4319
aVconvinced
p4320
aVmortimer
p4321
aVtregennis
p4322
aVmurderer
p4323
aVsake
p4324
aVmoney
p4325
aVidea
p4326
aVperhaps
p4327
aVmembers
p4328
aVfamily
p4329
aVinsane
p4330
aVwould
p4331
aVsole
p4332
aVguardian
p4333
aVjoint
p4334
aVproperty
p4335
aVused
p4336
aVdevilsfoot
p4337
aVpowder
p4338
aVupon
p4339
aVdriven
p4340
aVtwo
p4341
aVsenses
p4342
aVkilled
p4343
aVsister
p4344
aVbrenda
p4345
aVone
p4346
aVhuman
p4347
aVever
p4348
aVloved
p4349
aVever
p4350
aVloved
p4351
aVcrime
p4352
aVpunishment
p4353
aVappeal
p4354
aVlaw
p4355
aVproofs
p4356
aVknew
p4357
aVfacts
p4358
aVtrue
p4359
aVcould
p4360
aVhelp
p4361
aVmake
p4362
aVjury
p4363
aVcountrymen
p4364
aVbelieve
p4365
aVfantastic
p4366
aVstory
p4367
aVmight
p4368
aVmight
p4369
aVcould
p4370
aVafford
p4371
aVfail
p4372
aVsoul
p4373
aVcried
p4374
aVrevenge
p4375
aVsaid
p4376
aVmr
p4377
aVholmes
p4378
aVspent
p4379
aVmuch
p4380
aVlife
p4381
aVoutside
p4382
aVlaw
p4383
aVcome
p4384
aVlast
p4385
aVlaw
p4386
aVeven
p4387
aVdetermined
p4388
aVfate
p4389
aVgiven
p4390
aVothers
p4391
aVshared
p4392
aVeither
p4393
aVwould
p4394
aVjustice
p4395
aVupon
p4396
aVhand
p4397
aVengland
p4398
aVman
p4399
aVsets
p4400
aVless
p4401
aVvalue
p4402
aVupon
p4403
aVlife
p4404
aVpresent
p4405
aVmoment
p4406
aVtold
p4407
aVsupplied
p4408
aVrest
p4409
aVsay
p4410
aVrestless
p4411
aVnight
p4412
aVset
p4413
aVearly
p4414
aVcottage
p4415
aVforesaw
p4416
aVdifficulty
p4417
aVarousing
p4418
aVgathered
p4419
aVgravel
p4420
aVpile
p4421
aVmentioned
p4422
aVused
p4423
aVthrow
p4424
aVwindow
p4425
aVcame
p4426
aVadmitted
p4427
aVwindow
p4428
aVsittingroom
p4429
aVlaid
p4430
aVoffence
p4431
aVtold
p4432
aVcome
p4433
aVjudge
p4434
aVexecutioner
p4435
aVwretch
p4436
aVsank
p4437
aVchair
p4438
aVparalyzed
p4439
aVsight
p4440
aVrevolver
p4441
aVlit
p4442
aVlamp
p4443
aVput
p4444
aVpowder
p4445
aVstood
p4446
aVoutside
p4447
aVwindow
p4448
aVready
p4449
aVcarry
p4450
aVthreat
p4451
aVshoot
p4452
aVtry
p4453
aVleave
p4454
aVroom
p4455
aVfive
p4456
aVminutes
p4457
aVdied
p4458
aVgod
p4459
aVdied
p4460
aVheart
p4461
aVflint
p4462
aVendured
p4463
aVnothing
p4464
aVinnocent
p4465
aVdarling
p4466
aVfelt
p4467
aVstory
p4468
aVmr
p4469
aVholmes
p4470
aVperhaps
p4471
aVloved
p4472
aVwoman
p4473
aVwould
p4474
aVdone
p4475
aVmuch
p4476
aVrate
p4477
aVhands
p4478
aVtake
p4479
aVsteps
p4480
aVlike
p4481
aValready
p4482
aVsaid
p4483
aVman
p4484
aVliving
p4485
aVfear
p4486
aVdeath
p4487
aVless
p4488
aVholmes
p4489
aVsat
p4490
aVlittle
p4491
aVtime
p4492
aVsilence
p4493
aVplans
p4494
aVasked
p4495
aVlast
p4496
aVintended
p4497
aVbury
p4498
aVcentral
p4499
aVafrica
p4500
aVwork
p4501
aVhalf
p4502
aVfinished
p4503
aVgo
p4504
aVhalf
p4505
aVsaid
p4506
aVholmes
p4507
aVleast
p4508
aVprepared
p4509
aVprevent
p4510
aVdr
p4511
aVsterndale
p4512
aVraised
p4513
aVgiant
p4514
aVfigure
p4515
aVbowed
p4516
aVgravely
p4517
aVwalked
p4518
aVarbour
p4519
aVholmes
p4520
aVlit
p4521
aVpipe
p4522
aVhanded
p4523
aVpouch
p4524
aVfumes
p4525
aVpoisonous
p4526
aVwould
p4527
aVwelcome
p4528
aVchange
p4529
aVsaid
p4530
aVthink
p4531
aVmust
p4532
aVagree
p4533
aVwatson
p4534
aVcase
p4535
aVcalled
p4536
aVupon
p4537
aVinterfere
p4538
aVinvestigation
p4539
aVindependent
p4540
aVaction
p4541
aVshall
p4542
aValso
p4543
aVwould
p4544
aVdenounce
p4545
aVman
p4546
aVcertainly
p4547
aVanswered
p4548
aVnever
p4549
aVloved
p4550
aVwatson
p4551
aVwoman
p4552
aVloved
p4553
aVmet
p4554
aVend
p4555
aVmight
p4556
aVact
p4557
aVeven
p4558
aVlawless
p4559
aVlionhunter
p4560
aVdone
p4561
aVknows
p4562
aVwell
p4563
aVwatson
p4564
aVoffend
p4565
aVintelligence
p4566
aVexplaining
p4567
aVobvious
p4568
aVgravel
p4569
aVupon
p4570
aVwindowsill
p4571
aVcourse
p4572
aVstartingpoint
p4573
aVresearch
p4574
aVunlike
p4575
aVanything
p4576
aVvicarage
p4577
aVgarden
p4578
aVattention
p4579
aVdrawn
p4580
aVdr
p4581
aVsterndale
p4582
aVcottage
p4583
aVfind
p4584
aVcounterpart
p4585
aVlamp
p4586
aVshining
p4587
aVbroad
p4588
aVdaylight
p4589
aVremains
p4590
aVpowder
p4591
aVupon
p4592
aVshield
p4593
aVsuccessive
p4594
aVlinks
p4595
aVfairly
p4596
aVobvious
p4597
aVchain
p4598
aVdear
p4599
aVwatson
p4600
aVthink
p4601
aVmay
p4602
aVdismiss
p4603
aVmatter
p4604
aVmind
p4605
aVgo
p4606
aVback
p4607
aVclear
p4608
aVconscience
p4609
aVstudy
p4610
aVchaldean
p4611
aVroots
p4612
aVsurely
p4613
aVtraced
p4614
aVcornish
p4615
aVbranch
p4616
aVgreat
p4617
aVceltic
p4618
aVspeech
p4619
a.